
blinkled.elf:     file format elf32-littlearm

Sections:
Idx Name          Size      VMA       LMA       File off  Algn
  0 .isr_vector   0000010c  08000000  08000000  00010000  2**0
                  CONTENTS, ALLOC, LOAD, READONLY, DATA
  1 .text         00003fd4  08000110  08000110  00010110  2**4
                  CONTENTS, ALLOC, LOAD, READONLY, CODE
  2 .rodata       00000044  080040e4  080040e4  000140e4  2**2
                  CONTENTS, ALLOC, LOAD, READONLY, DATA
  3 .ARM.extab    00000000  08004128  08004128  00020010  2**0
                  CONTENTS
  4 .ARM          00000000  08004128  08004128  00020010  2**0
                  CONTENTS
  5 .preinit_array 00000000  08004128  08004128  00020010  2**0
                  CONTENTS, ALLOC, LOAD, DATA
  6 .init_array   00000004  08004128  08004128  00014128  2**2
                  CONTENTS, ALLOC, LOAD, DATA
  7 .fini_array   00000004  0800412c  0800412c  0001412c  2**2
                  CONTENTS, ALLOC, LOAD, DATA
  8 .data         00000010  20000000  08004130  00020000  2**2
                  CONTENTS, ALLOC, LOAD, DATA
  9 .bss          000019f4  20000010  08004140  00020010  2**2
                  ALLOC
 10 ._user_heap_stack 00000604  20001a04  08004140  00021a04  2**0
                  ALLOC
 11 .ARM.attributes 00000029  00000000  00000000  00020010  2**0
                  CONTENTS, READONLY
 12 .debug_info   00015e2f  00000000  00000000  00020039  2**0
                  CONTENTS, READONLY, DEBUGGING
 13 .debug_abbrev 00002af2  00000000  00000000  00035e68  2**0
                  CONTENTS, READONLY, DEBUGGING
 14 .debug_aranges 000012b8  00000000  00000000  00038960  2**3
                  CONTENTS, READONLY, DEBUGGING
 15 .debug_ranges 000011b0  00000000  00000000  00039c18  2**3
                  CONTENTS, READONLY, DEBUGGING
 16 .debug_macro  000027e0  00000000  00000000  0003adc8  2**0
                  CONTENTS, READONLY, DEBUGGING
 17 .debug_line   0000ea4d  00000000  00000000  0003d5a8  2**0
                  CONTENTS, READONLY, DEBUGGING
 18 .debug_str    00092dd2  00000000  00000000  0004bff5  2**0
                  CONTENTS, READONLY, DEBUGGING
 19 .comment      0000007b  00000000  00000000  000dedc7  2**0
                  CONTENTS, READONLY
 20 .debug_frame  00004ea8  00000000  00000000  000dee44  2**2
                  CONTENTS, READONLY, DEBUGGING

Disassembly of section .text:

08000110 <__do_global_dtors_aux>:
 8000110:	b510      	push	{r4, lr}
 8000112:	4c05      	ldr	r4, [pc, #20]	; (8000128 <__do_global_dtors_aux+0x18>)
 8000114:	7823      	ldrb	r3, [r4, #0]
 8000116:	b933      	cbnz	r3, 8000126 <__do_global_dtors_aux+0x16>
 8000118:	4b04      	ldr	r3, [pc, #16]	; (800012c <__do_global_dtors_aux+0x1c>)
 800011a:	b113      	cbz	r3, 8000122 <__do_global_dtors_aux+0x12>
 800011c:	4804      	ldr	r0, [pc, #16]	; (8000130 <__do_global_dtors_aux+0x20>)
 800011e:	f3af 8000 	nop.w
 8000122:	2301      	movs	r3, #1
 8000124:	7023      	strb	r3, [r4, #0]
 8000126:	bd10      	pop	{r4, pc}
 8000128:	20000010 	.word	0x20000010
 800012c:	00000000 	.word	0x00000000
 8000130:	080040cc 	.word	0x080040cc

08000134 <frame_dummy>:
 8000134:	b508      	push	{r3, lr}
 8000136:	4b03      	ldr	r3, [pc, #12]	; (8000144 <frame_dummy+0x10>)
 8000138:	b11b      	cbz	r3, 8000142 <frame_dummy+0xe>
 800013a:	4903      	ldr	r1, [pc, #12]	; (8000148 <frame_dummy+0x14>)
 800013c:	4803      	ldr	r0, [pc, #12]	; (800014c <frame_dummy+0x18>)
 800013e:	f3af 8000 	nop.w
 8000142:	bd08      	pop	{r3, pc}
 8000144:	00000000 	.word	0x00000000
 8000148:	20000014 	.word	0x20000014
 800014c:	080040cc 	.word	0x080040cc

08000150 <main>:
/**
  * @brief  The application entry point.
  * @retval int
  */
int main(void)
{
 8000150:	b580      	push	{r7, lr}
 8000152:	b082      	sub	sp, #8
 8000154:	af02      	add	r7, sp, #8
  /* USER CODE BEGIN 1 */

  /* USER CODE END 1 */

  /* MCU Configuration--------------------------------------------------------*/
xTaskCreate(T_1, NULL, 100, NULL, 1, NULL);
 8000156:	2300      	movs	r3, #0
 8000158:	9301      	str	r3, [sp, #4]
 800015a:	2301      	movs	r3, #1
 800015c:	9300      	str	r3, [sp, #0]
 800015e:	2300      	movs	r3, #0
 8000160:	2264      	movs	r2, #100	; 0x64
 8000162:	2100      	movs	r1, #0
 8000164:	4806      	ldr	r0, [pc, #24]	; (8000180 <main+0x30>)
 8000166:	f002 fa32 	bl	80025ce <xTaskCreate>
  /* Reset of all peripherals, Initializes the Flash interface and the Systick. */
  HAL_Init();
 800016a:	f000 fa11 	bl	8000590 <HAL_Init>
  /* USER CODE BEGIN Init */

  /* USER CODE END Init */

  /* Configure the system clock */
  SystemClock_Config();
 800016e:	f000 f809 	bl	8000184 <SystemClock_Config>
  /* USER CODE BEGIN SysInit */

  /* USER CODE END SysInit */

  /* Initialize all configured peripherals */
  MX_GPIO_Init();
 8000172:	f000 f86d 	bl	8000250 <MX_GPIO_Init>
  MX_USART1_UART_Init();
 8000176:	f000 f841 	bl	80001fc <MX_USART1_UART_Init>
  /* add threads, ... */
  /* USER CODE END RTOS_THREADS */

  /* Start scheduler */
  //osKernelStart();
  vTaskStartScheduler();
 800017a:	f002 fb97 	bl	80028ac <vTaskStartScheduler>
  /* We should never get here as control is now taken by the scheduler */
  /* Infinite loop */
  /* USER CODE BEGIN WHILE */
  while (1)
 800017e:	e7fe      	b.n	800017e <main+0x2e>
 8000180:	08000301 	.word	0x08000301

08000184 <SystemClock_Config>:
/**
  * @brief System Clock Configuration
  * @retval None
  */
void SystemClock_Config(void)
{
 8000184:	b580      	push	{r7, lr}
 8000186:	b090      	sub	sp, #64	; 0x40
 8000188:	af00      	add	r7, sp, #0
  RCC_OscInitTypeDef RCC_OscInitStruct = {0};
 800018a:	f107 0318 	add.w	r3, r7, #24
 800018e:	2228      	movs	r2, #40	; 0x28
 8000190:	2100      	movs	r1, #0
 8000192:	4618      	mov	r0, r3
 8000194:	f003 ff91 	bl	80040ba <memset>
  RCC_ClkInitTypeDef RCC_ClkInitStruct = {0};
 8000198:	1d3b      	adds	r3, r7, #4
 800019a:	2200      	movs	r2, #0
 800019c:	601a      	str	r2, [r3, #0]
 800019e:	605a      	str	r2, [r3, #4]
 80001a0:	609a      	str	r2, [r3, #8]
 80001a2:	60da      	str	r2, [r3, #12]
 80001a4:	611a      	str	r2, [r3, #16]

  /** Initializes the RCC Oscillators according to the specified parameters
  * in the RCC_OscInitTypeDef structure.
  */
  RCC_OscInitStruct.OscillatorType = RCC_OSCILLATORTYPE_HSI;
 80001a6:	2302      	movs	r3, #2
 80001a8:	61bb      	str	r3, [r7, #24]
  RCC_OscInitStruct.HSIState = RCC_HSI_ON;
 80001aa:	2301      	movs	r3, #1
 80001ac:	62bb      	str	r3, [r7, #40]	; 0x28
  RCC_OscInitStruct.HSICalibrationValue = RCC_HSICALIBRATION_DEFAULT;
 80001ae:	2310      	movs	r3, #16
 80001b0:	62fb      	str	r3, [r7, #44]	; 0x2c
  RCC_OscInitStruct.PLL.PLLState = RCC_PLL_NONE;
 80001b2:	2300      	movs	r3, #0
 80001b4:	637b      	str	r3, [r7, #52]	; 0x34
  if (HAL_RCC_OscConfig(&RCC_OscInitStruct) != HAL_OK)
 80001b6:	f107 0318 	add.w	r3, r7, #24
 80001ba:	4618      	mov	r0, r3
 80001bc:	f000 fc86 	bl	8000acc <HAL_RCC_OscConfig>
 80001c0:	4603      	mov	r3, r0
 80001c2:	2b00      	cmp	r3, #0
 80001c4:	d001      	beq.n	80001ca <SystemClock_Config+0x46>
  {
    Error_Handler();
 80001c6:	f000 f8bb 	bl	8000340 <Error_Handler>
  }
  /** Initializes the CPU, AHB and APB buses clocks
  */
  RCC_ClkInitStruct.ClockType = RCC_CLOCKTYPE_HCLK|RCC_CLOCKTYPE_SYSCLK
 80001ca:	230f      	movs	r3, #15
 80001cc:	607b      	str	r3, [r7, #4]
                              |RCC_CLOCKTYPE_PCLK1|RCC_CLOCKTYPE_PCLK2;
  RCC_ClkInitStruct.SYSCLKSource = RCC_SYSCLKSOURCE_HSI;
 80001ce:	2300      	movs	r3, #0
 80001d0:	60bb      	str	r3, [r7, #8]
  RCC_ClkInitStruct.AHBCLKDivider = RCC_SYSCLK_DIV1;
 80001d2:	2300      	movs	r3, #0
 80001d4:	60fb      	str	r3, [r7, #12]
  RCC_ClkInitStruct.APB1CLKDivider = RCC_HCLK_DIV1;
 80001d6:	2300      	movs	r3, #0
 80001d8:	613b      	str	r3, [r7, #16]
  RCC_ClkInitStruct.APB2CLKDivider = RCC_HCLK_DIV1;
 80001da:	2300      	movs	r3, #0
 80001dc:	617b      	str	r3, [r7, #20]

  if (HAL_RCC_ClockConfig(&RCC_ClkInitStruct, FLASH_LATENCY_0) != HAL_OK)
 80001de:	1d3b      	adds	r3, r7, #4
 80001e0:	2100      	movs	r1, #0
 80001e2:	4618      	mov	r0, r3
 80001e4:	f000 fef2 	bl	8000fcc <HAL_RCC_ClockConfig>
 80001e8:	4603      	mov	r3, r0
 80001ea:	2b00      	cmp	r3, #0
 80001ec:	d001      	beq.n	80001f2 <SystemClock_Config+0x6e>
  {
    Error_Handler();
 80001ee:	f000 f8a7 	bl	8000340 <Error_Handler>
  }
}
 80001f2:	bf00      	nop
 80001f4:	3740      	adds	r7, #64	; 0x40
 80001f6:	46bd      	mov	sp, r7
 80001f8:	bd80      	pop	{r7, pc}
	...

080001fc <MX_USART1_UART_Init>:
  * @brief USART1 Initialization Function
  * @param None
  * @retval None
  */
static void MX_USART1_UART_Init(void)
{
 80001fc:	b580      	push	{r7, lr}
 80001fe:	af00      	add	r7, sp, #0
  /* USER CODE END USART1_Init 0 */

  /* USER CODE BEGIN USART1_Init 1 */

  /* USER CODE END USART1_Init 1 */
  huart1.Instance = USART1;
 8000200:	4b11      	ldr	r3, [pc, #68]	; (8000248 <MX_USART1_UART_Init+0x4c>)
 8000202:	4a12      	ldr	r2, [pc, #72]	; (800024c <MX_USART1_UART_Init+0x50>)
 8000204:	601a      	str	r2, [r3, #0]
  huart1.Init.BaudRate = 9600;
 8000206:	4b10      	ldr	r3, [pc, #64]	; (8000248 <MX_USART1_UART_Init+0x4c>)
 8000208:	f44f 5216 	mov.w	r2, #9600	; 0x2580
 800020c:	605a      	str	r2, [r3, #4]
  huart1.Init.WordLength = UART_WORDLENGTH_8B;
 800020e:	4b0e      	ldr	r3, [pc, #56]	; (8000248 <MX_USART1_UART_Init+0x4c>)
 8000210:	2200      	movs	r2, #0
 8000212:	609a      	str	r2, [r3, #8]
  huart1.Init.StopBits = UART_STOPBITS_1;
 8000214:	4b0c      	ldr	r3, [pc, #48]	; (8000248 <MX_USART1_UART_Init+0x4c>)
 8000216:	2200      	movs	r2, #0
 8000218:	60da      	str	r2, [r3, #12]
  huart1.Init.Parity = UART_PARITY_NONE;
 800021a:	4b0b      	ldr	r3, [pc, #44]	; (8000248 <MX_USART1_UART_Init+0x4c>)
 800021c:	2200      	movs	r2, #0
 800021e:	611a      	str	r2, [r3, #16]
  huart1.Init.Mode = UART_MODE_TX_RX;
 8000220:	4b09      	ldr	r3, [pc, #36]	; (8000248 <MX_USART1_UART_Init+0x4c>)
 8000222:	220c      	movs	r2, #12
 8000224:	615a      	str	r2, [r3, #20]
  huart1.Init.HwFlowCtl = UART_HWCONTROL_RTS_CTS;
 8000226:	4b08      	ldr	r3, [pc, #32]	; (8000248 <MX_USART1_UART_Init+0x4c>)
 8000228:	f44f 7240 	mov.w	r2, #768	; 0x300
 800022c:	619a      	str	r2, [r3, #24]
  huart1.Init.OverSampling = UART_OVERSAMPLING_16;
 800022e:	4b06      	ldr	r3, [pc, #24]	; (8000248 <MX_USART1_UART_Init+0x4c>)
 8000230:	2200      	movs	r2, #0
 8000232:	61da      	str	r2, [r3, #28]
  if (HAL_UART_Init(&huart1) != HAL_OK)
 8000234:	4804      	ldr	r0, [pc, #16]	; (8000248 <MX_USART1_UART_Init+0x4c>)
 8000236:	f001 fadf 	bl	80017f8 <HAL_UART_Init>
 800023a:	4603      	mov	r3, r0
 800023c:	2b00      	cmp	r3, #0
 800023e:	d001      	beq.n	8000244 <MX_USART1_UART_Init+0x48>
  {
    Error_Handler();
 8000240:	f000 f87e 	bl	8000340 <Error_Handler>
  }
  /* USER CODE BEGIN USART1_Init 2 */

  /* USER CODE END USART1_Init 2 */

}
 8000244:	bf00      	nop
 8000246:	bd80      	pop	{r7, pc}
 8000248:	20001934 	.word	0x20001934
 800024c:	40013800 	.word	0x40013800

08000250 <MX_GPIO_Init>:
  * @brief GPIO Initialization Function
  * @param None
  * @retval None
  */
static void MX_GPIO_Init(void)
{
 8000250:	b580      	push	{r7, lr}
 8000252:	b088      	sub	sp, #32
 8000254:	af00      	add	r7, sp, #0
  GPIO_InitTypeDef GPIO_InitStruct = {0};
 8000256:	f107 0310 	add.w	r3, r7, #16
 800025a:	2200      	movs	r2, #0
 800025c:	601a      	str	r2, [r3, #0]
 800025e:	605a      	str	r2, [r3, #4]
 8000260:	609a      	str	r2, [r3, #8]
 8000262:	60da      	str	r2, [r3, #12]

  /* GPIO Ports Clock Enable */
  __HAL_RCC_GPIOC_CLK_ENABLE();
 8000264:	4b24      	ldr	r3, [pc, #144]	; (80002f8 <MX_GPIO_Init+0xa8>)
 8000266:	699b      	ldr	r3, [r3, #24]
 8000268:	4a23      	ldr	r2, [pc, #140]	; (80002f8 <MX_GPIO_Init+0xa8>)
 800026a:	f043 0310 	orr.w	r3, r3, #16
 800026e:	6193      	str	r3, [r2, #24]
 8000270:	4b21      	ldr	r3, [pc, #132]	; (80002f8 <MX_GPIO_Init+0xa8>)
 8000272:	699b      	ldr	r3, [r3, #24]
 8000274:	f003 0310 	and.w	r3, r3, #16
 8000278:	60fb      	str	r3, [r7, #12]
 800027a:	68fb      	ldr	r3, [r7, #12]
  __HAL_RCC_GPIOD_CLK_ENABLE();
 800027c:	4b1e      	ldr	r3, [pc, #120]	; (80002f8 <MX_GPIO_Init+0xa8>)
 800027e:	699b      	ldr	r3, [r3, #24]
 8000280:	4a1d      	ldr	r2, [pc, #116]	; (80002f8 <MX_GPIO_Init+0xa8>)
 8000282:	f043 0320 	orr.w	r3, r3, #32
 8000286:	6193      	str	r3, [r2, #24]
 8000288:	4b1b      	ldr	r3, [pc, #108]	; (80002f8 <MX_GPIO_Init+0xa8>)
 800028a:	699b      	ldr	r3, [r3, #24]
 800028c:	f003 0320 	and.w	r3, r3, #32
 8000290:	60bb      	str	r3, [r7, #8]
 8000292:	68bb      	ldr	r3, [r7, #8]
  __HAL_RCC_GPIOA_CLK_ENABLE();
 8000294:	4b18      	ldr	r3, [pc, #96]	; (80002f8 <MX_GPIO_Init+0xa8>)
 8000296:	699b      	ldr	r3, [r3, #24]
 8000298:	4a17      	ldr	r2, [pc, #92]	; (80002f8 <MX_GPIO_Init+0xa8>)
 800029a:	f043 0304 	orr.w	r3, r3, #4
 800029e:	6193      	str	r3, [r2, #24]
 80002a0:	4b15      	ldr	r3, [pc, #84]	; (80002f8 <MX_GPIO_Init+0xa8>)
 80002a2:	699b      	ldr	r3, [r3, #24]
 80002a4:	f003 0304 	and.w	r3, r3, #4
 80002a8:	607b      	str	r3, [r7, #4]
 80002aa:	687b      	ldr	r3, [r7, #4]
  __HAL_RCC_GPIOB_CLK_ENABLE();
 80002ac:	4b12      	ldr	r3, [pc, #72]	; (80002f8 <MX_GPIO_Init+0xa8>)
 80002ae:	699b      	ldr	r3, [r3, #24]
 80002b0:	4a11      	ldr	r2, [pc, #68]	; (80002f8 <MX_GPIO_Init+0xa8>)
 80002b2:	f043 0308 	orr.w	r3, r3, #8
 80002b6:	6193      	str	r3, [r2, #24]
 80002b8:	4b0f      	ldr	r3, [pc, #60]	; (80002f8 <MX_GPIO_Init+0xa8>)
 80002ba:	699b      	ldr	r3, [r3, #24]
 80002bc:	f003 0308 	and.w	r3, r3, #8
 80002c0:	603b      	str	r3, [r7, #0]
 80002c2:	683b      	ldr	r3, [r7, #0]

  /*Configure GPIO pin Output Level */
  HAL_GPIO_WritePin(GPIOC, GPIO_PIN_13, GPIO_PIN_RESET);
 80002c4:	2200      	movs	r2, #0
 80002c6:	f44f 5100 	mov.w	r1, #8192	; 0x2000
 80002ca:	480c      	ldr	r0, [pc, #48]	; (80002fc <MX_GPIO_Init+0xac>)
 80002cc:	f000 fbcc 	bl	8000a68 <HAL_GPIO_WritePin>

  /*Configure GPIO pin : PC13 */
  GPIO_InitStruct.Pin = GPIO_PIN_13;
 80002d0:	f44f 5300 	mov.w	r3, #8192	; 0x2000
 80002d4:	613b      	str	r3, [r7, #16]
  GPIO_InitStruct.Mode = GPIO_MODE_OUTPUT_PP;
 80002d6:	2301      	movs	r3, #1
 80002d8:	617b      	str	r3, [r7, #20]
  GPIO_InitStruct.Pull = GPIO_NOPULL;
 80002da:	2300      	movs	r3, #0
 80002dc:	61bb      	str	r3, [r7, #24]
  GPIO_InitStruct.Speed = GPIO_SPEED_FREQ_LOW;
 80002de:	2302      	movs	r3, #2
 80002e0:	61fb      	str	r3, [r7, #28]
  HAL_GPIO_Init(GPIOC, &GPIO_InitStruct);
 80002e2:	f107 0310 	add.w	r3, r7, #16
 80002e6:	4619      	mov	r1, r3
 80002e8:	4804      	ldr	r0, [pc, #16]	; (80002fc <MX_GPIO_Init+0xac>)
 80002ea:	f000 fa63 	bl	80007b4 <HAL_GPIO_Init>

}
 80002ee:	bf00      	nop
 80002f0:	3720      	adds	r7, #32
 80002f2:	46bd      	mov	sp, r7
 80002f4:	bd80      	pop	{r7, pc}
 80002f6:	bf00      	nop
 80002f8:	40021000 	.word	0x40021000
 80002fc:	40011000 	.word	0x40011000

08000300 <T_1>:


void T_1(void){
 8000300:	b580      	push	{r7, lr}
 8000302:	af00      	add	r7, sp, #0
	while(1){
	HAL_GPIO_TogglePin(GPIOC, GPIO_PIN_13);
 8000304:	f44f 5100 	mov.w	r1, #8192	; 0x2000
 8000308:	4803      	ldr	r0, [pc, #12]	; (8000318 <T_1+0x18>)
 800030a:	f000 fbc5 	bl	8000a98 <HAL_GPIO_TogglePin>
	//HAL_GPIO, GPIO_Pin)
	vTaskDelay(1000);
 800030e:	f44f 707a 	mov.w	r0, #1000	; 0x3e8
 8000312:	f002 fa97 	bl	8002844 <vTaskDelay>
	HAL_GPIO_TogglePin(GPIOC, GPIO_PIN_13);
 8000316:	e7f5      	b.n	8000304 <T_1+0x4>
 8000318:	40011000 	.word	0x40011000

0800031c <HAL_TIM_PeriodElapsedCallback>:
  * a global variable "uwTick" used as application time base.
  * @param  htim : TIM handle
  * @retval None
  */
void HAL_TIM_PeriodElapsedCallback(TIM_HandleTypeDef *htim)
{
 800031c:	b580      	push	{r7, lr}
 800031e:	b082      	sub	sp, #8
 8000320:	af00      	add	r7, sp, #0
 8000322:	6078      	str	r0, [r7, #4]
  /* USER CODE BEGIN Callback 0 */

  /* USER CODE END Callback 0 */
  if (htim->Instance == TIM1) {
 8000324:	687b      	ldr	r3, [r7, #4]
 8000326:	681b      	ldr	r3, [r3, #0]
 8000328:	4a04      	ldr	r2, [pc, #16]	; (800033c <HAL_TIM_PeriodElapsedCallback+0x20>)
 800032a:	4293      	cmp	r3, r2
 800032c:	d101      	bne.n	8000332 <HAL_TIM_PeriodElapsedCallback+0x16>
    HAL_IncTick();
 800032e:	f000 f945 	bl	80005bc <HAL_IncTick>
  }
  /* USER CODE BEGIN Callback 1 */

  /* USER CODE END Callback 1 */
}
 8000332:	bf00      	nop
 8000334:	3708      	adds	r7, #8
 8000336:	46bd      	mov	sp, r7
 8000338:	bd80      	pop	{r7, pc}
 800033a:	bf00      	nop
 800033c:	40012c00 	.word	0x40012c00

08000340 <Error_Handler>:
/**
  * @brief  This function is executed in case of error occurrence.
  * @retval None
  */
void Error_Handler(void)
{
 8000340:	b480      	push	{r7}
 8000342:	af00      	add	r7, sp, #0
  /* USER CODE BEGIN Error_Handler_Debug */
  /* User can add his own implementation to report the HAL error return state */

  /* USER CODE END Error_Handler_Debug */
}
 8000344:	bf00      	nop
 8000346:	46bd      	mov	sp, r7
 8000348:	bc80      	pop	{r7}
 800034a:	4770      	bx	lr

0800034c <HAL_MspInit>:
/* USER CODE END 0 */
/**
  * Initializes the Global MSP.
  */
void HAL_MspInit(void)
{
 800034c:	b480      	push	{r7}
 800034e:	b085      	sub	sp, #20
 8000350:	af00      	add	r7, sp, #0
  /* USER CODE BEGIN MspInit 0 */

  /* USER CODE END MspInit 0 */

  __HAL_RCC_AFIO_CLK_ENABLE();
 8000352:	4b15      	ldr	r3, [pc, #84]	; (80003a8 <HAL_MspInit+0x5c>)
 8000354:	699b      	ldr	r3, [r3, #24]
 8000356:	4a14      	ldr	r2, [pc, #80]	; (80003a8 <HAL_MspInit+0x5c>)
 8000358:	f043 0301 	orr.w	r3, r3, #1
 800035c:	6193      	str	r3, [r2, #24]
 800035e:	4b12      	ldr	r3, [pc, #72]	; (80003a8 <HAL_MspInit+0x5c>)
 8000360:	699b      	ldr	r3, [r3, #24]
 8000362:	f003 0301 	and.w	r3, r3, #1
 8000366:	60bb      	str	r3, [r7, #8]
 8000368:	68bb      	ldr	r3, [r7, #8]
  __HAL_RCC_PWR_CLK_ENABLE();
 800036a:	4b0f      	ldr	r3, [pc, #60]	; (80003a8 <HAL_MspInit+0x5c>)
 800036c:	69db      	ldr	r3, [r3, #28]
 800036e:	4a0e      	ldr	r2, [pc, #56]	; (80003a8 <HAL_MspInit+0x5c>)
 8000370:	f043 5380 	orr.w	r3, r3, #268435456	; 0x10000000
 8000374:	61d3      	str	r3, [r2, #28]
 8000376:	4b0c      	ldr	r3, [pc, #48]	; (80003a8 <HAL_MspInit+0x5c>)
 8000378:	69db      	ldr	r3, [r3, #28]
 800037a:	f003 5380 	and.w	r3, r3, #268435456	; 0x10000000
 800037e:	607b      	str	r3, [r7, #4]
 8000380:	687b      	ldr	r3, [r7, #4]

  /* System interrupt init*/

  /** NOJTAG: JTAG-DP Disabled and SW-DP Enabled
  */
  __HAL_AFIO_REMAP_SWJ_NOJTAG();
 8000382:	4b0a      	ldr	r3, [pc, #40]	; (80003ac <HAL_MspInit+0x60>)
 8000384:	685b      	ldr	r3, [r3, #4]
 8000386:	60fb      	str	r3, [r7, #12]
 8000388:	68fb      	ldr	r3, [r7, #12]
 800038a:	f023 63e0 	bic.w	r3, r3, #117440512	; 0x7000000
 800038e:	60fb      	str	r3, [r7, #12]
 8000390:	68fb      	ldr	r3, [r7, #12]
 8000392:	f043 7300 	orr.w	r3, r3, #33554432	; 0x2000000
 8000396:	60fb      	str	r3, [r7, #12]
 8000398:	4a04      	ldr	r2, [pc, #16]	; (80003ac <HAL_MspInit+0x60>)
 800039a:	68fb      	ldr	r3, [r7, #12]
 800039c:	6053      	str	r3, [r2, #4]

  /* USER CODE BEGIN MspInit 1 */

  /* USER CODE END MspInit 1 */
}
 800039e:	bf00      	nop
 80003a0:	3714      	adds	r7, #20
 80003a2:	46bd      	mov	sp, r7
 80003a4:	bc80      	pop	{r7}
 80003a6:	4770      	bx	lr
 80003a8:	40021000 	.word	0x40021000
 80003ac:	40010000 	.word	0x40010000

080003b0 <HAL_UART_MspInit>:
* This function configures the hardware resources used in this example
* @param huart: UART handle pointer
* @retval None
*/
void HAL_UART_MspInit(UART_HandleTypeDef* huart)
{
 80003b0:	b580      	push	{r7, lr}
 80003b2:	b088      	sub	sp, #32
 80003b4:	af00      	add	r7, sp, #0
 80003b6:	6078      	str	r0, [r7, #4]
  GPIO_InitTypeDef GPIO_InitStruct = {0};
 80003b8:	f107 0310 	add.w	r3, r7, #16
 80003bc:	2200      	movs	r2, #0
 80003be:	601a      	str	r2, [r3, #0]
 80003c0:	605a      	str	r2, [r3, #4]
 80003c2:	609a      	str	r2, [r3, #8]
 80003c4:	60da      	str	r2, [r3, #12]
  if(huart->Instance==USART1)
 80003c6:	687b      	ldr	r3, [r7, #4]
 80003c8:	681b      	ldr	r3, [r3, #0]
 80003ca:	4a1c      	ldr	r2, [pc, #112]	; (800043c <HAL_UART_MspInit+0x8c>)
 80003cc:	4293      	cmp	r3, r2
 80003ce:	d131      	bne.n	8000434 <HAL_UART_MspInit+0x84>
  {
  /* USER CODE BEGIN USART1_MspInit 0 */

  /* USER CODE END USART1_MspInit 0 */
    /* Peripheral clock enable */
    __HAL_RCC_USART1_CLK_ENABLE();
 80003d0:	4b1b      	ldr	r3, [pc, #108]	; (8000440 <HAL_UART_MspInit+0x90>)
 80003d2:	699b      	ldr	r3, [r3, #24]
 80003d4:	4a1a      	ldr	r2, [pc, #104]	; (8000440 <HAL_UART_MspInit+0x90>)
 80003d6:	f443 4380 	orr.w	r3, r3, #16384	; 0x4000
 80003da:	6193      	str	r3, [r2, #24]
 80003dc:	4b18      	ldr	r3, [pc, #96]	; (8000440 <HAL_UART_MspInit+0x90>)
 80003de:	699b      	ldr	r3, [r3, #24]
 80003e0:	f403 4380 	and.w	r3, r3, #16384	; 0x4000
 80003e4:	60fb      	str	r3, [r7, #12]
 80003e6:	68fb      	ldr	r3, [r7, #12]

    __HAL_RCC_GPIOA_CLK_ENABLE();
 80003e8:	4b15      	ldr	r3, [pc, #84]	; (8000440 <HAL_UART_MspInit+0x90>)
 80003ea:	699b      	ldr	r3, [r3, #24]
 80003ec:	4a14      	ldr	r2, [pc, #80]	; (8000440 <HAL_UART_MspInit+0x90>)
 80003ee:	f043 0304 	orr.w	r3, r3, #4
 80003f2:	6193      	str	r3, [r2, #24]
 80003f4:	4b12      	ldr	r3, [pc, #72]	; (8000440 <HAL_UART_MspInit+0x90>)
 80003f6:	699b      	ldr	r3, [r3, #24]
 80003f8:	f003 0304 	and.w	r3, r3, #4
 80003fc:	60bb      	str	r3, [r7, #8]
 80003fe:	68bb      	ldr	r3, [r7, #8]
    PA9     ------> USART1_TX
    PA10     ------> USART1_RX
    PA11     ------> USART1_CTS
    PA12     ------> USART1_RTS
    */
    GPIO_InitStruct.Pin = GPIO_PIN_9|GPIO_PIN_12;
 8000400:	f44f 5390 	mov.w	r3, #4608	; 0x1200
 8000404:	613b      	str	r3, [r7, #16]
    GPIO_InitStruct.Mode = GPIO_MODE_AF_PP;
 8000406:	2302      	movs	r3, #2
 8000408:	617b      	str	r3, [r7, #20]
    GPIO_InitStruct.Speed = GPIO_SPEED_FREQ_HIGH;
 800040a:	2303      	movs	r3, #3
 800040c:	61fb      	str	r3, [r7, #28]
    HAL_GPIO_Init(GPIOA, &GPIO_InitStruct);
 800040e:	f107 0310 	add.w	r3, r7, #16
 8000412:	4619      	mov	r1, r3
 8000414:	480b      	ldr	r0, [pc, #44]	; (8000444 <HAL_UART_MspInit+0x94>)
 8000416:	f000 f9cd 	bl	80007b4 <HAL_GPIO_Init>

    GPIO_InitStruct.Pin = GPIO_PIN_10|GPIO_PIN_11;
 800041a:	f44f 6340 	mov.w	r3, #3072	; 0xc00
 800041e:	613b      	str	r3, [r7, #16]
    GPIO_InitStruct.Mode = GPIO_MODE_INPUT;
 8000420:	2300      	movs	r3, #0
 8000422:	617b      	str	r3, [r7, #20]
    GPIO_InitStruct.Pull = GPIO_NOPULL;
 8000424:	2300      	movs	r3, #0
 8000426:	61bb      	str	r3, [r7, #24]
    HAL_GPIO_Init(GPIOA, &GPIO_InitStruct);
 8000428:	f107 0310 	add.w	r3, r7, #16
 800042c:	4619      	mov	r1, r3
 800042e:	4805      	ldr	r0, [pc, #20]	; (8000444 <HAL_UART_MspInit+0x94>)
 8000430:	f000 f9c0 	bl	80007b4 <HAL_GPIO_Init>
  /* USER CODE BEGIN USART1_MspInit 1 */

  /* USER CODE END USART1_MspInit 1 */
  }

}
 8000434:	bf00      	nop
 8000436:	3720      	adds	r7, #32
 8000438:	46bd      	mov	sp, r7
 800043a:	bd80      	pop	{r7, pc}
 800043c:	40013800 	.word	0x40013800
 8000440:	40021000 	.word	0x40021000
 8000444:	40010800 	.word	0x40010800

08000448 <HAL_InitTick>:
  *         reset by HAL_Init() or at any time when clock is configured, by HAL_RCC_ClockConfig().
  * @param  TickPriority: Tick interrupt priority.
  * @retval HAL status
  */
HAL_StatusTypeDef HAL_InitTick(uint32_t TickPriority)
{
 8000448:	b580      	push	{r7, lr}
 800044a:	b08c      	sub	sp, #48	; 0x30
 800044c:	af00      	add	r7, sp, #0
 800044e:	6078      	str	r0, [r7, #4]
  RCC_ClkInitTypeDef    clkconfig;
  uint32_t              uwTimclock = 0;
 8000450:	2300      	movs	r3, #0
 8000452:	62fb      	str	r3, [r7, #44]	; 0x2c
  uint32_t              uwPrescalerValue = 0;
 8000454:	2300      	movs	r3, #0
 8000456:	62bb      	str	r3, [r7, #40]	; 0x28
  uint32_t              pFLatency;
  /*Configure the TIM1 IRQ priority */
  HAL_NVIC_SetPriority(TIM1_UP_IRQn, TickPriority ,0);
 8000458:	2200      	movs	r2, #0
 800045a:	6879      	ldr	r1, [r7, #4]
 800045c:	2019      	movs	r0, #25
 800045e:	f000 f97e 	bl	800075e <HAL_NVIC_SetPriority>

  /* Enable the TIM1 global Interrupt */
  HAL_NVIC_EnableIRQ(TIM1_UP_IRQn);
 8000462:	2019      	movs	r0, #25
 8000464:	f000 f997 	bl	8000796 <HAL_NVIC_EnableIRQ>
  /* Enable TIM1 clock */
  __HAL_RCC_TIM1_CLK_ENABLE();
 8000468:	4b1e      	ldr	r3, [pc, #120]	; (80004e4 <HAL_InitTick+0x9c>)
 800046a:	699b      	ldr	r3, [r3, #24]
 800046c:	4a1d      	ldr	r2, [pc, #116]	; (80004e4 <HAL_InitTick+0x9c>)
 800046e:	f443 6300 	orr.w	r3, r3, #2048	; 0x800
 8000472:	6193      	str	r3, [r2, #24]
 8000474:	4b1b      	ldr	r3, [pc, #108]	; (80004e4 <HAL_InitTick+0x9c>)
 8000476:	699b      	ldr	r3, [r3, #24]
 8000478:	f403 6300 	and.w	r3, r3, #2048	; 0x800
 800047c:	60fb      	str	r3, [r7, #12]
 800047e:	68fb      	ldr	r3, [r7, #12]

  /* Get clock configuration */
  HAL_RCC_GetClockConfig(&clkconfig, &pFLatency);
 8000480:	f107 0210 	add.w	r2, r7, #16
 8000484:	f107 0314 	add.w	r3, r7, #20
 8000488:	4611      	mov	r1, r2
 800048a:	4618      	mov	r0, r3
 800048c:	f000 ff1c 	bl	80012c8 <HAL_RCC_GetClockConfig>

  /* Compute TIM1 clock */
  uwTimclock = HAL_RCC_GetPCLK2Freq();
 8000490:	f000 ff06 	bl	80012a0 <HAL_RCC_GetPCLK2Freq>
 8000494:	62f8      	str	r0, [r7, #44]	; 0x2c

  /* Compute the prescaler value to have TIM1 counter clock equal to 1MHz */
  uwPrescalerValue = (uint32_t) ((uwTimclock / 1000000) - 1);
 8000496:	6afb      	ldr	r3, [r7, #44]	; 0x2c
 8000498:	4a13      	ldr	r2, [pc, #76]	; (80004e8 <HAL_InitTick+0xa0>)
 800049a:	fba2 2303 	umull	r2, r3, r2, r3
 800049e:	0c9b      	lsrs	r3, r3, #18
 80004a0:	3b01      	subs	r3, #1
 80004a2:	62bb      	str	r3, [r7, #40]	; 0x28

  /* Initialize TIM1 */
  htim1.Instance = TIM1;
 80004a4:	4b11      	ldr	r3, [pc, #68]	; (80004ec <HAL_InitTick+0xa4>)
 80004a6:	4a12      	ldr	r2, [pc, #72]	; (80004f0 <HAL_InitTick+0xa8>)
 80004a8:	601a      	str	r2, [r3, #0]
  + Period = [(TIM1CLK/1000) - 1]. to have a (1/1000) s time base.
  + Prescaler = (uwTimclock/1000000 - 1) to have a 1MHz counter clock.
  + ClockDivision = 0
  + Counter direction = Up
  */
  htim1.Init.Period = (1000000 / 1000) - 1;
 80004aa:	4b10      	ldr	r3, [pc, #64]	; (80004ec <HAL_InitTick+0xa4>)
 80004ac:	f240 32e7 	movw	r2, #999	; 0x3e7
 80004b0:	60da      	str	r2, [r3, #12]
  htim1.Init.Prescaler = uwPrescalerValue;
 80004b2:	4a0e      	ldr	r2, [pc, #56]	; (80004ec <HAL_InitTick+0xa4>)
 80004b4:	6abb      	ldr	r3, [r7, #40]	; 0x28
 80004b6:	6053      	str	r3, [r2, #4]
  htim1.Init.ClockDivision = 0;
 80004b8:	4b0c      	ldr	r3, [pc, #48]	; (80004ec <HAL_InitTick+0xa4>)
 80004ba:	2200      	movs	r2, #0
 80004bc:	611a      	str	r2, [r3, #16]
  htim1.Init.CounterMode = TIM_COUNTERMODE_UP;
 80004be:	4b0b      	ldr	r3, [pc, #44]	; (80004ec <HAL_InitTick+0xa4>)
 80004c0:	2200      	movs	r2, #0
 80004c2:	609a      	str	r2, [r3, #8]
  if(HAL_TIM_Base_Init(&htim1) == HAL_OK)
 80004c4:	4809      	ldr	r0, [pc, #36]	; (80004ec <HAL_InitTick+0xa4>)
 80004c6:	f000 ff4d 	bl	8001364 <HAL_TIM_Base_Init>
 80004ca:	4603      	mov	r3, r0
 80004cc:	2b00      	cmp	r3, #0
 80004ce:	d104      	bne.n	80004da <HAL_InitTick+0x92>
  {
    /* Start the TIM time Base generation in interrupt mode */
    return HAL_TIM_Base_Start_IT(&htim1);
 80004d0:	4806      	ldr	r0, [pc, #24]	; (80004ec <HAL_InitTick+0xa4>)
 80004d2:	f000 ff9f 	bl	8001414 <HAL_TIM_Base_Start_IT>
 80004d6:	4603      	mov	r3, r0
 80004d8:	e000      	b.n	80004dc <HAL_InitTick+0x94>
  }

  /* Return function status */
  return HAL_ERROR;
 80004da:	2301      	movs	r3, #1
}
 80004dc:	4618      	mov	r0, r3
 80004de:	3730      	adds	r7, #48	; 0x30
 80004e0:	46bd      	mov	sp, r7
 80004e2:	bd80      	pop	{r7, pc}
 80004e4:	40021000 	.word	0x40021000
 80004e8:	431bde83 	.word	0x431bde83
 80004ec:	20001978 	.word	0x20001978
 80004f0:	40012c00 	.word	0x40012c00

080004f4 <NMI_Handler>:
/******************************************************************************/
/**
  * @brief This function handles Non maskable interrupt.
  */
void NMI_Handler(void)
{
 80004f4:	b480      	push	{r7}
 80004f6:	af00      	add	r7, sp, #0

  /* USER CODE END NonMaskableInt_IRQn 0 */
  /* USER CODE BEGIN NonMaskableInt_IRQn 1 */

  /* USER CODE END NonMaskableInt_IRQn 1 */
}
 80004f8:	bf00      	nop
 80004fa:	46bd      	mov	sp, r7
 80004fc:	bc80      	pop	{r7}
 80004fe:	4770      	bx	lr

08000500 <HardFault_Handler>:

/**
  * @brief This function handles Hard fault interrupt.
  */
void HardFault_Handler(void)
{
 8000500:	b480      	push	{r7}
 8000502:	af00      	add	r7, sp, #0
  /* USER CODE BEGIN HardFault_IRQn 0 */

  /* USER CODE END HardFault_IRQn 0 */
  while (1)
 8000504:	e7fe      	b.n	8000504 <HardFault_Handler+0x4>

08000506 <MemManage_Handler>:

/**
  * @brief This function handles Memory management fault.
  */
void MemManage_Handler(void)
{
 8000506:	b480      	push	{r7}
 8000508:	af00      	add	r7, sp, #0
  /* USER CODE BEGIN MemoryManagement_IRQn 0 */

  /* USER CODE END MemoryManagement_IRQn 0 */
  while (1)
 800050a:	e7fe      	b.n	800050a <MemManage_Handler+0x4>

0800050c <BusFault_Handler>:

/**
  * @brief This function handles Prefetch fault, memory access fault.
  */
void BusFault_Handler(void)
{
 800050c:	b480      	push	{r7}
 800050e:	af00      	add	r7, sp, #0
  /* USER CODE BEGIN BusFault_IRQn 0 */

  /* USER CODE END BusFault_IRQn 0 */
  while (1)
 8000510:	e7fe      	b.n	8000510 <BusFault_Handler+0x4>

08000512 <UsageFault_Handler>:

/**
  * @brief This function handles Undefined instruction or illegal state.
  */
void UsageFault_Handler(void)
{
 8000512:	b480      	push	{r7}
 8000514:	af00      	add	r7, sp, #0
  /* USER CODE BEGIN UsageFault_IRQn 0 */

  /* USER CODE END UsageFault_IRQn 0 */
  while (1)
 8000516:	e7fe      	b.n	8000516 <UsageFault_Handler+0x4>

08000518 <DebugMon_Handler>:

/**
  * @brief This function handles Debug monitor.
  */
void DebugMon_Handler(void)
{
 8000518:	b480      	push	{r7}
 800051a:	af00      	add	r7, sp, #0

  /* USER CODE END DebugMonitor_IRQn 0 */
  /* USER CODE BEGIN DebugMonitor_IRQn 1 */

  /* USER CODE END DebugMonitor_IRQn 1 */
}
 800051c:	bf00      	nop
 800051e:	46bd      	mov	sp, r7
 8000520:	bc80      	pop	{r7}
 8000522:	4770      	bx	lr

08000524 <TIM1_UP_IRQHandler>:

/**
  * @brief This function handles TIM1 update interrupt.
  */
void TIM1_UP_IRQHandler(void)
{
 8000524:	b580      	push	{r7, lr}
 8000526:	af00      	add	r7, sp, #0
  /* USER CODE BEGIN TIM1_UP_IRQn 0 */

  /* USER CODE END TIM1_UP_IRQn 0 */
  HAL_TIM_IRQHandler(&htim1);
 8000528:	4802      	ldr	r0, [pc, #8]	; (8000534 <TIM1_UP_IRQHandler+0x10>)
 800052a:	f000 ffc5 	bl	80014b8 <HAL_TIM_IRQHandler>
  /* USER CODE BEGIN TIM1_UP_IRQn 1 */

  /* USER CODE END TIM1_UP_IRQn 1 */
}
 800052e:	bf00      	nop
 8000530:	bd80      	pop	{r7, pc}
 8000532:	bf00      	nop
 8000534:	20001978 	.word	0x20001978

08000538 <SystemInit>:
  * @note   This function should be used only after reset.
  * @param  None
  * @retval None
  */
void SystemInit (void)
{
 8000538:	b480      	push	{r7}
 800053a:	af00      	add	r7, sp, #0

  /* Configure the Vector Table location -------------------------------------*/
#if defined(USER_VECT_TAB_ADDRESS)
  SCB->VTOR = VECT_TAB_BASE_ADDRESS | VECT_TAB_OFFSET; /* Vector Table Relocation in Internal SRAM. */
#endif /* USER_VECT_TAB_ADDRESS */
}
 800053c:	bf00      	nop
 800053e:	46bd      	mov	sp, r7
 8000540:	bc80      	pop	{r7}
 8000542:	4770      	bx	lr

08000544 <Reset_Handler>:
  .weak Reset_Handler
  .type Reset_Handler, %function
Reset_Handler:

/* Copy the data segment initializers from flash to SRAM */
  ldr r0, =_sdata
 8000544:	480c      	ldr	r0, [pc, #48]	; (8000578 <LoopFillZerobss+0x12>)
  ldr r1, =_edata
 8000546:	490d      	ldr	r1, [pc, #52]	; (800057c <LoopFillZerobss+0x16>)
  ldr r2, =_sidata
 8000548:	4a0d      	ldr	r2, [pc, #52]	; (8000580 <LoopFillZerobss+0x1a>)
  movs r3, #0
 800054a:	2300      	movs	r3, #0
  b LoopCopyDataInit
 800054c:	e002      	b.n	8000554 <LoopCopyDataInit>

0800054e <CopyDataInit>:

CopyDataInit:
  ldr r4, [r2, r3]
 800054e:	58d4      	ldr	r4, [r2, r3]
  str r4, [r0, r3]
 8000550:	50c4      	str	r4, [r0, r3]
  adds r3, r3, #4
 8000552:	3304      	adds	r3, #4

08000554 <LoopCopyDataInit>:

LoopCopyDataInit:
  adds r4, r0, r3
 8000554:	18c4      	adds	r4, r0, r3
  cmp r4, r1
 8000556:	428c      	cmp	r4, r1
  bcc CopyDataInit
 8000558:	d3f9      	bcc.n	800054e <CopyDataInit>
  
/* Zero fill the bss segment. */
  ldr r2, =_sbss
 800055a:	4a0a      	ldr	r2, [pc, #40]	; (8000584 <LoopFillZerobss+0x1e>)
  ldr r4, =_ebss
 800055c:	4c0a      	ldr	r4, [pc, #40]	; (8000588 <LoopFillZerobss+0x22>)
  movs r3, #0
 800055e:	2300      	movs	r3, #0
  b LoopFillZerobss
 8000560:	e001      	b.n	8000566 <LoopFillZerobss>

08000562 <FillZerobss>:

FillZerobss:
  str  r3, [r2]
 8000562:	6013      	str	r3, [r2, #0]
  adds r2, r2, #4
 8000564:	3204      	adds	r2, #4

08000566 <LoopFillZerobss>:

LoopFillZerobss:
  cmp r2, r4
 8000566:	42a2      	cmp	r2, r4
  bcc FillZerobss
 8000568:	d3fb      	bcc.n	8000562 <FillZerobss>

/* Call the clock system intitialization function.*/
    bl  SystemInit
 800056a:	f7ff ffe5 	bl	8000538 <SystemInit>
/* Call static constructors */
    bl __libc_init_array
 800056e:	f003 fd75 	bl	800405c <__libc_init_array>
/* Call the application's entry point.*/
  bl main
 8000572:	f7ff fded 	bl	8000150 <main>
  bx lr
 8000576:	4770      	bx	lr
  ldr r0, =_sdata
 8000578:	20000000 	.word	0x20000000
  ldr r1, =_edata
 800057c:	20000010 	.word	0x20000010
  ldr r2, =_sidata
 8000580:	08004130 	.word	0x08004130
  ldr r2, =_sbss
 8000584:	20000010 	.word	0x20000010
  ldr r4, =_ebss
 8000588:	20001a04 	.word	0x20001a04

0800058c <ADC1_2_IRQHandler>:
 * @retval : None
*/
    .section .text.Default_Handler,"ax",%progbits
Default_Handler:
Infinite_Loop:
  b Infinite_Loop
 800058c:	e7fe      	b.n	800058c <ADC1_2_IRQHandler>
	...

08000590 <HAL_Init>:
  *         need to ensure that the SysTick time base is always set to 1 millisecond
  *         to have correct HAL operation.
  * @retval HAL status
  */
HAL_StatusTypeDef HAL_Init(void)
{
 8000590:	b580      	push	{r7, lr}
 8000592:	af00      	add	r7, sp, #0
    defined(STM32F102x6) || defined(STM32F102xB) || \
    defined(STM32F103x6) || defined(STM32F103xB) || defined(STM32F103xE) || defined(STM32F103xG) || \
    defined(STM32F105xC) || defined(STM32F107xC)

  /* Prefetch buffer is not available on value line devices */
  __HAL_FLASH_PREFETCH_BUFFER_ENABLE();
 8000594:	4b08      	ldr	r3, [pc, #32]	; (80005b8 <HAL_Init+0x28>)
 8000596:	681b      	ldr	r3, [r3, #0]
 8000598:	4a07      	ldr	r2, [pc, #28]	; (80005b8 <HAL_Init+0x28>)
 800059a:	f043 0310 	orr.w	r3, r3, #16
 800059e:	6013      	str	r3, [r2, #0]
#endif
#endif /* PREFETCH_ENABLE */

  /* Set Interrupt Group Priority */
  HAL_NVIC_SetPriorityGrouping(NVIC_PRIORITYGROUP_4);
 80005a0:	2003      	movs	r0, #3
 80005a2:	f000 f8d1 	bl	8000748 <HAL_NVIC_SetPriorityGrouping>

  /* Use systick as time base source and configure 1ms tick (default clock after Reset is HSI) */
  HAL_InitTick(TICK_INT_PRIORITY);
 80005a6:	2000      	movs	r0, #0
 80005a8:	f7ff ff4e 	bl	8000448 <HAL_InitTick>

  /* Init the low level hardware */
  HAL_MspInit();
 80005ac:	f7ff fece 	bl	800034c <HAL_MspInit>

  /* Return function status */
  return HAL_OK;
 80005b0:	2300      	movs	r3, #0
}
 80005b2:	4618      	mov	r0, r3
 80005b4:	bd80      	pop	{r7, pc}
 80005b6:	bf00      	nop
 80005b8:	40022000 	.word	0x40022000

080005bc <HAL_IncTick>:
  * @note This function is declared as __weak to be overwritten in case of other
  *      implementations in user file.
  * @retval None
  */
__weak void HAL_IncTick(void)
{
 80005bc:	b480      	push	{r7}
 80005be:	af00      	add	r7, sp, #0
  uwTick += uwTickFreq;
 80005c0:	4b05      	ldr	r3, [pc, #20]	; (80005d8 <HAL_IncTick+0x1c>)
 80005c2:	781b      	ldrb	r3, [r3, #0]
 80005c4:	461a      	mov	r2, r3
 80005c6:	4b05      	ldr	r3, [pc, #20]	; (80005dc <HAL_IncTick+0x20>)
 80005c8:	681b      	ldr	r3, [r3, #0]
 80005ca:	4413      	add	r3, r2
 80005cc:	4a03      	ldr	r2, [pc, #12]	; (80005dc <HAL_IncTick+0x20>)
 80005ce:	6013      	str	r3, [r2, #0]
}
 80005d0:	bf00      	nop
 80005d2:	46bd      	mov	sp, r7
 80005d4:	bc80      	pop	{r7}
 80005d6:	4770      	bx	lr
 80005d8:	20000008 	.word	0x20000008
 80005dc:	200019c0 	.word	0x200019c0

080005e0 <HAL_GetTick>:
  * @note  This function is declared as __weak to be overwritten in case of other
  *       implementations in user file.
  * @retval tick value
  */
__weak uint32_t HAL_GetTick(void)
{
 80005e0:	b480      	push	{r7}
 80005e2:	af00      	add	r7, sp, #0
  return uwTick;
 80005e4:	4b02      	ldr	r3, [pc, #8]	; (80005f0 <HAL_GetTick+0x10>)
 80005e6:	681b      	ldr	r3, [r3, #0]
}
 80005e8:	4618      	mov	r0, r3
 80005ea:	46bd      	mov	sp, r7
 80005ec:	bc80      	pop	{r7}
 80005ee:	4770      	bx	lr
 80005f0:	200019c0 	.word	0x200019c0

080005f4 <__NVIC_SetPriorityGrouping>:
           In case of a conflict between priority grouping and available
           priority bits (__NVIC_PRIO_BITS), the smallest possible priority group is set.
  \param [in]      PriorityGroup  Priority grouping field.
 */
__STATIC_INLINE void __NVIC_SetPriorityGrouping(uint32_t PriorityGroup)
{
 80005f4:	b480      	push	{r7}
 80005f6:	b085      	sub	sp, #20
 80005f8:	af00      	add	r7, sp, #0
 80005fa:	6078      	str	r0, [r7, #4]
  uint32_t reg_value;
  uint32_t PriorityGroupTmp = (PriorityGroup & (uint32_t)0x07UL);             /* only values 0..7 are used          */
 80005fc:	687b      	ldr	r3, [r7, #4]
 80005fe:	f003 0307 	and.w	r3, r3, #7
 8000602:	60fb      	str	r3, [r7, #12]

  reg_value  =  SCB->AIRCR;                                                   /* read old register configuration    */
 8000604:	4b0c      	ldr	r3, [pc, #48]	; (8000638 <__NVIC_SetPriorityGrouping+0x44>)
 8000606:	68db      	ldr	r3, [r3, #12]
 8000608:	60bb      	str	r3, [r7, #8]
  reg_value &= ~((uint32_t)(SCB_AIRCR_VECTKEY_Msk | SCB_AIRCR_PRIGROUP_Msk)); /* clear bits to change               */
 800060a:	68ba      	ldr	r2, [r7, #8]
 800060c:	f64f 03ff 	movw	r3, #63743	; 0xf8ff
 8000610:	4013      	ands	r3, r2
 8000612:	60bb      	str	r3, [r7, #8]
  reg_value  =  (reg_value                                   |
                ((uint32_t)0x5FAUL << SCB_AIRCR_VECTKEY_Pos) |
                (PriorityGroupTmp << SCB_AIRCR_PRIGROUP_Pos) );               /* Insert write key and priority group */
 8000614:	68fb      	ldr	r3, [r7, #12]
 8000616:	021a      	lsls	r2, r3, #8
                ((uint32_t)0x5FAUL << SCB_AIRCR_VECTKEY_Pos) |
 8000618:	68bb      	ldr	r3, [r7, #8]
 800061a:	4313      	orrs	r3, r2
  reg_value  =  (reg_value                                   |
 800061c:	f043 63bf 	orr.w	r3, r3, #100139008	; 0x5f80000
 8000620:	f443 3300 	orr.w	r3, r3, #131072	; 0x20000
 8000624:	60bb      	str	r3, [r7, #8]
  SCB->AIRCR =  reg_value;
 8000626:	4a04      	ldr	r2, [pc, #16]	; (8000638 <__NVIC_SetPriorityGrouping+0x44>)
 8000628:	68bb      	ldr	r3, [r7, #8]
 800062a:	60d3      	str	r3, [r2, #12]
}
 800062c:	bf00      	nop
 800062e:	3714      	adds	r7, #20
 8000630:	46bd      	mov	sp, r7
 8000632:	bc80      	pop	{r7}
 8000634:	4770      	bx	lr
 8000636:	bf00      	nop
 8000638:	e000ed00 	.word	0xe000ed00

0800063c <__NVIC_GetPriorityGrouping>:
  \brief   Get Priority Grouping
  \details Reads the priority grouping field from the NVIC Interrupt Controller.
  \return                Priority grouping field (SCB->AIRCR [10:8] PRIGROUP field).
 */
__STATIC_INLINE uint32_t __NVIC_GetPriorityGrouping(void)
{
 800063c:	b480      	push	{r7}
 800063e:	af00      	add	r7, sp, #0
  return ((uint32_t)((SCB->AIRCR & SCB_AIRCR_PRIGROUP_Msk) >> SCB_AIRCR_PRIGROUP_Pos));
 8000640:	4b04      	ldr	r3, [pc, #16]	; (8000654 <__NVIC_GetPriorityGrouping+0x18>)
 8000642:	68db      	ldr	r3, [r3, #12]
 8000644:	0a1b      	lsrs	r3, r3, #8
 8000646:	f003 0307 	and.w	r3, r3, #7
}
 800064a:	4618      	mov	r0, r3
 800064c:	46bd      	mov	sp, r7
 800064e:	bc80      	pop	{r7}
 8000650:	4770      	bx	lr
 8000652:	bf00      	nop
 8000654:	e000ed00 	.word	0xe000ed00

08000658 <__NVIC_EnableIRQ>:
  \details Enables a device specific interrupt in the NVIC interrupt controller.
  \param [in]      IRQn  Device specific interrupt number.
  \note    IRQn must not be negative.
 */
__STATIC_INLINE void __NVIC_EnableIRQ(IRQn_Type IRQn)
{
 8000658:	b480      	push	{r7}
 800065a:	b083      	sub	sp, #12
 800065c:	af00      	add	r7, sp, #0
 800065e:	4603      	mov	r3, r0
 8000660:	71fb      	strb	r3, [r7, #7]
  if ((int32_t)(IRQn) >= 0)
 8000662:	f997 3007 	ldrsb.w	r3, [r7, #7]
 8000666:	2b00      	cmp	r3, #0
 8000668:	db0b      	blt.n	8000682 <__NVIC_EnableIRQ+0x2a>
  {
    NVIC->ISER[(((uint32_t)IRQn) >> 5UL)] = (uint32_t)(1UL << (((uint32_t)IRQn) & 0x1FUL));
 800066a:	79fb      	ldrb	r3, [r7, #7]
 800066c:	f003 021f 	and.w	r2, r3, #31
 8000670:	4906      	ldr	r1, [pc, #24]	; (800068c <__NVIC_EnableIRQ+0x34>)
 8000672:	f997 3007 	ldrsb.w	r3, [r7, #7]
 8000676:	095b      	lsrs	r3, r3, #5
 8000678:	2001      	movs	r0, #1
 800067a:	fa00 f202 	lsl.w	r2, r0, r2
 800067e:	f841 2023 	str.w	r2, [r1, r3, lsl #2]
  }
}
 8000682:	bf00      	nop
 8000684:	370c      	adds	r7, #12
 8000686:	46bd      	mov	sp, r7
 8000688:	bc80      	pop	{r7}
 800068a:	4770      	bx	lr
 800068c:	e000e100 	.word	0xe000e100

08000690 <__NVIC_SetPriority>:
  \param [in]      IRQn  Interrupt number.
  \param [in]  priority  Priority to set.
  \note    The priority cannot be set for every processor exception.
 */
__STATIC_INLINE void __NVIC_SetPriority(IRQn_Type IRQn, uint32_t priority)
{
 8000690:	b480      	push	{r7}
 8000692:	b083      	sub	sp, #12
 8000694:	af00      	add	r7, sp, #0
 8000696:	4603      	mov	r3, r0
 8000698:	6039      	str	r1, [r7, #0]
 800069a:	71fb      	strb	r3, [r7, #7]
  if ((int32_t)(IRQn) >= 0)
 800069c:	f997 3007 	ldrsb.w	r3, [r7, #7]
 80006a0:	2b00      	cmp	r3, #0
 80006a2:	db0a      	blt.n	80006ba <__NVIC_SetPriority+0x2a>
  {
    NVIC->IP[((uint32_t)IRQn)]               = (uint8_t)((priority << (8U - __NVIC_PRIO_BITS)) & (uint32_t)0xFFUL);
 80006a4:	683b      	ldr	r3, [r7, #0]
 80006a6:	b2da      	uxtb	r2, r3
 80006a8:	490c      	ldr	r1, [pc, #48]	; (80006dc <__NVIC_SetPriority+0x4c>)
 80006aa:	f997 3007 	ldrsb.w	r3, [r7, #7]
 80006ae:	0112      	lsls	r2, r2, #4
 80006b0:	b2d2      	uxtb	r2, r2
 80006b2:	440b      	add	r3, r1
 80006b4:	f883 2300 	strb.w	r2, [r3, #768]	; 0x300
  }
  else
  {
    SCB->SHP[(((uint32_t)IRQn) & 0xFUL)-4UL] = (uint8_t)((priority << (8U - __NVIC_PRIO_BITS)) & (uint32_t)0xFFUL);
  }
}
 80006b8:	e00a      	b.n	80006d0 <__NVIC_SetPriority+0x40>
    SCB->SHP[(((uint32_t)IRQn) & 0xFUL)-4UL] = (uint8_t)((priority << (8U - __NVIC_PRIO_BITS)) & (uint32_t)0xFFUL);
 80006ba:	683b      	ldr	r3, [r7, #0]
 80006bc:	b2da      	uxtb	r2, r3
 80006be:	4908      	ldr	r1, [pc, #32]	; (80006e0 <__NVIC_SetPriority+0x50>)
 80006c0:	79fb      	ldrb	r3, [r7, #7]
 80006c2:	f003 030f 	and.w	r3, r3, #15
 80006c6:	3b04      	subs	r3, #4
 80006c8:	0112      	lsls	r2, r2, #4
 80006ca:	b2d2      	uxtb	r2, r2
 80006cc:	440b      	add	r3, r1
 80006ce:	761a      	strb	r2, [r3, #24]
}
 80006d0:	bf00      	nop
 80006d2:	370c      	adds	r7, #12
 80006d4:	46bd      	mov	sp, r7
 80006d6:	bc80      	pop	{r7}
 80006d8:	4770      	bx	lr
 80006da:	bf00      	nop
 80006dc:	e000e100 	.word	0xe000e100
 80006e0:	e000ed00 	.word	0xe000ed00

080006e4 <NVIC_EncodePriority>:
  \param [in]   PreemptPriority  Preemptive priority value (starting from 0).
  \param [in]       SubPriority  Subpriority value (starting from 0).
  \return                        Encoded priority. Value can be used in the function \ref NVIC_SetPriority().
 */
__STATIC_INLINE uint32_t NVIC_EncodePriority (uint32_t PriorityGroup, uint32_t PreemptPriority, uint32_t SubPriority)
{
 80006e4:	b480      	push	{r7}
 80006e6:	b089      	sub	sp, #36	; 0x24
 80006e8:	af00      	add	r7, sp, #0
 80006ea:	60f8      	str	r0, [r7, #12]
 80006ec:	60b9      	str	r1, [r7, #8]
 80006ee:	607a      	str	r2, [r7, #4]
  uint32_t PriorityGroupTmp = (PriorityGroup & (uint32_t)0x07UL);   /* only values 0..7 are used          */
 80006f0:	68fb      	ldr	r3, [r7, #12]
 80006f2:	f003 0307 	and.w	r3, r3, #7
 80006f6:	61fb      	str	r3, [r7, #28]
  uint32_t PreemptPriorityBits;
  uint32_t SubPriorityBits;

  PreemptPriorityBits = ((7UL - PriorityGroupTmp) > (uint32_t)(__NVIC_PRIO_BITS)) ? (uint32_t)(__NVIC_PRIO_BITS) : (uint32_t)(7UL - PriorityGroupTmp);
 80006f8:	69fb      	ldr	r3, [r7, #28]
 80006fa:	f1c3 0307 	rsb	r3, r3, #7
 80006fe:	2b04      	cmp	r3, #4
 8000700:	bf28      	it	cs
 8000702:	2304      	movcs	r3, #4
 8000704:	61bb      	str	r3, [r7, #24]
  SubPriorityBits     = ((PriorityGroupTmp + (uint32_t)(__NVIC_PRIO_BITS)) < (uint32_t)7UL) ? (uint32_t)0UL : (uint32_t)((PriorityGroupTmp - 7UL) + (uint32_t)(__NVIC_PRIO_BITS));
 8000706:	69fb      	ldr	r3, [r7, #28]
 8000708:	3304      	adds	r3, #4
 800070a:	2b06      	cmp	r3, #6
 800070c:	d902      	bls.n	8000714 <NVIC_EncodePriority+0x30>
 800070e:	69fb      	ldr	r3, [r7, #28]
 8000710:	3b03      	subs	r3, #3
 8000712:	e000      	b.n	8000716 <NVIC_EncodePriority+0x32>
 8000714:	2300      	movs	r3, #0
 8000716:	617b      	str	r3, [r7, #20]

  return (
           ((PreemptPriority & (uint32_t)((1UL << (PreemptPriorityBits)) - 1UL)) << SubPriorityBits) |
 8000718:	f04f 32ff 	mov.w	r2, #4294967295
 800071c:	69bb      	ldr	r3, [r7, #24]
 800071e:	fa02 f303 	lsl.w	r3, r2, r3
 8000722:	43da      	mvns	r2, r3
 8000724:	68bb      	ldr	r3, [r7, #8]
 8000726:	401a      	ands	r2, r3
 8000728:	697b      	ldr	r3, [r7, #20]
 800072a:	409a      	lsls	r2, r3
           ((SubPriority     & (uint32_t)((1UL << (SubPriorityBits    )) - 1UL)))
 800072c:	f04f 31ff 	mov.w	r1, #4294967295
 8000730:	697b      	ldr	r3, [r7, #20]
 8000732:	fa01 f303 	lsl.w	r3, r1, r3
 8000736:	43d9      	mvns	r1, r3
 8000738:	687b      	ldr	r3, [r7, #4]
 800073a:	400b      	ands	r3, r1
           ((PreemptPriority & (uint32_t)((1UL << (PreemptPriorityBits)) - 1UL)) << SubPriorityBits) |
 800073c:	4313      	orrs	r3, r2
         );
}
 800073e:	4618      	mov	r0, r3
 8000740:	3724      	adds	r7, #36	; 0x24
 8000742:	46bd      	mov	sp, r7
 8000744:	bc80      	pop	{r7}
 8000746:	4770      	bx	lr

08000748 <HAL_NVIC_SetPriorityGrouping>:
  * @note   When the NVIC_PriorityGroup_0 is selected, IRQ preemption is no more possible. 
  *         The pending IRQ priority will be managed only by the subpriority. 
  * @retval None
  */
void HAL_NVIC_SetPriorityGrouping(uint32_t PriorityGroup)
{
 8000748:	b580      	push	{r7, lr}
 800074a:	b082      	sub	sp, #8
 800074c:	af00      	add	r7, sp, #0
 800074e:	6078      	str	r0, [r7, #4]
  /* Check the parameters */
  assert_param(IS_NVIC_PRIORITY_GROUP(PriorityGroup));
  
  /* Set the PRIGROUP[10:8] bits according to the PriorityGroup parameter value */
  NVIC_SetPriorityGrouping(PriorityGroup);
 8000750:	6878      	ldr	r0, [r7, #4]
 8000752:	f7ff ff4f 	bl	80005f4 <__NVIC_SetPriorityGrouping>
}
 8000756:	bf00      	nop
 8000758:	3708      	adds	r7, #8
 800075a:	46bd      	mov	sp, r7
 800075c:	bd80      	pop	{r7, pc}

0800075e <HAL_NVIC_SetPriority>:
  *         This parameter can be a value between 0 and 15
  *         A lower priority value indicates a higher priority.          
  * @retval None
  */
void HAL_NVIC_SetPriority(IRQn_Type IRQn, uint32_t PreemptPriority, uint32_t SubPriority)
{ 
 800075e:	b580      	push	{r7, lr}
 8000760:	b086      	sub	sp, #24
 8000762:	af00      	add	r7, sp, #0
 8000764:	4603      	mov	r3, r0
 8000766:	60b9      	str	r1, [r7, #8]
 8000768:	607a      	str	r2, [r7, #4]
 800076a:	73fb      	strb	r3, [r7, #15]
  uint32_t prioritygroup = 0x00U;
 800076c:	2300      	movs	r3, #0
 800076e:	617b      	str	r3, [r7, #20]
  
  /* Check the parameters */
  assert_param(IS_NVIC_SUB_PRIORITY(SubPriority));
  assert_param(IS_NVIC_PREEMPTION_PRIORITY(PreemptPriority));
  
  prioritygroup = NVIC_GetPriorityGrouping();
 8000770:	f7ff ff64 	bl	800063c <__NVIC_GetPriorityGrouping>
 8000774:	6178      	str	r0, [r7, #20]
  
  NVIC_SetPriority(IRQn, NVIC_EncodePriority(prioritygroup, PreemptPriority, SubPriority));
 8000776:	687a      	ldr	r2, [r7, #4]
 8000778:	68b9      	ldr	r1, [r7, #8]
 800077a:	6978      	ldr	r0, [r7, #20]
 800077c:	f7ff ffb2 	bl	80006e4 <NVIC_EncodePriority>
 8000780:	4602      	mov	r2, r0
 8000782:	f997 300f 	ldrsb.w	r3, [r7, #15]
 8000786:	4611      	mov	r1, r2
 8000788:	4618      	mov	r0, r3
 800078a:	f7ff ff81 	bl	8000690 <__NVIC_SetPriority>
}
 800078e:	bf00      	nop
 8000790:	3718      	adds	r7, #24
 8000792:	46bd      	mov	sp, r7
 8000794:	bd80      	pop	{r7, pc}

08000796 <HAL_NVIC_EnableIRQ>:
  *         This parameter can be an enumerator of IRQn_Type enumeration
  *         (For the complete STM32 Devices IRQ Channels list, please refer to the appropriate CMSIS device file (stm32f10xxx.h))
  * @retval None
  */
void HAL_NVIC_EnableIRQ(IRQn_Type IRQn)
{
 8000796:	b580      	push	{r7, lr}
 8000798:	b082      	sub	sp, #8
 800079a:	af00      	add	r7, sp, #0
 800079c:	4603      	mov	r3, r0
 800079e:	71fb      	strb	r3, [r7, #7]
  /* Check the parameters */
  assert_param(IS_NVIC_DEVICE_IRQ(IRQn));

  /* Enable interrupt */
  NVIC_EnableIRQ(IRQn);
 80007a0:	f997 3007 	ldrsb.w	r3, [r7, #7]
 80007a4:	4618      	mov	r0, r3
 80007a6:	f7ff ff57 	bl	8000658 <__NVIC_EnableIRQ>
}
 80007aa:	bf00      	nop
 80007ac:	3708      	adds	r7, #8
 80007ae:	46bd      	mov	sp, r7
 80007b0:	bd80      	pop	{r7, pc}
	...

080007b4 <HAL_GPIO_Init>:
  * @param  GPIO_Init: pointer to a GPIO_InitTypeDef structure that contains
  *         the configuration information for the specified GPIO peripheral.
  * @retval None
  */
void HAL_GPIO_Init(GPIO_TypeDef  *GPIOx, GPIO_InitTypeDef *GPIO_Init)
{
 80007b4:	b480      	push	{r7}
 80007b6:	b08b      	sub	sp, #44	; 0x2c
 80007b8:	af00      	add	r7, sp, #0
 80007ba:	6078      	str	r0, [r7, #4]
 80007bc:	6039      	str	r1, [r7, #0]
  uint32_t position = 0x00u;
 80007be:	2300      	movs	r3, #0
 80007c0:	627b      	str	r3, [r7, #36]	; 0x24
  uint32_t ioposition;
  uint32_t iocurrent;
  uint32_t temp;
  uint32_t config = 0x00u;
 80007c2:	2300      	movs	r3, #0
 80007c4:	623b      	str	r3, [r7, #32]
  assert_param(IS_GPIO_ALL_INSTANCE(GPIOx));
  assert_param(IS_GPIO_PIN(GPIO_Init->Pin));
  assert_param(IS_GPIO_MODE(GPIO_Init->Mode));

  /* Configure the port pins */
  while (((GPIO_Init->Pin) >> position) != 0x00u)
 80007c6:	e127      	b.n	8000a18 <HAL_GPIO_Init+0x264>
  {
    /* Get the IO position */
    ioposition = (0x01uL << position);
 80007c8:	2201      	movs	r2, #1
 80007ca:	6a7b      	ldr	r3, [r7, #36]	; 0x24
 80007cc:	fa02 f303 	lsl.w	r3, r2, r3
 80007d0:	61fb      	str	r3, [r7, #28]

    /* Get the current IO position */
    iocurrent = (uint32_t)(GPIO_Init->Pin) & ioposition;
 80007d2:	683b      	ldr	r3, [r7, #0]
 80007d4:	681b      	ldr	r3, [r3, #0]
 80007d6:	69fa      	ldr	r2, [r7, #28]
 80007d8:	4013      	ands	r3, r2
 80007da:	61bb      	str	r3, [r7, #24]

    if (iocurrent == ioposition)
 80007dc:	69ba      	ldr	r2, [r7, #24]
 80007de:	69fb      	ldr	r3, [r7, #28]
 80007e0:	429a      	cmp	r2, r3
 80007e2:	f040 8116 	bne.w	8000a12 <HAL_GPIO_Init+0x25e>
    {
      /* Check the Alternate function parameters */
      assert_param(IS_GPIO_AF_INSTANCE(GPIOx));

      /* Based on the required mode, filling config variable with MODEy[1:0] and CNFy[3:2] corresponding bits */
      switch (GPIO_Init->Mode)
 80007e6:	683b      	ldr	r3, [r7, #0]
 80007e8:	685b      	ldr	r3, [r3, #4]
 80007ea:	2b12      	cmp	r3, #18
 80007ec:	d034      	beq.n	8000858 <HAL_GPIO_Init+0xa4>
 80007ee:	2b12      	cmp	r3, #18
 80007f0:	d80d      	bhi.n	800080e <HAL_GPIO_Init+0x5a>
 80007f2:	2b02      	cmp	r3, #2
 80007f4:	d02b      	beq.n	800084e <HAL_GPIO_Init+0x9a>
 80007f6:	2b02      	cmp	r3, #2
 80007f8:	d804      	bhi.n	8000804 <HAL_GPIO_Init+0x50>
 80007fa:	2b00      	cmp	r3, #0
 80007fc:	d031      	beq.n	8000862 <HAL_GPIO_Init+0xae>
 80007fe:	2b01      	cmp	r3, #1
 8000800:	d01c      	beq.n	800083c <HAL_GPIO_Init+0x88>
          config = GPIO_CR_MODE_INPUT + GPIO_CR_CNF_ANALOG;
          break;

        /* Parameters are checked with assert_param */
        default:
          break;
 8000802:	e048      	b.n	8000896 <HAL_GPIO_Init+0xe2>
      switch (GPIO_Init->Mode)
 8000804:	2b03      	cmp	r3, #3
 8000806:	d043      	beq.n	8000890 <HAL_GPIO_Init+0xdc>
 8000808:	2b11      	cmp	r3, #17
 800080a:	d01b      	beq.n	8000844 <HAL_GPIO_Init+0x90>
          break;
 800080c:	e043      	b.n	8000896 <HAL_GPIO_Init+0xe2>
      switch (GPIO_Init->Mode)
 800080e:	4a89      	ldr	r2, [pc, #548]	; (8000a34 <HAL_GPIO_Init+0x280>)
 8000810:	4293      	cmp	r3, r2
 8000812:	d026      	beq.n	8000862 <HAL_GPIO_Init+0xae>
 8000814:	4a87      	ldr	r2, [pc, #540]	; (8000a34 <HAL_GPIO_Init+0x280>)
 8000816:	4293      	cmp	r3, r2
 8000818:	d806      	bhi.n	8000828 <HAL_GPIO_Init+0x74>
 800081a:	4a87      	ldr	r2, [pc, #540]	; (8000a38 <HAL_GPIO_Init+0x284>)
 800081c:	4293      	cmp	r3, r2
 800081e:	d020      	beq.n	8000862 <HAL_GPIO_Init+0xae>
 8000820:	4a86      	ldr	r2, [pc, #536]	; (8000a3c <HAL_GPIO_Init+0x288>)
 8000822:	4293      	cmp	r3, r2
 8000824:	d01d      	beq.n	8000862 <HAL_GPIO_Init+0xae>
          break;
 8000826:	e036      	b.n	8000896 <HAL_GPIO_Init+0xe2>
      switch (GPIO_Init->Mode)
 8000828:	4a85      	ldr	r2, [pc, #532]	; (8000a40 <HAL_GPIO_Init+0x28c>)
 800082a:	4293      	cmp	r3, r2
 800082c:	d019      	beq.n	8000862 <HAL_GPIO_Init+0xae>
 800082e:	4a85      	ldr	r2, [pc, #532]	; (8000a44 <HAL_GPIO_Init+0x290>)
 8000830:	4293      	cmp	r3, r2
 8000832:	d016      	beq.n	8000862 <HAL_GPIO_Init+0xae>
 8000834:	4a84      	ldr	r2, [pc, #528]	; (8000a48 <HAL_GPIO_Init+0x294>)
 8000836:	4293      	cmp	r3, r2
 8000838:	d013      	beq.n	8000862 <HAL_GPIO_Init+0xae>
          break;
 800083a:	e02c      	b.n	8000896 <HAL_GPIO_Init+0xe2>
          config = GPIO_Init->Speed + GPIO_CR_CNF_GP_OUTPUT_PP;
 800083c:	683b      	ldr	r3, [r7, #0]
 800083e:	68db      	ldr	r3, [r3, #12]
 8000840:	623b      	str	r3, [r7, #32]
          break;
 8000842:	e028      	b.n	8000896 <HAL_GPIO_Init+0xe2>
          config = GPIO_Init->Speed + GPIO_CR_CNF_GP_OUTPUT_OD;
 8000844:	683b      	ldr	r3, [r7, #0]
 8000846:	68db      	ldr	r3, [r3, #12]
 8000848:	3304      	adds	r3, #4
 800084a:	623b      	str	r3, [r7, #32]
          break;
 800084c:	e023      	b.n	8000896 <HAL_GPIO_Init+0xe2>
          config = GPIO_Init->Speed + GPIO_CR_CNF_AF_OUTPUT_PP;
 800084e:	683b      	ldr	r3, [r7, #0]
 8000850:	68db      	ldr	r3, [r3, #12]
 8000852:	3308      	adds	r3, #8
 8000854:	623b      	str	r3, [r7, #32]
          break;
 8000856:	e01e      	b.n	8000896 <HAL_GPIO_Init+0xe2>
          config = GPIO_Init->Speed + GPIO_CR_CNF_AF_OUTPUT_OD;
 8000858:	683b      	ldr	r3, [r7, #0]
 800085a:	68db      	ldr	r3, [r3, #12]
 800085c:	330c      	adds	r3, #12
 800085e:	623b      	str	r3, [r7, #32]
          break;
 8000860:	e019      	b.n	8000896 <HAL_GPIO_Init+0xe2>
          if (GPIO_Init->Pull == GPIO_NOPULL)
 8000862:	683b      	ldr	r3, [r7, #0]
 8000864:	689b      	ldr	r3, [r3, #8]
 8000866:	2b00      	cmp	r3, #0
 8000868:	d102      	bne.n	8000870 <HAL_GPIO_Init+0xbc>
            config = GPIO_CR_MODE_INPUT + GPIO_CR_CNF_INPUT_FLOATING;
 800086a:	2304      	movs	r3, #4
 800086c:	623b      	str	r3, [r7, #32]
          break;
 800086e:	e012      	b.n	8000896 <HAL_GPIO_Init+0xe2>
          else if (GPIO_Init->Pull == GPIO_PULLUP)
 8000870:	683b      	ldr	r3, [r7, #0]
 8000872:	689b      	ldr	r3, [r3, #8]
 8000874:	2b01      	cmp	r3, #1
 8000876:	d105      	bne.n	8000884 <HAL_GPIO_Init+0xd0>
            config = GPIO_CR_MODE_INPUT + GPIO_CR_CNF_INPUT_PU_PD;
 8000878:	2308      	movs	r3, #8
 800087a:	623b      	str	r3, [r7, #32]
            GPIOx->BSRR = ioposition;
 800087c:	687b      	ldr	r3, [r7, #4]
 800087e:	69fa      	ldr	r2, [r7, #28]
 8000880:	611a      	str	r2, [r3, #16]
          break;
 8000882:	e008      	b.n	8000896 <HAL_GPIO_Init+0xe2>
            config = GPIO_CR_MODE_INPUT + GPIO_CR_CNF_INPUT_PU_PD;
 8000884:	2308      	movs	r3, #8
 8000886:	623b      	str	r3, [r7, #32]
            GPIOx->BRR = ioposition;
 8000888:	687b      	ldr	r3, [r7, #4]
 800088a:	69fa      	ldr	r2, [r7, #28]
 800088c:	615a      	str	r2, [r3, #20]
          break;
 800088e:	e002      	b.n	8000896 <HAL_GPIO_Init+0xe2>
          config = GPIO_CR_MODE_INPUT + GPIO_CR_CNF_ANALOG;
 8000890:	2300      	movs	r3, #0
 8000892:	623b      	str	r3, [r7, #32]
          break;
 8000894:	bf00      	nop
      }

      /* Check if the current bit belongs to first half or last half of the pin count number
       in order to address CRH or CRL register*/
      configregister = (iocurrent < GPIO_PIN_8) ? &GPIOx->CRL     : &GPIOx->CRH;
 8000896:	69bb      	ldr	r3, [r7, #24]
 8000898:	2bff      	cmp	r3, #255	; 0xff
 800089a:	d801      	bhi.n	80008a0 <HAL_GPIO_Init+0xec>
 800089c:	687b      	ldr	r3, [r7, #4]
 800089e:	e001      	b.n	80008a4 <HAL_GPIO_Init+0xf0>
 80008a0:	687b      	ldr	r3, [r7, #4]
 80008a2:	3304      	adds	r3, #4
 80008a4:	617b      	str	r3, [r7, #20]
      registeroffset = (iocurrent < GPIO_PIN_8) ? (position << 2u) : ((position - 8u) << 2u);
 80008a6:	69bb      	ldr	r3, [r7, #24]
 80008a8:	2bff      	cmp	r3, #255	; 0xff
 80008aa:	d802      	bhi.n	80008b2 <HAL_GPIO_Init+0xfe>
 80008ac:	6a7b      	ldr	r3, [r7, #36]	; 0x24
 80008ae:	009b      	lsls	r3, r3, #2
 80008b0:	e002      	b.n	80008b8 <HAL_GPIO_Init+0x104>
 80008b2:	6a7b      	ldr	r3, [r7, #36]	; 0x24
 80008b4:	3b08      	subs	r3, #8
 80008b6:	009b      	lsls	r3, r3, #2
 80008b8:	613b      	str	r3, [r7, #16]

      /* Apply the new configuration of the pin to the register */
      MODIFY_REG((*configregister), ((GPIO_CRL_MODE0 | GPIO_CRL_CNF0) << registeroffset), (config << registeroffset));
 80008ba:	697b      	ldr	r3, [r7, #20]
 80008bc:	681a      	ldr	r2, [r3, #0]
 80008be:	210f      	movs	r1, #15
 80008c0:	693b      	ldr	r3, [r7, #16]
 80008c2:	fa01 f303 	lsl.w	r3, r1, r3
 80008c6:	43db      	mvns	r3, r3
 80008c8:	401a      	ands	r2, r3
 80008ca:	6a39      	ldr	r1, [r7, #32]
 80008cc:	693b      	ldr	r3, [r7, #16]
 80008ce:	fa01 f303 	lsl.w	r3, r1, r3
 80008d2:	431a      	orrs	r2, r3
 80008d4:	697b      	ldr	r3, [r7, #20]
 80008d6:	601a      	str	r2, [r3, #0]

      /*--------------------- EXTI Mode Configuration ------------------------*/
      /* Configure the External Interrupt or event for the current IO */
      if ((GPIO_Init->Mode & EXTI_MODE) == EXTI_MODE)
 80008d8:	683b      	ldr	r3, [r7, #0]
 80008da:	685b      	ldr	r3, [r3, #4]
 80008dc:	f003 5380 	and.w	r3, r3, #268435456	; 0x10000000
 80008e0:	2b00      	cmp	r3, #0
 80008e2:	f000 8096 	beq.w	8000a12 <HAL_GPIO_Init+0x25e>
      {
        /* Enable AFIO Clock */
        __HAL_RCC_AFIO_CLK_ENABLE();
 80008e6:	4b59      	ldr	r3, [pc, #356]	; (8000a4c <HAL_GPIO_Init+0x298>)
 80008e8:	699b      	ldr	r3, [r3, #24]
 80008ea:	4a58      	ldr	r2, [pc, #352]	; (8000a4c <HAL_GPIO_Init+0x298>)
 80008ec:	f043 0301 	orr.w	r3, r3, #1
 80008f0:	6193      	str	r3, [r2, #24]
 80008f2:	4b56      	ldr	r3, [pc, #344]	; (8000a4c <HAL_GPIO_Init+0x298>)
 80008f4:	699b      	ldr	r3, [r3, #24]
 80008f6:	f003 0301 	and.w	r3, r3, #1
 80008fa:	60bb      	str	r3, [r7, #8]
 80008fc:	68bb      	ldr	r3, [r7, #8]
        temp = AFIO->EXTICR[position >> 2u];
 80008fe:	4a54      	ldr	r2, [pc, #336]	; (8000a50 <HAL_GPIO_Init+0x29c>)
 8000900:	6a7b      	ldr	r3, [r7, #36]	; 0x24
 8000902:	089b      	lsrs	r3, r3, #2
 8000904:	3302      	adds	r3, #2
 8000906:	f852 3023 	ldr.w	r3, [r2, r3, lsl #2]
 800090a:	60fb      	str	r3, [r7, #12]
        CLEAR_BIT(temp, (0x0Fu) << (4u * (position & 0x03u)));
 800090c:	6a7b      	ldr	r3, [r7, #36]	; 0x24
 800090e:	f003 0303 	and.w	r3, r3, #3
 8000912:	009b      	lsls	r3, r3, #2
 8000914:	220f      	movs	r2, #15
 8000916:	fa02 f303 	lsl.w	r3, r2, r3
 800091a:	43db      	mvns	r3, r3
 800091c:	68fa      	ldr	r2, [r7, #12]
 800091e:	4013      	ands	r3, r2
 8000920:	60fb      	str	r3, [r7, #12]
        SET_BIT(temp, (GPIO_GET_INDEX(GPIOx)) << (4u * (position & 0x03u)));
 8000922:	687b      	ldr	r3, [r7, #4]
 8000924:	4a4b      	ldr	r2, [pc, #300]	; (8000a54 <HAL_GPIO_Init+0x2a0>)
 8000926:	4293      	cmp	r3, r2
 8000928:	d013      	beq.n	8000952 <HAL_GPIO_Init+0x19e>
 800092a:	687b      	ldr	r3, [r7, #4]
 800092c:	4a4a      	ldr	r2, [pc, #296]	; (8000a58 <HAL_GPIO_Init+0x2a4>)
 800092e:	4293      	cmp	r3, r2
 8000930:	d00d      	beq.n	800094e <HAL_GPIO_Init+0x19a>
 8000932:	687b      	ldr	r3, [r7, #4]
 8000934:	4a49      	ldr	r2, [pc, #292]	; (8000a5c <HAL_GPIO_Init+0x2a8>)
 8000936:	4293      	cmp	r3, r2
 8000938:	d007      	beq.n	800094a <HAL_GPIO_Init+0x196>
 800093a:	687b      	ldr	r3, [r7, #4]
 800093c:	4a48      	ldr	r2, [pc, #288]	; (8000a60 <HAL_GPIO_Init+0x2ac>)
 800093e:	4293      	cmp	r3, r2
 8000940:	d101      	bne.n	8000946 <HAL_GPIO_Init+0x192>
 8000942:	2303      	movs	r3, #3
 8000944:	e006      	b.n	8000954 <HAL_GPIO_Init+0x1a0>
 8000946:	2304      	movs	r3, #4
 8000948:	e004      	b.n	8000954 <HAL_GPIO_Init+0x1a0>
 800094a:	2302      	movs	r3, #2
 800094c:	e002      	b.n	8000954 <HAL_GPIO_Init+0x1a0>
 800094e:	2301      	movs	r3, #1
 8000950:	e000      	b.n	8000954 <HAL_GPIO_Init+0x1a0>
 8000952:	2300      	movs	r3, #0
 8000954:	6a7a      	ldr	r2, [r7, #36]	; 0x24
 8000956:	f002 0203 	and.w	r2, r2, #3
 800095a:	0092      	lsls	r2, r2, #2
 800095c:	4093      	lsls	r3, r2
 800095e:	68fa      	ldr	r2, [r7, #12]
 8000960:	4313      	orrs	r3, r2
 8000962:	60fb      	str	r3, [r7, #12]
        AFIO->EXTICR[position >> 2u] = temp;
 8000964:	493a      	ldr	r1, [pc, #232]	; (8000a50 <HAL_GPIO_Init+0x29c>)
 8000966:	6a7b      	ldr	r3, [r7, #36]	; 0x24
 8000968:	089b      	lsrs	r3, r3, #2
 800096a:	3302      	adds	r3, #2
 800096c:	68fa      	ldr	r2, [r7, #12]
 800096e:	f841 2023 	str.w	r2, [r1, r3, lsl #2]


        /* Configure the interrupt mask */
        if ((GPIO_Init->Mode & GPIO_MODE_IT) == GPIO_MODE_IT)
 8000972:	683b      	ldr	r3, [r7, #0]
 8000974:	685b      	ldr	r3, [r3, #4]
 8000976:	f403 3380 	and.w	r3, r3, #65536	; 0x10000
 800097a:	2b00      	cmp	r3, #0
 800097c:	d006      	beq.n	800098c <HAL_GPIO_Init+0x1d8>
        {
          SET_BIT(EXTI->IMR, iocurrent);
 800097e:	4b39      	ldr	r3, [pc, #228]	; (8000a64 <HAL_GPIO_Init+0x2b0>)
 8000980:	681a      	ldr	r2, [r3, #0]
 8000982:	4938      	ldr	r1, [pc, #224]	; (8000a64 <HAL_GPIO_Init+0x2b0>)
 8000984:	69bb      	ldr	r3, [r7, #24]
 8000986:	4313      	orrs	r3, r2
 8000988:	600b      	str	r3, [r1, #0]
 800098a:	e006      	b.n	800099a <HAL_GPIO_Init+0x1e6>
        }
        else
        {
          CLEAR_BIT(EXTI->IMR, iocurrent);
 800098c:	4b35      	ldr	r3, [pc, #212]	; (8000a64 <HAL_GPIO_Init+0x2b0>)
 800098e:	681a      	ldr	r2, [r3, #0]
 8000990:	69bb      	ldr	r3, [r7, #24]
 8000992:	43db      	mvns	r3, r3
 8000994:	4933      	ldr	r1, [pc, #204]	; (8000a64 <HAL_GPIO_Init+0x2b0>)
 8000996:	4013      	ands	r3, r2
 8000998:	600b      	str	r3, [r1, #0]
        }

        /* Configure the event mask */
        if ((GPIO_Init->Mode & GPIO_MODE_EVT) == GPIO_MODE_EVT)
 800099a:	683b      	ldr	r3, [r7, #0]
 800099c:	685b      	ldr	r3, [r3, #4]
 800099e:	f403 3300 	and.w	r3, r3, #131072	; 0x20000
 80009a2:	2b00      	cmp	r3, #0
 80009a4:	d006      	beq.n	80009b4 <HAL_GPIO_Init+0x200>
        {
          SET_BIT(EXTI->EMR, iocurrent);
 80009a6:	4b2f      	ldr	r3, [pc, #188]	; (8000a64 <HAL_GPIO_Init+0x2b0>)
 80009a8:	685a      	ldr	r2, [r3, #4]
 80009aa:	492e      	ldr	r1, [pc, #184]	; (8000a64 <HAL_GPIO_Init+0x2b0>)
 80009ac:	69bb      	ldr	r3, [r7, #24]
 80009ae:	4313      	orrs	r3, r2
 80009b0:	604b      	str	r3, [r1, #4]
 80009b2:	e006      	b.n	80009c2 <HAL_GPIO_Init+0x20e>
        }
        else
        {
          CLEAR_BIT(EXTI->EMR, iocurrent);
 80009b4:	4b2b      	ldr	r3, [pc, #172]	; (8000a64 <HAL_GPIO_Init+0x2b0>)
 80009b6:	685a      	ldr	r2, [r3, #4]
 80009b8:	69bb      	ldr	r3, [r7, #24]
 80009ba:	43db      	mvns	r3, r3
 80009bc:	4929      	ldr	r1, [pc, #164]	; (8000a64 <HAL_GPIO_Init+0x2b0>)
 80009be:	4013      	ands	r3, r2
 80009c0:	604b      	str	r3, [r1, #4]
        }

        /* Enable or disable the rising trigger */
        if ((GPIO_Init->Mode & RISING_EDGE) == RISING_EDGE)
 80009c2:	683b      	ldr	r3, [r7, #0]
 80009c4:	685b      	ldr	r3, [r3, #4]
 80009c6:	f403 1380 	and.w	r3, r3, #1048576	; 0x100000
 80009ca:	2b00      	cmp	r3, #0
 80009cc:	d006      	beq.n	80009dc <HAL_GPIO_Init+0x228>
        {
          SET_BIT(EXTI->RTSR, iocurrent);
 80009ce:	4b25      	ldr	r3, [pc, #148]	; (8000a64 <HAL_GPIO_Init+0x2b0>)
 80009d0:	689a      	ldr	r2, [r3, #8]
 80009d2:	4924      	ldr	r1, [pc, #144]	; (8000a64 <HAL_GPIO_Init+0x2b0>)
 80009d4:	69bb      	ldr	r3, [r7, #24]
 80009d6:	4313      	orrs	r3, r2
 80009d8:	608b      	str	r3, [r1, #8]
 80009da:	e006      	b.n	80009ea <HAL_GPIO_Init+0x236>
        }
        else
        {
          CLEAR_BIT(EXTI->RTSR, iocurrent);
 80009dc:	4b21      	ldr	r3, [pc, #132]	; (8000a64 <HAL_GPIO_Init+0x2b0>)
 80009de:	689a      	ldr	r2, [r3, #8]
 80009e0:	69bb      	ldr	r3, [r7, #24]
 80009e2:	43db      	mvns	r3, r3
 80009e4:	491f      	ldr	r1, [pc, #124]	; (8000a64 <HAL_GPIO_Init+0x2b0>)
 80009e6:	4013      	ands	r3, r2
 80009e8:	608b      	str	r3, [r1, #8]
        }

        /* Enable or disable the falling trigger */
        if ((GPIO_Init->Mode & FALLING_EDGE) == FALLING_EDGE)
 80009ea:	683b      	ldr	r3, [r7, #0]
 80009ec:	685b      	ldr	r3, [r3, #4]
 80009ee:	f403 1300 	and.w	r3, r3, #2097152	; 0x200000
 80009f2:	2b00      	cmp	r3, #0
 80009f4:	d006      	beq.n	8000a04 <HAL_GPIO_Init+0x250>
        {
          SET_BIT(EXTI->FTSR, iocurrent);
 80009f6:	4b1b      	ldr	r3, [pc, #108]	; (8000a64 <HAL_GPIO_Init+0x2b0>)
 80009f8:	68da      	ldr	r2, [r3, #12]
 80009fa:	491a      	ldr	r1, [pc, #104]	; (8000a64 <HAL_GPIO_Init+0x2b0>)
 80009fc:	69bb      	ldr	r3, [r7, #24]
 80009fe:	4313      	orrs	r3, r2
 8000a00:	60cb      	str	r3, [r1, #12]
 8000a02:	e006      	b.n	8000a12 <HAL_GPIO_Init+0x25e>
        }
        else
        {
          CLEAR_BIT(EXTI->FTSR, iocurrent);
 8000a04:	4b17      	ldr	r3, [pc, #92]	; (8000a64 <HAL_GPIO_Init+0x2b0>)
 8000a06:	68da      	ldr	r2, [r3, #12]
 8000a08:	69bb      	ldr	r3, [r7, #24]
 8000a0a:	43db      	mvns	r3, r3
 8000a0c:	4915      	ldr	r1, [pc, #84]	; (8000a64 <HAL_GPIO_Init+0x2b0>)
 8000a0e:	4013      	ands	r3, r2
 8000a10:	60cb      	str	r3, [r1, #12]
        }
      }
    }

	position++;
 8000a12:	6a7b      	ldr	r3, [r7, #36]	; 0x24
 8000a14:	3301      	adds	r3, #1
 8000a16:	627b      	str	r3, [r7, #36]	; 0x24
  while (((GPIO_Init->Pin) >> position) != 0x00u)
 8000a18:	683b      	ldr	r3, [r7, #0]
 8000a1a:	681a      	ldr	r2, [r3, #0]
 8000a1c:	6a7b      	ldr	r3, [r7, #36]	; 0x24
 8000a1e:	fa22 f303 	lsr.w	r3, r2, r3
 8000a22:	2b00      	cmp	r3, #0
 8000a24:	f47f aed0 	bne.w	80007c8 <HAL_GPIO_Init+0x14>
  }
}
 8000a28:	bf00      	nop
 8000a2a:	372c      	adds	r7, #44	; 0x2c
 8000a2c:	46bd      	mov	sp, r7
 8000a2e:	bc80      	pop	{r7}
 8000a30:	4770      	bx	lr
 8000a32:	bf00      	nop
 8000a34:	10210000 	.word	0x10210000
 8000a38:	10110000 	.word	0x10110000
 8000a3c:	10120000 	.word	0x10120000
 8000a40:	10310000 	.word	0x10310000
 8000a44:	10320000 	.word	0x10320000
 8000a48:	10220000 	.word	0x10220000
 8000a4c:	40021000 	.word	0x40021000
 8000a50:	40010000 	.word	0x40010000
 8000a54:	40010800 	.word	0x40010800
 8000a58:	40010c00 	.word	0x40010c00
 8000a5c:	40011000 	.word	0x40011000
 8000a60:	40011400 	.word	0x40011400
 8000a64:	40010400 	.word	0x40010400

08000a68 <HAL_GPIO_WritePin>:
  *            @arg GPIO_PIN_RESET: to clear the port pin
  *            @arg GPIO_PIN_SET: to set the port pin
  * @retval None
  */
void HAL_GPIO_WritePin(GPIO_TypeDef *GPIOx, uint16_t GPIO_Pin, GPIO_PinState PinState)
{
 8000a68:	b480      	push	{r7}
 8000a6a:	b083      	sub	sp, #12
 8000a6c:	af00      	add	r7, sp, #0
 8000a6e:	6078      	str	r0, [r7, #4]
 8000a70:	460b      	mov	r3, r1
 8000a72:	807b      	strh	r3, [r7, #2]
 8000a74:	4613      	mov	r3, r2
 8000a76:	707b      	strb	r3, [r7, #1]
  /* Check the parameters */
  assert_param(IS_GPIO_PIN(GPIO_Pin));
  assert_param(IS_GPIO_PIN_ACTION(PinState));

  if (PinState != GPIO_PIN_RESET)
 8000a78:	787b      	ldrb	r3, [r7, #1]
 8000a7a:	2b00      	cmp	r3, #0
 8000a7c:	d003      	beq.n	8000a86 <HAL_GPIO_WritePin+0x1e>
  {
    GPIOx->BSRR = GPIO_Pin;
 8000a7e:	887a      	ldrh	r2, [r7, #2]
 8000a80:	687b      	ldr	r3, [r7, #4]
 8000a82:	611a      	str	r2, [r3, #16]
  }
  else
  {
    GPIOx->BSRR = (uint32_t)GPIO_Pin << 16u;
  }
}
 8000a84:	e003      	b.n	8000a8e <HAL_GPIO_WritePin+0x26>
    GPIOx->BSRR = (uint32_t)GPIO_Pin << 16u;
 8000a86:	887b      	ldrh	r3, [r7, #2]
 8000a88:	041a      	lsls	r2, r3, #16
 8000a8a:	687b      	ldr	r3, [r7, #4]
 8000a8c:	611a      	str	r2, [r3, #16]
}
 8000a8e:	bf00      	nop
 8000a90:	370c      	adds	r7, #12
 8000a92:	46bd      	mov	sp, r7
 8000a94:	bc80      	pop	{r7}
 8000a96:	4770      	bx	lr

08000a98 <HAL_GPIO_TogglePin>:
  * @param  GPIOx: where x can be (A..G depending on device used) to select the GPIO peripheral
  * @param  GPIO_Pin: Specifies the pins to be toggled.
  * @retval None
  */
void HAL_GPIO_TogglePin(GPIO_TypeDef *GPIOx, uint16_t GPIO_Pin)
{
 8000a98:	b480      	push	{r7}
 8000a9a:	b085      	sub	sp, #20
 8000a9c:	af00      	add	r7, sp, #0
 8000a9e:	6078      	str	r0, [r7, #4]
 8000aa0:	460b      	mov	r3, r1
 8000aa2:	807b      	strh	r3, [r7, #2]

  /* Check the parameters */
  assert_param(IS_GPIO_PIN(GPIO_Pin));

  /* get current Ouput Data Register value */
  odr = GPIOx->ODR;
 8000aa4:	687b      	ldr	r3, [r7, #4]
 8000aa6:	68db      	ldr	r3, [r3, #12]
 8000aa8:	60fb      	str	r3, [r7, #12]

  /* Set selected pins that were at low level, and reset ones that were high */
  GPIOx->BSRR = ((odr & GPIO_Pin) << GPIO_NUMBER) | (~odr & GPIO_Pin);
 8000aaa:	887a      	ldrh	r2, [r7, #2]
 8000aac:	68fb      	ldr	r3, [r7, #12]
 8000aae:	4013      	ands	r3, r2
 8000ab0:	041a      	lsls	r2, r3, #16
 8000ab2:	68fb      	ldr	r3, [r7, #12]
 8000ab4:	43d9      	mvns	r1, r3
 8000ab6:	887b      	ldrh	r3, [r7, #2]
 8000ab8:	400b      	ands	r3, r1
 8000aba:	431a      	orrs	r2, r3
 8000abc:	687b      	ldr	r3, [r7, #4]
 8000abe:	611a      	str	r2, [r3, #16]
}
 8000ac0:	bf00      	nop
 8000ac2:	3714      	adds	r7, #20
 8000ac4:	46bd      	mov	sp, r7
 8000ac6:	bc80      	pop	{r7}
 8000ac8:	4770      	bx	lr
	...

08000acc <HAL_RCC_OscConfig>:
  *         supported by this macro. User should request a transition to HSE Off
  *         first and then HSE On or HSE Bypass.
  * @retval HAL status
  */
HAL_StatusTypeDef HAL_RCC_OscConfig(RCC_OscInitTypeDef  *RCC_OscInitStruct)
{
 8000acc:	b580      	push	{r7, lr}
 8000ace:	b086      	sub	sp, #24
 8000ad0:	af00      	add	r7, sp, #0
 8000ad2:	6078      	str	r0, [r7, #4]
  uint32_t tickstart;
  uint32_t pll_config;

  /* Check Null pointer */
  if (RCC_OscInitStruct == NULL)
 8000ad4:	687b      	ldr	r3, [r7, #4]
 8000ad6:	2b00      	cmp	r3, #0
 8000ad8:	d101      	bne.n	8000ade <HAL_RCC_OscConfig+0x12>
  {
    return HAL_ERROR;
 8000ada:	2301      	movs	r3, #1
 8000adc:	e26c      	b.n	8000fb8 <HAL_RCC_OscConfig+0x4ec>

  /* Check the parameters */
  assert_param(IS_RCC_OSCILLATORTYPE(RCC_OscInitStruct->OscillatorType));

  /*------------------------------- HSE Configuration ------------------------*/
  if (((RCC_OscInitStruct->OscillatorType) & RCC_OSCILLATORTYPE_HSE) == RCC_OSCILLATORTYPE_HSE)
 8000ade:	687b      	ldr	r3, [r7, #4]
 8000ae0:	681b      	ldr	r3, [r3, #0]
 8000ae2:	f003 0301 	and.w	r3, r3, #1
 8000ae6:	2b00      	cmp	r3, #0
 8000ae8:	f000 8087 	beq.w	8000bfa <HAL_RCC_OscConfig+0x12e>
  {
    /* Check the parameters */
    assert_param(IS_RCC_HSE(RCC_OscInitStruct->HSEState));

    /* When the HSE is used as system clock or clock source for PLL in these cases it is not allowed to be disabled */
    if ((__HAL_RCC_GET_SYSCLK_SOURCE() == RCC_SYSCLKSOURCE_STATUS_HSE)
 8000aec:	4b92      	ldr	r3, [pc, #584]	; (8000d38 <HAL_RCC_OscConfig+0x26c>)
 8000aee:	685b      	ldr	r3, [r3, #4]
 8000af0:	f003 030c 	and.w	r3, r3, #12
 8000af4:	2b04      	cmp	r3, #4
 8000af6:	d00c      	beq.n	8000b12 <HAL_RCC_OscConfig+0x46>
        || ((__HAL_RCC_GET_SYSCLK_SOURCE() == RCC_SYSCLKSOURCE_STATUS_PLLCLK) && (__HAL_RCC_GET_PLL_OSCSOURCE() == RCC_PLLSOURCE_HSE)))
 8000af8:	4b8f      	ldr	r3, [pc, #572]	; (8000d38 <HAL_RCC_OscConfig+0x26c>)
 8000afa:	685b      	ldr	r3, [r3, #4]
 8000afc:	f003 030c 	and.w	r3, r3, #12
 8000b00:	2b08      	cmp	r3, #8
 8000b02:	d112      	bne.n	8000b2a <HAL_RCC_OscConfig+0x5e>
 8000b04:	4b8c      	ldr	r3, [pc, #560]	; (8000d38 <HAL_RCC_OscConfig+0x26c>)
 8000b06:	685b      	ldr	r3, [r3, #4]
 8000b08:	f403 3380 	and.w	r3, r3, #65536	; 0x10000
 8000b0c:	f5b3 3f80 	cmp.w	r3, #65536	; 0x10000
 8000b10:	d10b      	bne.n	8000b2a <HAL_RCC_OscConfig+0x5e>
    {
      if ((__HAL_RCC_GET_FLAG(RCC_FLAG_HSERDY) != RESET) && (RCC_OscInitStruct->HSEState == RCC_HSE_OFF))
 8000b12:	4b89      	ldr	r3, [pc, #548]	; (8000d38 <HAL_RCC_OscConfig+0x26c>)
 8000b14:	681b      	ldr	r3, [r3, #0]
 8000b16:	f403 3300 	and.w	r3, r3, #131072	; 0x20000
 8000b1a:	2b00      	cmp	r3, #0
 8000b1c:	d06c      	beq.n	8000bf8 <HAL_RCC_OscConfig+0x12c>
 8000b1e:	687b      	ldr	r3, [r7, #4]
 8000b20:	685b      	ldr	r3, [r3, #4]
 8000b22:	2b00      	cmp	r3, #0
 8000b24:	d168      	bne.n	8000bf8 <HAL_RCC_OscConfig+0x12c>
      {
        return HAL_ERROR;
 8000b26:	2301      	movs	r3, #1
 8000b28:	e246      	b.n	8000fb8 <HAL_RCC_OscConfig+0x4ec>
      }
    }
    else
    {
      /* Set the new HSE configuration ---------------------------------------*/
      __HAL_RCC_HSE_CONFIG(RCC_OscInitStruct->HSEState);
 8000b2a:	687b      	ldr	r3, [r7, #4]
 8000b2c:	685b      	ldr	r3, [r3, #4]
 8000b2e:	f5b3 3f80 	cmp.w	r3, #65536	; 0x10000
 8000b32:	d106      	bne.n	8000b42 <HAL_RCC_OscConfig+0x76>
 8000b34:	4b80      	ldr	r3, [pc, #512]	; (8000d38 <HAL_RCC_OscConfig+0x26c>)
 8000b36:	681b      	ldr	r3, [r3, #0]
 8000b38:	4a7f      	ldr	r2, [pc, #508]	; (8000d38 <HAL_RCC_OscConfig+0x26c>)
 8000b3a:	f443 3380 	orr.w	r3, r3, #65536	; 0x10000
 8000b3e:	6013      	str	r3, [r2, #0]
 8000b40:	e02e      	b.n	8000ba0 <HAL_RCC_OscConfig+0xd4>
 8000b42:	687b      	ldr	r3, [r7, #4]
 8000b44:	685b      	ldr	r3, [r3, #4]
 8000b46:	2b00      	cmp	r3, #0
 8000b48:	d10c      	bne.n	8000b64 <HAL_RCC_OscConfig+0x98>
 8000b4a:	4b7b      	ldr	r3, [pc, #492]	; (8000d38 <HAL_RCC_OscConfig+0x26c>)
 8000b4c:	681b      	ldr	r3, [r3, #0]
 8000b4e:	4a7a      	ldr	r2, [pc, #488]	; (8000d38 <HAL_RCC_OscConfig+0x26c>)
 8000b50:	f423 3380 	bic.w	r3, r3, #65536	; 0x10000
 8000b54:	6013      	str	r3, [r2, #0]
 8000b56:	4b78      	ldr	r3, [pc, #480]	; (8000d38 <HAL_RCC_OscConfig+0x26c>)
 8000b58:	681b      	ldr	r3, [r3, #0]
 8000b5a:	4a77      	ldr	r2, [pc, #476]	; (8000d38 <HAL_RCC_OscConfig+0x26c>)
 8000b5c:	f423 2380 	bic.w	r3, r3, #262144	; 0x40000
 8000b60:	6013      	str	r3, [r2, #0]
 8000b62:	e01d      	b.n	8000ba0 <HAL_RCC_OscConfig+0xd4>
 8000b64:	687b      	ldr	r3, [r7, #4]
 8000b66:	685b      	ldr	r3, [r3, #4]
 8000b68:	f5b3 2fa0 	cmp.w	r3, #327680	; 0x50000
 8000b6c:	d10c      	bne.n	8000b88 <HAL_RCC_OscConfig+0xbc>
 8000b6e:	4b72      	ldr	r3, [pc, #456]	; (8000d38 <HAL_RCC_OscConfig+0x26c>)
 8000b70:	681b      	ldr	r3, [r3, #0]
 8000b72:	4a71      	ldr	r2, [pc, #452]	; (8000d38 <HAL_RCC_OscConfig+0x26c>)
 8000b74:	f443 2380 	orr.w	r3, r3, #262144	; 0x40000
 8000b78:	6013      	str	r3, [r2, #0]
 8000b7a:	4b6f      	ldr	r3, [pc, #444]	; (8000d38 <HAL_RCC_OscConfig+0x26c>)
 8000b7c:	681b      	ldr	r3, [r3, #0]
 8000b7e:	4a6e      	ldr	r2, [pc, #440]	; (8000d38 <HAL_RCC_OscConfig+0x26c>)
 8000b80:	f443 3380 	orr.w	r3, r3, #65536	; 0x10000
 8000b84:	6013      	str	r3, [r2, #0]
 8000b86:	e00b      	b.n	8000ba0 <HAL_RCC_OscConfig+0xd4>
 8000b88:	4b6b      	ldr	r3, [pc, #428]	; (8000d38 <HAL_RCC_OscConfig+0x26c>)
 8000b8a:	681b      	ldr	r3, [r3, #0]
 8000b8c:	4a6a      	ldr	r2, [pc, #424]	; (8000d38 <HAL_RCC_OscConfig+0x26c>)
 8000b8e:	f423 3380 	bic.w	r3, r3, #65536	; 0x10000
 8000b92:	6013      	str	r3, [r2, #0]
 8000b94:	4b68      	ldr	r3, [pc, #416]	; (8000d38 <HAL_RCC_OscConfig+0x26c>)
 8000b96:	681b      	ldr	r3, [r3, #0]
 8000b98:	4a67      	ldr	r2, [pc, #412]	; (8000d38 <HAL_RCC_OscConfig+0x26c>)
 8000b9a:	f423 2380 	bic.w	r3, r3, #262144	; 0x40000
 8000b9e:	6013      	str	r3, [r2, #0]


      /* Check the HSE State */
      if (RCC_OscInitStruct->HSEState != RCC_HSE_OFF)
 8000ba0:	687b      	ldr	r3, [r7, #4]
 8000ba2:	685b      	ldr	r3, [r3, #4]
 8000ba4:	2b00      	cmp	r3, #0
 8000ba6:	d013      	beq.n	8000bd0 <HAL_RCC_OscConfig+0x104>
      {
        /* Get Start Tick */
        tickstart = HAL_GetTick();
 8000ba8:	f7ff fd1a 	bl	80005e0 <HAL_GetTick>
 8000bac:	6138      	str	r0, [r7, #16]

        /* Wait till HSE is ready */
        while (__HAL_RCC_GET_FLAG(RCC_FLAG_HSERDY) == RESET)
 8000bae:	e008      	b.n	8000bc2 <HAL_RCC_OscConfig+0xf6>
        {
          if ((HAL_GetTick() - tickstart) > HSE_TIMEOUT_VALUE)
 8000bb0:	f7ff fd16 	bl	80005e0 <HAL_GetTick>
 8000bb4:	4602      	mov	r2, r0
 8000bb6:	693b      	ldr	r3, [r7, #16]
 8000bb8:	1ad3      	subs	r3, r2, r3
 8000bba:	2b64      	cmp	r3, #100	; 0x64
 8000bbc:	d901      	bls.n	8000bc2 <HAL_RCC_OscConfig+0xf6>
          {
            return HAL_TIMEOUT;
 8000bbe:	2303      	movs	r3, #3
 8000bc0:	e1fa      	b.n	8000fb8 <HAL_RCC_OscConfig+0x4ec>
        while (__HAL_RCC_GET_FLAG(RCC_FLAG_HSERDY) == RESET)
 8000bc2:	4b5d      	ldr	r3, [pc, #372]	; (8000d38 <HAL_RCC_OscConfig+0x26c>)
 8000bc4:	681b      	ldr	r3, [r3, #0]
 8000bc6:	f403 3300 	and.w	r3, r3, #131072	; 0x20000
 8000bca:	2b00      	cmp	r3, #0
 8000bcc:	d0f0      	beq.n	8000bb0 <HAL_RCC_OscConfig+0xe4>
 8000bce:	e014      	b.n	8000bfa <HAL_RCC_OscConfig+0x12e>
        }
      }
      else
      {
        /* Get Start Tick */
        tickstart = HAL_GetTick();
 8000bd0:	f7ff fd06 	bl	80005e0 <HAL_GetTick>
 8000bd4:	6138      	str	r0, [r7, #16]

        /* Wait till HSE is disabled */
        while (__HAL_RCC_GET_FLAG(RCC_FLAG_HSERDY) != RESET)
 8000bd6:	e008      	b.n	8000bea <HAL_RCC_OscConfig+0x11e>
        {
          if ((HAL_GetTick() - tickstart) > HSE_TIMEOUT_VALUE)
 8000bd8:	f7ff fd02 	bl	80005e0 <HAL_GetTick>
 8000bdc:	4602      	mov	r2, r0
 8000bde:	693b      	ldr	r3, [r7, #16]
 8000be0:	1ad3      	subs	r3, r2, r3
 8000be2:	2b64      	cmp	r3, #100	; 0x64
 8000be4:	d901      	bls.n	8000bea <HAL_RCC_OscConfig+0x11e>
          {
            return HAL_TIMEOUT;
 8000be6:	2303      	movs	r3, #3
 8000be8:	e1e6      	b.n	8000fb8 <HAL_RCC_OscConfig+0x4ec>
        while (__HAL_RCC_GET_FLAG(RCC_FLAG_HSERDY) != RESET)
 8000bea:	4b53      	ldr	r3, [pc, #332]	; (8000d38 <HAL_RCC_OscConfig+0x26c>)
 8000bec:	681b      	ldr	r3, [r3, #0]
 8000bee:	f403 3300 	and.w	r3, r3, #131072	; 0x20000
 8000bf2:	2b00      	cmp	r3, #0
 8000bf4:	d1f0      	bne.n	8000bd8 <HAL_RCC_OscConfig+0x10c>
 8000bf6:	e000      	b.n	8000bfa <HAL_RCC_OscConfig+0x12e>
      if ((__HAL_RCC_GET_FLAG(RCC_FLAG_HSERDY) != RESET) && (RCC_OscInitStruct->HSEState == RCC_HSE_OFF))
 8000bf8:	bf00      	nop
        }
      }
    }
  }
  /*----------------------------- HSI Configuration --------------------------*/
  if (((RCC_OscInitStruct->OscillatorType) & RCC_OSCILLATORTYPE_HSI) == RCC_OSCILLATORTYPE_HSI)
 8000bfa:	687b      	ldr	r3, [r7, #4]
 8000bfc:	681b      	ldr	r3, [r3, #0]
 8000bfe:	f003 0302 	and.w	r3, r3, #2
 8000c02:	2b00      	cmp	r3, #0
 8000c04:	d063      	beq.n	8000cce <HAL_RCC_OscConfig+0x202>
    /* Check the parameters */
    assert_param(IS_RCC_HSI(RCC_OscInitStruct->HSIState));
    assert_param(IS_RCC_CALIBRATION_VALUE(RCC_OscInitStruct->HSICalibrationValue));

    /* Check if HSI is used as system clock or as PLL source when PLL is selected as system clock */
    if ((__HAL_RCC_GET_SYSCLK_SOURCE() == RCC_SYSCLKSOURCE_STATUS_HSI)
 8000c06:	4b4c      	ldr	r3, [pc, #304]	; (8000d38 <HAL_RCC_OscConfig+0x26c>)
 8000c08:	685b      	ldr	r3, [r3, #4]
 8000c0a:	f003 030c 	and.w	r3, r3, #12
 8000c0e:	2b00      	cmp	r3, #0
 8000c10:	d00b      	beq.n	8000c2a <HAL_RCC_OscConfig+0x15e>
        || ((__HAL_RCC_GET_SYSCLK_SOURCE() == RCC_SYSCLKSOURCE_STATUS_PLLCLK) && (__HAL_RCC_GET_PLL_OSCSOURCE() == RCC_PLLSOURCE_HSI_DIV2)))
 8000c12:	4b49      	ldr	r3, [pc, #292]	; (8000d38 <HAL_RCC_OscConfig+0x26c>)
 8000c14:	685b      	ldr	r3, [r3, #4]
 8000c16:	f003 030c 	and.w	r3, r3, #12
 8000c1a:	2b08      	cmp	r3, #8
 8000c1c:	d11c      	bne.n	8000c58 <HAL_RCC_OscConfig+0x18c>
 8000c1e:	4b46      	ldr	r3, [pc, #280]	; (8000d38 <HAL_RCC_OscConfig+0x26c>)
 8000c20:	685b      	ldr	r3, [r3, #4]
 8000c22:	f403 3380 	and.w	r3, r3, #65536	; 0x10000
 8000c26:	2b00      	cmp	r3, #0
 8000c28:	d116      	bne.n	8000c58 <HAL_RCC_OscConfig+0x18c>
    {
      /* When HSI is used as system clock it will not disabled */
      if ((__HAL_RCC_GET_FLAG(RCC_FLAG_HSIRDY) != RESET) && (RCC_OscInitStruct->HSIState != RCC_HSI_ON))
 8000c2a:	4b43      	ldr	r3, [pc, #268]	; (8000d38 <HAL_RCC_OscConfig+0x26c>)
 8000c2c:	681b      	ldr	r3, [r3, #0]
 8000c2e:	f003 0302 	and.w	r3, r3, #2
 8000c32:	2b00      	cmp	r3, #0
 8000c34:	d005      	beq.n	8000c42 <HAL_RCC_OscConfig+0x176>
 8000c36:	687b      	ldr	r3, [r7, #4]
 8000c38:	691b      	ldr	r3, [r3, #16]
 8000c3a:	2b01      	cmp	r3, #1
 8000c3c:	d001      	beq.n	8000c42 <HAL_RCC_OscConfig+0x176>
      {
        return HAL_ERROR;
 8000c3e:	2301      	movs	r3, #1
 8000c40:	e1ba      	b.n	8000fb8 <HAL_RCC_OscConfig+0x4ec>
      }
      /* Otherwise, just the calibration is allowed */
      else
      {
        /* Adjusts the Internal High Speed oscillator (HSI) calibration value.*/
        __HAL_RCC_HSI_CALIBRATIONVALUE_ADJUST(RCC_OscInitStruct->HSICalibrationValue);
 8000c42:	4b3d      	ldr	r3, [pc, #244]	; (8000d38 <HAL_RCC_OscConfig+0x26c>)
 8000c44:	681b      	ldr	r3, [r3, #0]
 8000c46:	f023 02f8 	bic.w	r2, r3, #248	; 0xf8
 8000c4a:	687b      	ldr	r3, [r7, #4]
 8000c4c:	695b      	ldr	r3, [r3, #20]
 8000c4e:	00db      	lsls	r3, r3, #3
 8000c50:	4939      	ldr	r1, [pc, #228]	; (8000d38 <HAL_RCC_OscConfig+0x26c>)
 8000c52:	4313      	orrs	r3, r2
 8000c54:	600b      	str	r3, [r1, #0]
      if ((__HAL_RCC_GET_FLAG(RCC_FLAG_HSIRDY) != RESET) && (RCC_OscInitStruct->HSIState != RCC_HSI_ON))
 8000c56:	e03a      	b.n	8000cce <HAL_RCC_OscConfig+0x202>
      }
    }
    else
    {
      /* Check the HSI State */
      if (RCC_OscInitStruct->HSIState != RCC_HSI_OFF)
 8000c58:	687b      	ldr	r3, [r7, #4]
 8000c5a:	691b      	ldr	r3, [r3, #16]
 8000c5c:	2b00      	cmp	r3, #0
 8000c5e:	d020      	beq.n	8000ca2 <HAL_RCC_OscConfig+0x1d6>
      {
        /* Enable the Internal High Speed oscillator (HSI). */
        __HAL_RCC_HSI_ENABLE();
 8000c60:	4b36      	ldr	r3, [pc, #216]	; (8000d3c <HAL_RCC_OscConfig+0x270>)
 8000c62:	2201      	movs	r2, #1
 8000c64:	601a      	str	r2, [r3, #0]

        /* Get Start Tick */
        tickstart = HAL_GetTick();
 8000c66:	f7ff fcbb 	bl	80005e0 <HAL_GetTick>
 8000c6a:	6138      	str	r0, [r7, #16]

        /* Wait till HSI is ready */
        while (__HAL_RCC_GET_FLAG(RCC_FLAG_HSIRDY) == RESET)
 8000c6c:	e008      	b.n	8000c80 <HAL_RCC_OscConfig+0x1b4>
        {
          if ((HAL_GetTick() - tickstart) > HSI_TIMEOUT_VALUE)
 8000c6e:	f7ff fcb7 	bl	80005e0 <HAL_GetTick>
 8000c72:	4602      	mov	r2, r0
 8000c74:	693b      	ldr	r3, [r7, #16]
 8000c76:	1ad3      	subs	r3, r2, r3
 8000c78:	2b02      	cmp	r3, #2
 8000c7a:	d901      	bls.n	8000c80 <HAL_RCC_OscConfig+0x1b4>
          {
            return HAL_TIMEOUT;
 8000c7c:	2303      	movs	r3, #3
 8000c7e:	e19b      	b.n	8000fb8 <HAL_RCC_OscConfig+0x4ec>
        while (__HAL_RCC_GET_FLAG(RCC_FLAG_HSIRDY) == RESET)
 8000c80:	4b2d      	ldr	r3, [pc, #180]	; (8000d38 <HAL_RCC_OscConfig+0x26c>)
 8000c82:	681b      	ldr	r3, [r3, #0]
 8000c84:	f003 0302 	and.w	r3, r3, #2
 8000c88:	2b00      	cmp	r3, #0
 8000c8a:	d0f0      	beq.n	8000c6e <HAL_RCC_OscConfig+0x1a2>
          }
        }

        /* Adjusts the Internal High Speed oscillator (HSI) calibration value.*/
        __HAL_RCC_HSI_CALIBRATIONVALUE_ADJUST(RCC_OscInitStruct->HSICalibrationValue);
 8000c8c:	4b2a      	ldr	r3, [pc, #168]	; (8000d38 <HAL_RCC_OscConfig+0x26c>)
 8000c8e:	681b      	ldr	r3, [r3, #0]
 8000c90:	f023 02f8 	bic.w	r2, r3, #248	; 0xf8
 8000c94:	687b      	ldr	r3, [r7, #4]
 8000c96:	695b      	ldr	r3, [r3, #20]
 8000c98:	00db      	lsls	r3, r3, #3
 8000c9a:	4927      	ldr	r1, [pc, #156]	; (8000d38 <HAL_RCC_OscConfig+0x26c>)
 8000c9c:	4313      	orrs	r3, r2
 8000c9e:	600b      	str	r3, [r1, #0]
 8000ca0:	e015      	b.n	8000cce <HAL_RCC_OscConfig+0x202>
      }
      else
      {
        /* Disable the Internal High Speed oscillator (HSI). */
        __HAL_RCC_HSI_DISABLE();
 8000ca2:	4b26      	ldr	r3, [pc, #152]	; (8000d3c <HAL_RCC_OscConfig+0x270>)
 8000ca4:	2200      	movs	r2, #0
 8000ca6:	601a      	str	r2, [r3, #0]

        /* Get Start Tick */
        tickstart = HAL_GetTick();
 8000ca8:	f7ff fc9a 	bl	80005e0 <HAL_GetTick>
 8000cac:	6138      	str	r0, [r7, #16]

        /* Wait till HSI is disabled */
        while (__HAL_RCC_GET_FLAG(RCC_FLAG_HSIRDY) != RESET)
 8000cae:	e008      	b.n	8000cc2 <HAL_RCC_OscConfig+0x1f6>
        {
          if ((HAL_GetTick() - tickstart) > HSI_TIMEOUT_VALUE)
 8000cb0:	f7ff fc96 	bl	80005e0 <HAL_GetTick>
 8000cb4:	4602      	mov	r2, r0
 8000cb6:	693b      	ldr	r3, [r7, #16]
 8000cb8:	1ad3      	subs	r3, r2, r3
 8000cba:	2b02      	cmp	r3, #2
 8000cbc:	d901      	bls.n	8000cc2 <HAL_RCC_OscConfig+0x1f6>
          {
            return HAL_TIMEOUT;
 8000cbe:	2303      	movs	r3, #3
 8000cc0:	e17a      	b.n	8000fb8 <HAL_RCC_OscConfig+0x4ec>
        while (__HAL_RCC_GET_FLAG(RCC_FLAG_HSIRDY) != RESET)
 8000cc2:	4b1d      	ldr	r3, [pc, #116]	; (8000d38 <HAL_RCC_OscConfig+0x26c>)
 8000cc4:	681b      	ldr	r3, [r3, #0]
 8000cc6:	f003 0302 	and.w	r3, r3, #2
 8000cca:	2b00      	cmp	r3, #0
 8000ccc:	d1f0      	bne.n	8000cb0 <HAL_RCC_OscConfig+0x1e4>
        }
      }
    }
  }
  /*------------------------------ LSI Configuration -------------------------*/
  if (((RCC_OscInitStruct->OscillatorType) & RCC_OSCILLATORTYPE_LSI) == RCC_OSCILLATORTYPE_LSI)
 8000cce:	687b      	ldr	r3, [r7, #4]
 8000cd0:	681b      	ldr	r3, [r3, #0]
 8000cd2:	f003 0308 	and.w	r3, r3, #8
 8000cd6:	2b00      	cmp	r3, #0
 8000cd8:	d03a      	beq.n	8000d50 <HAL_RCC_OscConfig+0x284>
  {
    /* Check the parameters */
    assert_param(IS_RCC_LSI(RCC_OscInitStruct->LSIState));

    /* Check the LSI State */
    if (RCC_OscInitStruct->LSIState != RCC_LSI_OFF)
 8000cda:	687b      	ldr	r3, [r7, #4]
 8000cdc:	699b      	ldr	r3, [r3, #24]
 8000cde:	2b00      	cmp	r3, #0
 8000ce0:	d019      	beq.n	8000d16 <HAL_RCC_OscConfig+0x24a>
    {
      /* Enable the Internal Low Speed oscillator (LSI). */
      __HAL_RCC_LSI_ENABLE();
 8000ce2:	4b17      	ldr	r3, [pc, #92]	; (8000d40 <HAL_RCC_OscConfig+0x274>)
 8000ce4:	2201      	movs	r2, #1
 8000ce6:	601a      	str	r2, [r3, #0]

      /* Get Start Tick */
      tickstart = HAL_GetTick();
 8000ce8:	f7ff fc7a 	bl	80005e0 <HAL_GetTick>
 8000cec:	6138      	str	r0, [r7, #16]

      /* Wait till LSI is ready */
      while (__HAL_RCC_GET_FLAG(RCC_FLAG_LSIRDY) == RESET)
 8000cee:	e008      	b.n	8000d02 <HAL_RCC_OscConfig+0x236>
      {
        if ((HAL_GetTick() - tickstart) > LSI_TIMEOUT_VALUE)
 8000cf0:	f7ff fc76 	bl	80005e0 <HAL_GetTick>
 8000cf4:	4602      	mov	r2, r0
 8000cf6:	693b      	ldr	r3, [r7, #16]
 8000cf8:	1ad3      	subs	r3, r2, r3
 8000cfa:	2b02      	cmp	r3, #2
 8000cfc:	d901      	bls.n	8000d02 <HAL_RCC_OscConfig+0x236>
        {
          return HAL_TIMEOUT;
 8000cfe:	2303      	movs	r3, #3
 8000d00:	e15a      	b.n	8000fb8 <HAL_RCC_OscConfig+0x4ec>
      while (__HAL_RCC_GET_FLAG(RCC_FLAG_LSIRDY) == RESET)
 8000d02:	4b0d      	ldr	r3, [pc, #52]	; (8000d38 <HAL_RCC_OscConfig+0x26c>)
 8000d04:	6a5b      	ldr	r3, [r3, #36]	; 0x24
 8000d06:	f003 0302 	and.w	r3, r3, #2
 8000d0a:	2b00      	cmp	r3, #0
 8000d0c:	d0f0      	beq.n	8000cf0 <HAL_RCC_OscConfig+0x224>
        }
      }
      /*  To have a fully stabilized clock in the specified range, a software delay of 1ms
          should be added.*/
      RCC_Delay(1);
 8000d0e:	2001      	movs	r0, #1
 8000d10:	f000 fb0a 	bl	8001328 <RCC_Delay>
 8000d14:	e01c      	b.n	8000d50 <HAL_RCC_OscConfig+0x284>
    }
    else
    {
      /* Disable the Internal Low Speed oscillator (LSI). */
      __HAL_RCC_LSI_DISABLE();
 8000d16:	4b0a      	ldr	r3, [pc, #40]	; (8000d40 <HAL_RCC_OscConfig+0x274>)
 8000d18:	2200      	movs	r2, #0
 8000d1a:	601a      	str	r2, [r3, #0]

      /* Get Start Tick */
      tickstart = HAL_GetTick();
 8000d1c:	f7ff fc60 	bl	80005e0 <HAL_GetTick>
 8000d20:	6138      	str	r0, [r7, #16]

      /* Wait till LSI is disabled */
      while (__HAL_RCC_GET_FLAG(RCC_FLAG_LSIRDY) != RESET)
 8000d22:	e00f      	b.n	8000d44 <HAL_RCC_OscConfig+0x278>
      {
        if ((HAL_GetTick() - tickstart) > LSI_TIMEOUT_VALUE)
 8000d24:	f7ff fc5c 	bl	80005e0 <HAL_GetTick>
 8000d28:	4602      	mov	r2, r0
 8000d2a:	693b      	ldr	r3, [r7, #16]
 8000d2c:	1ad3      	subs	r3, r2, r3
 8000d2e:	2b02      	cmp	r3, #2
 8000d30:	d908      	bls.n	8000d44 <HAL_RCC_OscConfig+0x278>
        {
          return HAL_TIMEOUT;
 8000d32:	2303      	movs	r3, #3
 8000d34:	e140      	b.n	8000fb8 <HAL_RCC_OscConfig+0x4ec>
 8000d36:	bf00      	nop
 8000d38:	40021000 	.word	0x40021000
 8000d3c:	42420000 	.word	0x42420000
 8000d40:	42420480 	.word	0x42420480
      while (__HAL_RCC_GET_FLAG(RCC_FLAG_LSIRDY) != RESET)
 8000d44:	4b9e      	ldr	r3, [pc, #632]	; (8000fc0 <HAL_RCC_OscConfig+0x4f4>)
 8000d46:	6a5b      	ldr	r3, [r3, #36]	; 0x24
 8000d48:	f003 0302 	and.w	r3, r3, #2
 8000d4c:	2b00      	cmp	r3, #0
 8000d4e:	d1e9      	bne.n	8000d24 <HAL_RCC_OscConfig+0x258>
        }
      }
    }
  }
  /*------------------------------ LSE Configuration -------------------------*/
  if (((RCC_OscInitStruct->OscillatorType) & RCC_OSCILLATORTYPE_LSE) == RCC_OSCILLATORTYPE_LSE)
 8000d50:	687b      	ldr	r3, [r7, #4]
 8000d52:	681b      	ldr	r3, [r3, #0]
 8000d54:	f003 0304 	and.w	r3, r3, #4
 8000d58:	2b00      	cmp	r3, #0
 8000d5a:	f000 80a6 	beq.w	8000eaa <HAL_RCC_OscConfig+0x3de>
  {
    FlagStatus       pwrclkchanged = RESET;
 8000d5e:	2300      	movs	r3, #0
 8000d60:	75fb      	strb	r3, [r7, #23]
    /* Check the parameters */
    assert_param(IS_RCC_LSE(RCC_OscInitStruct->LSEState));

    /* Update LSE configuration in Backup Domain control register    */
    /* Requires to enable write access to Backup Domain of necessary */
    if (__HAL_RCC_PWR_IS_CLK_DISABLED())
 8000d62:	4b97      	ldr	r3, [pc, #604]	; (8000fc0 <HAL_RCC_OscConfig+0x4f4>)
 8000d64:	69db      	ldr	r3, [r3, #28]
 8000d66:	f003 5380 	and.w	r3, r3, #268435456	; 0x10000000
 8000d6a:	2b00      	cmp	r3, #0
 8000d6c:	d10d      	bne.n	8000d8a <HAL_RCC_OscConfig+0x2be>
    {
      __HAL_RCC_PWR_CLK_ENABLE();
 8000d6e:	4b94      	ldr	r3, [pc, #592]	; (8000fc0 <HAL_RCC_OscConfig+0x4f4>)
 8000d70:	69db      	ldr	r3, [r3, #28]
 8000d72:	4a93      	ldr	r2, [pc, #588]	; (8000fc0 <HAL_RCC_OscConfig+0x4f4>)
 8000d74:	f043 5380 	orr.w	r3, r3, #268435456	; 0x10000000
 8000d78:	61d3      	str	r3, [r2, #28]
 8000d7a:	4b91      	ldr	r3, [pc, #580]	; (8000fc0 <HAL_RCC_OscConfig+0x4f4>)
 8000d7c:	69db      	ldr	r3, [r3, #28]
 8000d7e:	f003 5380 	and.w	r3, r3, #268435456	; 0x10000000
 8000d82:	60bb      	str	r3, [r7, #8]
 8000d84:	68bb      	ldr	r3, [r7, #8]
      pwrclkchanged = SET;
 8000d86:	2301      	movs	r3, #1
 8000d88:	75fb      	strb	r3, [r7, #23]
    }

    if (HAL_IS_BIT_CLR(PWR->CR, PWR_CR_DBP))
 8000d8a:	4b8e      	ldr	r3, [pc, #568]	; (8000fc4 <HAL_RCC_OscConfig+0x4f8>)
 8000d8c:	681b      	ldr	r3, [r3, #0]
 8000d8e:	f403 7380 	and.w	r3, r3, #256	; 0x100
 8000d92:	2b00      	cmp	r3, #0
 8000d94:	d118      	bne.n	8000dc8 <HAL_RCC_OscConfig+0x2fc>
    {
      /* Enable write access to Backup domain */
      SET_BIT(PWR->CR, PWR_CR_DBP);
 8000d96:	4b8b      	ldr	r3, [pc, #556]	; (8000fc4 <HAL_RCC_OscConfig+0x4f8>)
 8000d98:	681b      	ldr	r3, [r3, #0]
 8000d9a:	4a8a      	ldr	r2, [pc, #552]	; (8000fc4 <HAL_RCC_OscConfig+0x4f8>)
 8000d9c:	f443 7380 	orr.w	r3, r3, #256	; 0x100
 8000da0:	6013      	str	r3, [r2, #0]

      /* Wait for Backup domain Write protection disable */
      tickstart = HAL_GetTick();
 8000da2:	f7ff fc1d 	bl	80005e0 <HAL_GetTick>
 8000da6:	6138      	str	r0, [r7, #16]

      while (HAL_IS_BIT_CLR(PWR->CR, PWR_CR_DBP))
 8000da8:	e008      	b.n	8000dbc <HAL_RCC_OscConfig+0x2f0>
      {
        if ((HAL_GetTick() - tickstart) > RCC_DBP_TIMEOUT_VALUE)
 8000daa:	f7ff fc19 	bl	80005e0 <HAL_GetTick>
 8000dae:	4602      	mov	r2, r0
 8000db0:	693b      	ldr	r3, [r7, #16]
 8000db2:	1ad3      	subs	r3, r2, r3
 8000db4:	2b64      	cmp	r3, #100	; 0x64
 8000db6:	d901      	bls.n	8000dbc <HAL_RCC_OscConfig+0x2f0>
        {
          return HAL_TIMEOUT;
 8000db8:	2303      	movs	r3, #3
 8000dba:	e0fd      	b.n	8000fb8 <HAL_RCC_OscConfig+0x4ec>
      while (HAL_IS_BIT_CLR(PWR->CR, PWR_CR_DBP))
 8000dbc:	4b81      	ldr	r3, [pc, #516]	; (8000fc4 <HAL_RCC_OscConfig+0x4f8>)
 8000dbe:	681b      	ldr	r3, [r3, #0]
 8000dc0:	f403 7380 	and.w	r3, r3, #256	; 0x100
 8000dc4:	2b00      	cmp	r3, #0
 8000dc6:	d0f0      	beq.n	8000daa <HAL_RCC_OscConfig+0x2de>
        }
      }
    }

    /* Set the new LSE configuration -----------------------------------------*/
    __HAL_RCC_LSE_CONFIG(RCC_OscInitStruct->LSEState);
 8000dc8:	687b      	ldr	r3, [r7, #4]
 8000dca:	68db      	ldr	r3, [r3, #12]
 8000dcc:	2b01      	cmp	r3, #1
 8000dce:	d106      	bne.n	8000dde <HAL_RCC_OscConfig+0x312>
 8000dd0:	4b7b      	ldr	r3, [pc, #492]	; (8000fc0 <HAL_RCC_OscConfig+0x4f4>)
 8000dd2:	6a1b      	ldr	r3, [r3, #32]
 8000dd4:	4a7a      	ldr	r2, [pc, #488]	; (8000fc0 <HAL_RCC_OscConfig+0x4f4>)
 8000dd6:	f043 0301 	orr.w	r3, r3, #1
 8000dda:	6213      	str	r3, [r2, #32]
 8000ddc:	e02d      	b.n	8000e3a <HAL_RCC_OscConfig+0x36e>
 8000dde:	687b      	ldr	r3, [r7, #4]
 8000de0:	68db      	ldr	r3, [r3, #12]
 8000de2:	2b00      	cmp	r3, #0
 8000de4:	d10c      	bne.n	8000e00 <HAL_RCC_OscConfig+0x334>
 8000de6:	4b76      	ldr	r3, [pc, #472]	; (8000fc0 <HAL_RCC_OscConfig+0x4f4>)
 8000de8:	6a1b      	ldr	r3, [r3, #32]
 8000dea:	4a75      	ldr	r2, [pc, #468]	; (8000fc0 <HAL_RCC_OscConfig+0x4f4>)
 8000dec:	f023 0301 	bic.w	r3, r3, #1
 8000df0:	6213      	str	r3, [r2, #32]
 8000df2:	4b73      	ldr	r3, [pc, #460]	; (8000fc0 <HAL_RCC_OscConfig+0x4f4>)
 8000df4:	6a1b      	ldr	r3, [r3, #32]
 8000df6:	4a72      	ldr	r2, [pc, #456]	; (8000fc0 <HAL_RCC_OscConfig+0x4f4>)
 8000df8:	f023 0304 	bic.w	r3, r3, #4
 8000dfc:	6213      	str	r3, [r2, #32]
 8000dfe:	e01c      	b.n	8000e3a <HAL_RCC_OscConfig+0x36e>
 8000e00:	687b      	ldr	r3, [r7, #4]
 8000e02:	68db      	ldr	r3, [r3, #12]
 8000e04:	2b05      	cmp	r3, #5
 8000e06:	d10c      	bne.n	8000e22 <HAL_RCC_OscConfig+0x356>
 8000e08:	4b6d      	ldr	r3, [pc, #436]	; (8000fc0 <HAL_RCC_OscConfig+0x4f4>)
 8000e0a:	6a1b      	ldr	r3, [r3, #32]
 8000e0c:	4a6c      	ldr	r2, [pc, #432]	; (8000fc0 <HAL_RCC_OscConfig+0x4f4>)
 8000e0e:	f043 0304 	orr.w	r3, r3, #4
 8000e12:	6213      	str	r3, [r2, #32]
 8000e14:	4b6a      	ldr	r3, [pc, #424]	; (8000fc0 <HAL_RCC_OscConfig+0x4f4>)
 8000e16:	6a1b      	ldr	r3, [r3, #32]
 8000e18:	4a69      	ldr	r2, [pc, #420]	; (8000fc0 <HAL_RCC_OscConfig+0x4f4>)
 8000e1a:	f043 0301 	orr.w	r3, r3, #1
 8000e1e:	6213      	str	r3, [r2, #32]
 8000e20:	e00b      	b.n	8000e3a <HAL_RCC_OscConfig+0x36e>
 8000e22:	4b67      	ldr	r3, [pc, #412]	; (8000fc0 <HAL_RCC_OscConfig+0x4f4>)
 8000e24:	6a1b      	ldr	r3, [r3, #32]
 8000e26:	4a66      	ldr	r2, [pc, #408]	; (8000fc0 <HAL_RCC_OscConfig+0x4f4>)
 8000e28:	f023 0301 	bic.w	r3, r3, #1
 8000e2c:	6213      	str	r3, [r2, #32]
 8000e2e:	4b64      	ldr	r3, [pc, #400]	; (8000fc0 <HAL_RCC_OscConfig+0x4f4>)
 8000e30:	6a1b      	ldr	r3, [r3, #32]
 8000e32:	4a63      	ldr	r2, [pc, #396]	; (8000fc0 <HAL_RCC_OscConfig+0x4f4>)
 8000e34:	f023 0304 	bic.w	r3, r3, #4
 8000e38:	6213      	str	r3, [r2, #32]
    /* Check the LSE State */
    if (RCC_OscInitStruct->LSEState != RCC_LSE_OFF)
 8000e3a:	687b      	ldr	r3, [r7, #4]
 8000e3c:	68db      	ldr	r3, [r3, #12]
 8000e3e:	2b00      	cmp	r3, #0
 8000e40:	d015      	beq.n	8000e6e <HAL_RCC_OscConfig+0x3a2>
    {
      /* Get Start Tick */
      tickstart = HAL_GetTick();
 8000e42:	f7ff fbcd 	bl	80005e0 <HAL_GetTick>
 8000e46:	6138      	str	r0, [r7, #16]

      /* Wait till LSE is ready */
      while (__HAL_RCC_GET_FLAG(RCC_FLAG_LSERDY) == RESET)
 8000e48:	e00a      	b.n	8000e60 <HAL_RCC_OscConfig+0x394>
      {
        if ((HAL_GetTick() - tickstart) > RCC_LSE_TIMEOUT_VALUE)
 8000e4a:	f7ff fbc9 	bl	80005e0 <HAL_GetTick>
 8000e4e:	4602      	mov	r2, r0
 8000e50:	693b      	ldr	r3, [r7, #16]
 8000e52:	1ad3      	subs	r3, r2, r3
 8000e54:	f241 3288 	movw	r2, #5000	; 0x1388
 8000e58:	4293      	cmp	r3, r2
 8000e5a:	d901      	bls.n	8000e60 <HAL_RCC_OscConfig+0x394>
        {
          return HAL_TIMEOUT;
 8000e5c:	2303      	movs	r3, #3
 8000e5e:	e0ab      	b.n	8000fb8 <HAL_RCC_OscConfig+0x4ec>
      while (__HAL_RCC_GET_FLAG(RCC_FLAG_LSERDY) == RESET)
 8000e60:	4b57      	ldr	r3, [pc, #348]	; (8000fc0 <HAL_RCC_OscConfig+0x4f4>)
 8000e62:	6a1b      	ldr	r3, [r3, #32]
 8000e64:	f003 0302 	and.w	r3, r3, #2
 8000e68:	2b00      	cmp	r3, #0
 8000e6a:	d0ee      	beq.n	8000e4a <HAL_RCC_OscConfig+0x37e>
 8000e6c:	e014      	b.n	8000e98 <HAL_RCC_OscConfig+0x3cc>
      }
    }
    else
    {
      /* Get Start Tick */
      tickstart = HAL_GetTick();
 8000e6e:	f7ff fbb7 	bl	80005e0 <HAL_GetTick>
 8000e72:	6138      	str	r0, [r7, #16]

      /* Wait till LSE is disabled */
      while (__HAL_RCC_GET_FLAG(RCC_FLAG_LSERDY) != RESET)
 8000e74:	e00a      	b.n	8000e8c <HAL_RCC_OscConfig+0x3c0>
      {
        if ((HAL_GetTick() - tickstart) > RCC_LSE_TIMEOUT_VALUE)
 8000e76:	f7ff fbb3 	bl	80005e0 <HAL_GetTick>
 8000e7a:	4602      	mov	r2, r0
 8000e7c:	693b      	ldr	r3, [r7, #16]
 8000e7e:	1ad3      	subs	r3, r2, r3
 8000e80:	f241 3288 	movw	r2, #5000	; 0x1388
 8000e84:	4293      	cmp	r3, r2
 8000e86:	d901      	bls.n	8000e8c <HAL_RCC_OscConfig+0x3c0>
        {
          return HAL_TIMEOUT;
 8000e88:	2303      	movs	r3, #3
 8000e8a:	e095      	b.n	8000fb8 <HAL_RCC_OscConfig+0x4ec>
      while (__HAL_RCC_GET_FLAG(RCC_FLAG_LSERDY) != RESET)
 8000e8c:	4b4c      	ldr	r3, [pc, #304]	; (8000fc0 <HAL_RCC_OscConfig+0x4f4>)
 8000e8e:	6a1b      	ldr	r3, [r3, #32]
 8000e90:	f003 0302 	and.w	r3, r3, #2
 8000e94:	2b00      	cmp	r3, #0
 8000e96:	d1ee      	bne.n	8000e76 <HAL_RCC_OscConfig+0x3aa>
        }
      }
    }

    /* Require to disable power clock if necessary */
    if (pwrclkchanged == SET)
 8000e98:	7dfb      	ldrb	r3, [r7, #23]
 8000e9a:	2b01      	cmp	r3, #1
 8000e9c:	d105      	bne.n	8000eaa <HAL_RCC_OscConfig+0x3de>
    {
      __HAL_RCC_PWR_CLK_DISABLE();
 8000e9e:	4b48      	ldr	r3, [pc, #288]	; (8000fc0 <HAL_RCC_OscConfig+0x4f4>)
 8000ea0:	69db      	ldr	r3, [r3, #28]
 8000ea2:	4a47      	ldr	r2, [pc, #284]	; (8000fc0 <HAL_RCC_OscConfig+0x4f4>)
 8000ea4:	f023 5380 	bic.w	r3, r3, #268435456	; 0x10000000
 8000ea8:	61d3      	str	r3, [r2, #28]

#endif /* RCC_CR_PLL2ON */
  /*-------------------------------- PLL Configuration -----------------------*/
  /* Check the parameters */
  assert_param(IS_RCC_PLL(RCC_OscInitStruct->PLL.PLLState));
  if ((RCC_OscInitStruct->PLL.PLLState) != RCC_PLL_NONE)
 8000eaa:	687b      	ldr	r3, [r7, #4]
 8000eac:	69db      	ldr	r3, [r3, #28]
 8000eae:	2b00      	cmp	r3, #0
 8000eb0:	f000 8081 	beq.w	8000fb6 <HAL_RCC_OscConfig+0x4ea>
  {
    /* Check if the PLL is used as system clock or not */
    if (__HAL_RCC_GET_SYSCLK_SOURCE() != RCC_SYSCLKSOURCE_STATUS_PLLCLK)
 8000eb4:	4b42      	ldr	r3, [pc, #264]	; (8000fc0 <HAL_RCC_OscConfig+0x4f4>)
 8000eb6:	685b      	ldr	r3, [r3, #4]
 8000eb8:	f003 030c 	and.w	r3, r3, #12
 8000ebc:	2b08      	cmp	r3, #8
 8000ebe:	d061      	beq.n	8000f84 <HAL_RCC_OscConfig+0x4b8>
    {
      if ((RCC_OscInitStruct->PLL.PLLState) == RCC_PLL_ON)
 8000ec0:	687b      	ldr	r3, [r7, #4]
 8000ec2:	69db      	ldr	r3, [r3, #28]
 8000ec4:	2b02      	cmp	r3, #2
 8000ec6:	d146      	bne.n	8000f56 <HAL_RCC_OscConfig+0x48a>
        /* Check the parameters */
        assert_param(IS_RCC_PLLSOURCE(RCC_OscInitStruct->PLL.PLLSource));
        assert_param(IS_RCC_PLL_MUL(RCC_OscInitStruct->PLL.PLLMUL));

        /* Disable the main PLL. */
        __HAL_RCC_PLL_DISABLE();
 8000ec8:	4b3f      	ldr	r3, [pc, #252]	; (8000fc8 <HAL_RCC_OscConfig+0x4fc>)
 8000eca:	2200      	movs	r2, #0
 8000ecc:	601a      	str	r2, [r3, #0]

        /* Get Start Tick */
        tickstart = HAL_GetTick();
 8000ece:	f7ff fb87 	bl	80005e0 <HAL_GetTick>
 8000ed2:	6138      	str	r0, [r7, #16]

        /* Wait till PLL is disabled */
        while (__HAL_RCC_GET_FLAG(RCC_FLAG_PLLRDY)  != RESET)
 8000ed4:	e008      	b.n	8000ee8 <HAL_RCC_OscConfig+0x41c>
        {
          if ((HAL_GetTick() - tickstart) > PLL_TIMEOUT_VALUE)
 8000ed6:	f7ff fb83 	bl	80005e0 <HAL_GetTick>
 8000eda:	4602      	mov	r2, r0
 8000edc:	693b      	ldr	r3, [r7, #16]
 8000ede:	1ad3      	subs	r3, r2, r3
 8000ee0:	2b02      	cmp	r3, #2
 8000ee2:	d901      	bls.n	8000ee8 <HAL_RCC_OscConfig+0x41c>
          {
            return HAL_TIMEOUT;
 8000ee4:	2303      	movs	r3, #3
 8000ee6:	e067      	b.n	8000fb8 <HAL_RCC_OscConfig+0x4ec>
        while (__HAL_RCC_GET_FLAG(RCC_FLAG_PLLRDY)  != RESET)
 8000ee8:	4b35      	ldr	r3, [pc, #212]	; (8000fc0 <HAL_RCC_OscConfig+0x4f4>)
 8000eea:	681b      	ldr	r3, [r3, #0]
 8000eec:	f003 7300 	and.w	r3, r3, #33554432	; 0x2000000
 8000ef0:	2b00      	cmp	r3, #0
 8000ef2:	d1f0      	bne.n	8000ed6 <HAL_RCC_OscConfig+0x40a>
          }
        }

        /* Configure the HSE prediv factor --------------------------------*/
        /* It can be written only when the PLL is disabled. Not used in PLL source is different than HSE */
        if (RCC_OscInitStruct->PLL.PLLSource == RCC_PLLSOURCE_HSE)
 8000ef4:	687b      	ldr	r3, [r7, #4]
 8000ef6:	6a1b      	ldr	r3, [r3, #32]
 8000ef8:	f5b3 3f80 	cmp.w	r3, #65536	; 0x10000
 8000efc:	d108      	bne.n	8000f10 <HAL_RCC_OscConfig+0x444>
          /* Set PREDIV1 source */
          SET_BIT(RCC->CFGR2, RCC_OscInitStruct->Prediv1Source);
#endif /* RCC_CFGR2_PREDIV1SRC */

          /* Set PREDIV1 Value */
          __HAL_RCC_HSE_PREDIV_CONFIG(RCC_OscInitStruct->HSEPredivValue);
 8000efe:	4b30      	ldr	r3, [pc, #192]	; (8000fc0 <HAL_RCC_OscConfig+0x4f4>)
 8000f00:	685b      	ldr	r3, [r3, #4]
 8000f02:	f423 3200 	bic.w	r2, r3, #131072	; 0x20000
 8000f06:	687b      	ldr	r3, [r7, #4]
 8000f08:	689b      	ldr	r3, [r3, #8]
 8000f0a:	492d      	ldr	r1, [pc, #180]	; (8000fc0 <HAL_RCC_OscConfig+0x4f4>)
 8000f0c:	4313      	orrs	r3, r2
 8000f0e:	604b      	str	r3, [r1, #4]
        }

        /* Configure the main PLL clock source and multiplication factors. */
        __HAL_RCC_PLL_CONFIG(RCC_OscInitStruct->PLL.PLLSource,
 8000f10:	4b2b      	ldr	r3, [pc, #172]	; (8000fc0 <HAL_RCC_OscConfig+0x4f4>)
 8000f12:	685b      	ldr	r3, [r3, #4]
 8000f14:	f423 1274 	bic.w	r2, r3, #3997696	; 0x3d0000
 8000f18:	687b      	ldr	r3, [r7, #4]
 8000f1a:	6a19      	ldr	r1, [r3, #32]
 8000f1c:	687b      	ldr	r3, [r7, #4]
 8000f1e:	6a5b      	ldr	r3, [r3, #36]	; 0x24
 8000f20:	430b      	orrs	r3, r1
 8000f22:	4927      	ldr	r1, [pc, #156]	; (8000fc0 <HAL_RCC_OscConfig+0x4f4>)
 8000f24:	4313      	orrs	r3, r2
 8000f26:	604b      	str	r3, [r1, #4]
                             RCC_OscInitStruct->PLL.PLLMUL);
        /* Enable the main PLL. */
        __HAL_RCC_PLL_ENABLE();
 8000f28:	4b27      	ldr	r3, [pc, #156]	; (8000fc8 <HAL_RCC_OscConfig+0x4fc>)
 8000f2a:	2201      	movs	r2, #1
 8000f2c:	601a      	str	r2, [r3, #0]

        /* Get Start Tick */
        tickstart = HAL_GetTick();
 8000f2e:	f7ff fb57 	bl	80005e0 <HAL_GetTick>
 8000f32:	6138      	str	r0, [r7, #16]

        /* Wait till PLL is ready */
        while (__HAL_RCC_GET_FLAG(RCC_FLAG_PLLRDY)  == RESET)
 8000f34:	e008      	b.n	8000f48 <HAL_RCC_OscConfig+0x47c>
        {
          if ((HAL_GetTick() - tickstart) > PLL_TIMEOUT_VALUE)
 8000f36:	f7ff fb53 	bl	80005e0 <HAL_GetTick>
 8000f3a:	4602      	mov	r2, r0
 8000f3c:	693b      	ldr	r3, [r7, #16]
 8000f3e:	1ad3      	subs	r3, r2, r3
 8000f40:	2b02      	cmp	r3, #2
 8000f42:	d901      	bls.n	8000f48 <HAL_RCC_OscConfig+0x47c>
          {
            return HAL_TIMEOUT;
 8000f44:	2303      	movs	r3, #3
 8000f46:	e037      	b.n	8000fb8 <HAL_RCC_OscConfig+0x4ec>
        while (__HAL_RCC_GET_FLAG(RCC_FLAG_PLLRDY)  == RESET)
 8000f48:	4b1d      	ldr	r3, [pc, #116]	; (8000fc0 <HAL_RCC_OscConfig+0x4f4>)
 8000f4a:	681b      	ldr	r3, [r3, #0]
 8000f4c:	f003 7300 	and.w	r3, r3, #33554432	; 0x2000000
 8000f50:	2b00      	cmp	r3, #0
 8000f52:	d0f0      	beq.n	8000f36 <HAL_RCC_OscConfig+0x46a>
 8000f54:	e02f      	b.n	8000fb6 <HAL_RCC_OscConfig+0x4ea>
        }
      }
      else
      {
        /* Disable the main PLL. */
        __HAL_RCC_PLL_DISABLE();
 8000f56:	4b1c      	ldr	r3, [pc, #112]	; (8000fc8 <HAL_RCC_OscConfig+0x4fc>)
 8000f58:	2200      	movs	r2, #0
 8000f5a:	601a      	str	r2, [r3, #0]

        /* Get Start Tick */
        tickstart = HAL_GetTick();
 8000f5c:	f7ff fb40 	bl	80005e0 <HAL_GetTick>
 8000f60:	6138      	str	r0, [r7, #16]

        /* Wait till PLL is disabled */
        while (__HAL_RCC_GET_FLAG(RCC_FLAG_PLLRDY)  != RESET)
 8000f62:	e008      	b.n	8000f76 <HAL_RCC_OscConfig+0x4aa>
        {
          if ((HAL_GetTick() - tickstart) > PLL_TIMEOUT_VALUE)
 8000f64:	f7ff fb3c 	bl	80005e0 <HAL_GetTick>
 8000f68:	4602      	mov	r2, r0
 8000f6a:	693b      	ldr	r3, [r7, #16]
 8000f6c:	1ad3      	subs	r3, r2, r3
 8000f6e:	2b02      	cmp	r3, #2
 8000f70:	d901      	bls.n	8000f76 <HAL_RCC_OscConfig+0x4aa>
          {
            return HAL_TIMEOUT;
 8000f72:	2303      	movs	r3, #3
 8000f74:	e020      	b.n	8000fb8 <HAL_RCC_OscConfig+0x4ec>
        while (__HAL_RCC_GET_FLAG(RCC_FLAG_PLLRDY)  != RESET)
 8000f76:	4b12      	ldr	r3, [pc, #72]	; (8000fc0 <HAL_RCC_OscConfig+0x4f4>)
 8000f78:	681b      	ldr	r3, [r3, #0]
 8000f7a:	f003 7300 	and.w	r3, r3, #33554432	; 0x2000000
 8000f7e:	2b00      	cmp	r3, #0
 8000f80:	d1f0      	bne.n	8000f64 <HAL_RCC_OscConfig+0x498>
 8000f82:	e018      	b.n	8000fb6 <HAL_RCC_OscConfig+0x4ea>
      }
    }
    else
    {
      /* Check if there is a request to disable the PLL used as System clock source */
      if ((RCC_OscInitStruct->PLL.PLLState) == RCC_PLL_OFF)
 8000f84:	687b      	ldr	r3, [r7, #4]
 8000f86:	69db      	ldr	r3, [r3, #28]
 8000f88:	2b01      	cmp	r3, #1
 8000f8a:	d101      	bne.n	8000f90 <HAL_RCC_OscConfig+0x4c4>
      {
        return HAL_ERROR;
 8000f8c:	2301      	movs	r3, #1
 8000f8e:	e013      	b.n	8000fb8 <HAL_RCC_OscConfig+0x4ec>
      }
      else
      {
        /* Do not return HAL_ERROR if request repeats the current configuration */
        pll_config = RCC->CFGR;
 8000f90:	4b0b      	ldr	r3, [pc, #44]	; (8000fc0 <HAL_RCC_OscConfig+0x4f4>)
 8000f92:	685b      	ldr	r3, [r3, #4]
 8000f94:	60fb      	str	r3, [r7, #12]
        if ((READ_BIT(pll_config, RCC_CFGR_PLLSRC) != RCC_OscInitStruct->PLL.PLLSource) ||
 8000f96:	68fb      	ldr	r3, [r7, #12]
 8000f98:	f403 3280 	and.w	r2, r3, #65536	; 0x10000
 8000f9c:	687b      	ldr	r3, [r7, #4]
 8000f9e:	6a1b      	ldr	r3, [r3, #32]
 8000fa0:	429a      	cmp	r2, r3
 8000fa2:	d106      	bne.n	8000fb2 <HAL_RCC_OscConfig+0x4e6>
            (READ_BIT(pll_config, RCC_CFGR_PLLMULL) != RCC_OscInitStruct->PLL.PLLMUL))
 8000fa4:	68fb      	ldr	r3, [r7, #12]
 8000fa6:	f403 1270 	and.w	r2, r3, #3932160	; 0x3c0000
 8000faa:	687b      	ldr	r3, [r7, #4]
 8000fac:	6a5b      	ldr	r3, [r3, #36]	; 0x24
        if ((READ_BIT(pll_config, RCC_CFGR_PLLSRC) != RCC_OscInitStruct->PLL.PLLSource) ||
 8000fae:	429a      	cmp	r2, r3
 8000fb0:	d001      	beq.n	8000fb6 <HAL_RCC_OscConfig+0x4ea>
        {
          return HAL_ERROR;
 8000fb2:	2301      	movs	r3, #1
 8000fb4:	e000      	b.n	8000fb8 <HAL_RCC_OscConfig+0x4ec>
        }
      }
    }
  }

  return HAL_OK;
 8000fb6:	2300      	movs	r3, #0
}
 8000fb8:	4618      	mov	r0, r3
 8000fba:	3718      	adds	r7, #24
 8000fbc:	46bd      	mov	sp, r7
 8000fbe:	bd80      	pop	{r7, pc}
 8000fc0:	40021000 	.word	0x40021000
 8000fc4:	40007000 	.word	0x40007000
 8000fc8:	42420060 	.word	0x42420060

08000fcc <HAL_RCC_ClockConfig>:
  *         You can use @ref HAL_RCC_GetClockConfig() function to know which clock is
  *         currently used as system clock source.
  * @retval HAL status
  */
HAL_StatusTypeDef HAL_RCC_ClockConfig(RCC_ClkInitTypeDef  *RCC_ClkInitStruct, uint32_t FLatency)
{
 8000fcc:	b580      	push	{r7, lr}
 8000fce:	b084      	sub	sp, #16
 8000fd0:	af00      	add	r7, sp, #0
 8000fd2:	6078      	str	r0, [r7, #4]
 8000fd4:	6039      	str	r1, [r7, #0]
  uint32_t tickstart;

  /* Check Null pointer */
  if (RCC_ClkInitStruct == NULL)
 8000fd6:	687b      	ldr	r3, [r7, #4]
 8000fd8:	2b00      	cmp	r3, #0
 8000fda:	d101      	bne.n	8000fe0 <HAL_RCC_ClockConfig+0x14>
  {
    return HAL_ERROR;
 8000fdc:	2301      	movs	r3, #1
 8000fde:	e0d0      	b.n	8001182 <HAL_RCC_ClockConfig+0x1b6>
  must be correctly programmed according to the frequency of the CPU clock
    (HCLK) of the device. */

#if defined(FLASH_ACR_LATENCY)
  /* Increasing the number of wait states because of higher CPU frequency */
  if (FLatency > __HAL_FLASH_GET_LATENCY())
 8000fe0:	4b6a      	ldr	r3, [pc, #424]	; (800118c <HAL_RCC_ClockConfig+0x1c0>)
 8000fe2:	681b      	ldr	r3, [r3, #0]
 8000fe4:	f003 0307 	and.w	r3, r3, #7
 8000fe8:	683a      	ldr	r2, [r7, #0]
 8000fea:	429a      	cmp	r2, r3
 8000fec:	d910      	bls.n	8001010 <HAL_RCC_ClockConfig+0x44>
  {
    /* Program the new number of wait states to the LATENCY bits in the FLASH_ACR register */
    __HAL_FLASH_SET_LATENCY(FLatency);
 8000fee:	4b67      	ldr	r3, [pc, #412]	; (800118c <HAL_RCC_ClockConfig+0x1c0>)
 8000ff0:	681b      	ldr	r3, [r3, #0]
 8000ff2:	f023 0207 	bic.w	r2, r3, #7
 8000ff6:	4965      	ldr	r1, [pc, #404]	; (800118c <HAL_RCC_ClockConfig+0x1c0>)
 8000ff8:	683b      	ldr	r3, [r7, #0]
 8000ffa:	4313      	orrs	r3, r2
 8000ffc:	600b      	str	r3, [r1, #0]

    /* Check that the new number of wait states is taken into account to access the Flash
    memory by reading the FLASH_ACR register */
    if (__HAL_FLASH_GET_LATENCY() != FLatency)
 8000ffe:	4b63      	ldr	r3, [pc, #396]	; (800118c <HAL_RCC_ClockConfig+0x1c0>)
 8001000:	681b      	ldr	r3, [r3, #0]
 8001002:	f003 0307 	and.w	r3, r3, #7
 8001006:	683a      	ldr	r2, [r7, #0]
 8001008:	429a      	cmp	r2, r3
 800100a:	d001      	beq.n	8001010 <HAL_RCC_ClockConfig+0x44>
  {
    return HAL_ERROR;
 800100c:	2301      	movs	r3, #1
 800100e:	e0b8      	b.n	8001182 <HAL_RCC_ClockConfig+0x1b6>
  }
}

#endif /* FLASH_ACR_LATENCY */
/*-------------------------- HCLK Configuration --------------------------*/
if (((RCC_ClkInitStruct->ClockType) & RCC_CLOCKTYPE_HCLK) == RCC_CLOCKTYPE_HCLK)
 8001010:	687b      	ldr	r3, [r7, #4]
 8001012:	681b      	ldr	r3, [r3, #0]
 8001014:	f003 0302 	and.w	r3, r3, #2
 8001018:	2b00      	cmp	r3, #0
 800101a:	d020      	beq.n	800105e <HAL_RCC_ClockConfig+0x92>
  {
    /* Set the highest APBx dividers in order to ensure that we do not go through
    a non-spec phase whatever we decrease or increase HCLK. */
    if (((RCC_ClkInitStruct->ClockType) & RCC_CLOCKTYPE_PCLK1) == RCC_CLOCKTYPE_PCLK1)
 800101c:	687b      	ldr	r3, [r7, #4]
 800101e:	681b      	ldr	r3, [r3, #0]
 8001020:	f003 0304 	and.w	r3, r3, #4
 8001024:	2b00      	cmp	r3, #0
 8001026:	d005      	beq.n	8001034 <HAL_RCC_ClockConfig+0x68>
    {
      MODIFY_REG(RCC->CFGR, RCC_CFGR_PPRE1, RCC_HCLK_DIV16);
 8001028:	4b59      	ldr	r3, [pc, #356]	; (8001190 <HAL_RCC_ClockConfig+0x1c4>)
 800102a:	685b      	ldr	r3, [r3, #4]
 800102c:	4a58      	ldr	r2, [pc, #352]	; (8001190 <HAL_RCC_ClockConfig+0x1c4>)
 800102e:	f443 63e0 	orr.w	r3, r3, #1792	; 0x700
 8001032:	6053      	str	r3, [r2, #4]
    }

    if (((RCC_ClkInitStruct->ClockType) & RCC_CLOCKTYPE_PCLK2) == RCC_CLOCKTYPE_PCLK2)
 8001034:	687b      	ldr	r3, [r7, #4]
 8001036:	681b      	ldr	r3, [r3, #0]
 8001038:	f003 0308 	and.w	r3, r3, #8
 800103c:	2b00      	cmp	r3, #0
 800103e:	d005      	beq.n	800104c <HAL_RCC_ClockConfig+0x80>
    {
      MODIFY_REG(RCC->CFGR, RCC_CFGR_PPRE2, (RCC_HCLK_DIV16 << 3));
 8001040:	4b53      	ldr	r3, [pc, #332]	; (8001190 <HAL_RCC_ClockConfig+0x1c4>)
 8001042:	685b      	ldr	r3, [r3, #4]
 8001044:	4a52      	ldr	r2, [pc, #328]	; (8001190 <HAL_RCC_ClockConfig+0x1c4>)
 8001046:	f443 5360 	orr.w	r3, r3, #14336	; 0x3800
 800104a:	6053      	str	r3, [r2, #4]
    }

    /* Set the new HCLK clock divider */
    assert_param(IS_RCC_HCLK(RCC_ClkInitStruct->AHBCLKDivider));
    MODIFY_REG(RCC->CFGR, RCC_CFGR_HPRE, RCC_ClkInitStruct->AHBCLKDivider);
 800104c:	4b50      	ldr	r3, [pc, #320]	; (8001190 <HAL_RCC_ClockConfig+0x1c4>)
 800104e:	685b      	ldr	r3, [r3, #4]
 8001050:	f023 02f0 	bic.w	r2, r3, #240	; 0xf0
 8001054:	687b      	ldr	r3, [r7, #4]
 8001056:	689b      	ldr	r3, [r3, #8]
 8001058:	494d      	ldr	r1, [pc, #308]	; (8001190 <HAL_RCC_ClockConfig+0x1c4>)
 800105a:	4313      	orrs	r3, r2
 800105c:	604b      	str	r3, [r1, #4]
  }

  /*------------------------- SYSCLK Configuration ---------------------------*/
  if (((RCC_ClkInitStruct->ClockType) & RCC_CLOCKTYPE_SYSCLK) == RCC_CLOCKTYPE_SYSCLK)
 800105e:	687b      	ldr	r3, [r7, #4]
 8001060:	681b      	ldr	r3, [r3, #0]
 8001062:	f003 0301 	and.w	r3, r3, #1
 8001066:	2b00      	cmp	r3, #0
 8001068:	d040      	beq.n	80010ec <HAL_RCC_ClockConfig+0x120>
  {
    assert_param(IS_RCC_SYSCLKSOURCE(RCC_ClkInitStruct->SYSCLKSource));

    /* HSE is selected as System Clock Source */
    if (RCC_ClkInitStruct->SYSCLKSource == RCC_SYSCLKSOURCE_HSE)
 800106a:	687b      	ldr	r3, [r7, #4]
 800106c:	685b      	ldr	r3, [r3, #4]
 800106e:	2b01      	cmp	r3, #1
 8001070:	d107      	bne.n	8001082 <HAL_RCC_ClockConfig+0xb6>
    {
      /* Check the HSE ready flag */
      if (__HAL_RCC_GET_FLAG(RCC_FLAG_HSERDY) == RESET)
 8001072:	4b47      	ldr	r3, [pc, #284]	; (8001190 <HAL_RCC_ClockConfig+0x1c4>)
 8001074:	681b      	ldr	r3, [r3, #0]
 8001076:	f403 3300 	and.w	r3, r3, #131072	; 0x20000
 800107a:	2b00      	cmp	r3, #0
 800107c:	d115      	bne.n	80010aa <HAL_RCC_ClockConfig+0xde>
      {
        return HAL_ERROR;
 800107e:	2301      	movs	r3, #1
 8001080:	e07f      	b.n	8001182 <HAL_RCC_ClockConfig+0x1b6>
      }
    }
    /* PLL is selected as System Clock Source */
    else if (RCC_ClkInitStruct->SYSCLKSource == RCC_SYSCLKSOURCE_PLLCLK)
 8001082:	687b      	ldr	r3, [r7, #4]
 8001084:	685b      	ldr	r3, [r3, #4]
 8001086:	2b02      	cmp	r3, #2
 8001088:	d107      	bne.n	800109a <HAL_RCC_ClockConfig+0xce>
    {
      /* Check the PLL ready flag */
      if (__HAL_RCC_GET_FLAG(RCC_FLAG_PLLRDY) == RESET)
 800108a:	4b41      	ldr	r3, [pc, #260]	; (8001190 <HAL_RCC_ClockConfig+0x1c4>)
 800108c:	681b      	ldr	r3, [r3, #0]
 800108e:	f003 7300 	and.w	r3, r3, #33554432	; 0x2000000
 8001092:	2b00      	cmp	r3, #0
 8001094:	d109      	bne.n	80010aa <HAL_RCC_ClockConfig+0xde>
      {
        return HAL_ERROR;
 8001096:	2301      	movs	r3, #1
 8001098:	e073      	b.n	8001182 <HAL_RCC_ClockConfig+0x1b6>
    }
    /* HSI is selected as System Clock Source */
    else
    {
      /* Check the HSI ready flag */
      if (__HAL_RCC_GET_FLAG(RCC_FLAG_HSIRDY) == RESET)
 800109a:	4b3d      	ldr	r3, [pc, #244]	; (8001190 <HAL_RCC_ClockConfig+0x1c4>)
 800109c:	681b      	ldr	r3, [r3, #0]
 800109e:	f003 0302 	and.w	r3, r3, #2
 80010a2:	2b00      	cmp	r3, #0
 80010a4:	d101      	bne.n	80010aa <HAL_RCC_ClockConfig+0xde>
      {
        return HAL_ERROR;
 80010a6:	2301      	movs	r3, #1
 80010a8:	e06b      	b.n	8001182 <HAL_RCC_ClockConfig+0x1b6>
      }
    }
    __HAL_RCC_SYSCLK_CONFIG(RCC_ClkInitStruct->SYSCLKSource);
 80010aa:	4b39      	ldr	r3, [pc, #228]	; (8001190 <HAL_RCC_ClockConfig+0x1c4>)
 80010ac:	685b      	ldr	r3, [r3, #4]
 80010ae:	f023 0203 	bic.w	r2, r3, #3
 80010b2:	687b      	ldr	r3, [r7, #4]
 80010b4:	685b      	ldr	r3, [r3, #4]
 80010b6:	4936      	ldr	r1, [pc, #216]	; (8001190 <HAL_RCC_ClockConfig+0x1c4>)
 80010b8:	4313      	orrs	r3, r2
 80010ba:	604b      	str	r3, [r1, #4]

    /* Get Start Tick */
    tickstart = HAL_GetTick();
 80010bc:	f7ff fa90 	bl	80005e0 <HAL_GetTick>
 80010c0:	60f8      	str	r0, [r7, #12]

    while (__HAL_RCC_GET_SYSCLK_SOURCE() != (RCC_ClkInitStruct->SYSCLKSource << RCC_CFGR_SWS_Pos))
 80010c2:	e00a      	b.n	80010da <HAL_RCC_ClockConfig+0x10e>
    {
      if ((HAL_GetTick() - tickstart) > CLOCKSWITCH_TIMEOUT_VALUE)
 80010c4:	f7ff fa8c 	bl	80005e0 <HAL_GetTick>
 80010c8:	4602      	mov	r2, r0
 80010ca:	68fb      	ldr	r3, [r7, #12]
 80010cc:	1ad3      	subs	r3, r2, r3
 80010ce:	f241 3288 	movw	r2, #5000	; 0x1388
 80010d2:	4293      	cmp	r3, r2
 80010d4:	d901      	bls.n	80010da <HAL_RCC_ClockConfig+0x10e>
      {
        return HAL_TIMEOUT;
 80010d6:	2303      	movs	r3, #3
 80010d8:	e053      	b.n	8001182 <HAL_RCC_ClockConfig+0x1b6>
    while (__HAL_RCC_GET_SYSCLK_SOURCE() != (RCC_ClkInitStruct->SYSCLKSource << RCC_CFGR_SWS_Pos))
 80010da:	4b2d      	ldr	r3, [pc, #180]	; (8001190 <HAL_RCC_ClockConfig+0x1c4>)
 80010dc:	685b      	ldr	r3, [r3, #4]
 80010de:	f003 020c 	and.w	r2, r3, #12
 80010e2:	687b      	ldr	r3, [r7, #4]
 80010e4:	685b      	ldr	r3, [r3, #4]
 80010e6:	009b      	lsls	r3, r3, #2
 80010e8:	429a      	cmp	r2, r3
 80010ea:	d1eb      	bne.n	80010c4 <HAL_RCC_ClockConfig+0xf8>
    }
  }

#if defined(FLASH_ACR_LATENCY)
  /* Decreasing the number of wait states because of lower CPU frequency */
  if (FLatency < __HAL_FLASH_GET_LATENCY())
 80010ec:	4b27      	ldr	r3, [pc, #156]	; (800118c <HAL_RCC_ClockConfig+0x1c0>)
 80010ee:	681b      	ldr	r3, [r3, #0]
 80010f0:	f003 0307 	and.w	r3, r3, #7
 80010f4:	683a      	ldr	r2, [r7, #0]
 80010f6:	429a      	cmp	r2, r3
 80010f8:	d210      	bcs.n	800111c <HAL_RCC_ClockConfig+0x150>
  {
    /* Program the new number of wait states to the LATENCY bits in the FLASH_ACR register */
    __HAL_FLASH_SET_LATENCY(FLatency);
 80010fa:	4b24      	ldr	r3, [pc, #144]	; (800118c <HAL_RCC_ClockConfig+0x1c0>)
 80010fc:	681b      	ldr	r3, [r3, #0]
 80010fe:	f023 0207 	bic.w	r2, r3, #7
 8001102:	4922      	ldr	r1, [pc, #136]	; (800118c <HAL_RCC_ClockConfig+0x1c0>)
 8001104:	683b      	ldr	r3, [r7, #0]
 8001106:	4313      	orrs	r3, r2
 8001108:	600b      	str	r3, [r1, #0]

    /* Check that the new number of wait states is taken into account to access the Flash
    memory by reading the FLASH_ACR register */
    if (__HAL_FLASH_GET_LATENCY() != FLatency)
 800110a:	4b20      	ldr	r3, [pc, #128]	; (800118c <HAL_RCC_ClockConfig+0x1c0>)
 800110c:	681b      	ldr	r3, [r3, #0]
 800110e:	f003 0307 	and.w	r3, r3, #7
 8001112:	683a      	ldr	r2, [r7, #0]
 8001114:	429a      	cmp	r2, r3
 8001116:	d001      	beq.n	800111c <HAL_RCC_ClockConfig+0x150>
  {
    return HAL_ERROR;
 8001118:	2301      	movs	r3, #1
 800111a:	e032      	b.n	8001182 <HAL_RCC_ClockConfig+0x1b6>
  }
}
#endif /* FLASH_ACR_LATENCY */

/*-------------------------- PCLK1 Configuration ---------------------------*/
if (((RCC_ClkInitStruct->ClockType) & RCC_CLOCKTYPE_PCLK1) == RCC_CLOCKTYPE_PCLK1)
 800111c:	687b      	ldr	r3, [r7, #4]
 800111e:	681b      	ldr	r3, [r3, #0]
 8001120:	f003 0304 	and.w	r3, r3, #4
 8001124:	2b00      	cmp	r3, #0
 8001126:	d008      	beq.n	800113a <HAL_RCC_ClockConfig+0x16e>
  {
    assert_param(IS_RCC_PCLK(RCC_ClkInitStruct->APB1CLKDivider));
    MODIFY_REG(RCC->CFGR, RCC_CFGR_PPRE1, RCC_ClkInitStruct->APB1CLKDivider);
 8001128:	4b19      	ldr	r3, [pc, #100]	; (8001190 <HAL_RCC_ClockConfig+0x1c4>)
 800112a:	685b      	ldr	r3, [r3, #4]
 800112c:	f423 62e0 	bic.w	r2, r3, #1792	; 0x700
 8001130:	687b      	ldr	r3, [r7, #4]
 8001132:	68db      	ldr	r3, [r3, #12]
 8001134:	4916      	ldr	r1, [pc, #88]	; (8001190 <HAL_RCC_ClockConfig+0x1c4>)
 8001136:	4313      	orrs	r3, r2
 8001138:	604b      	str	r3, [r1, #4]
  }

  /*-------------------------- PCLK2 Configuration ---------------------------*/
  if (((RCC_ClkInitStruct->ClockType) & RCC_CLOCKTYPE_PCLK2) == RCC_CLOCKTYPE_PCLK2)
 800113a:	687b      	ldr	r3, [r7, #4]
 800113c:	681b      	ldr	r3, [r3, #0]
 800113e:	f003 0308 	and.w	r3, r3, #8
 8001142:	2b00      	cmp	r3, #0
 8001144:	d009      	beq.n	800115a <HAL_RCC_ClockConfig+0x18e>
  {
    assert_param(IS_RCC_PCLK(RCC_ClkInitStruct->APB2CLKDivider));
    MODIFY_REG(RCC->CFGR, RCC_CFGR_PPRE2, ((RCC_ClkInitStruct->APB2CLKDivider) << 3));
 8001146:	4b12      	ldr	r3, [pc, #72]	; (8001190 <HAL_RCC_ClockConfig+0x1c4>)
 8001148:	685b      	ldr	r3, [r3, #4]
 800114a:	f423 5260 	bic.w	r2, r3, #14336	; 0x3800
 800114e:	687b      	ldr	r3, [r7, #4]
 8001150:	691b      	ldr	r3, [r3, #16]
 8001152:	00db      	lsls	r3, r3, #3
 8001154:	490e      	ldr	r1, [pc, #56]	; (8001190 <HAL_RCC_ClockConfig+0x1c4>)
 8001156:	4313      	orrs	r3, r2
 8001158:	604b      	str	r3, [r1, #4]
  }

  /* Update the SystemCoreClock global variable */
  SystemCoreClock = HAL_RCC_GetSysClockFreq() >> AHBPrescTable[(RCC->CFGR & RCC_CFGR_HPRE) >> RCC_CFGR_HPRE_Pos];
 800115a:	f000 f821 	bl	80011a0 <HAL_RCC_GetSysClockFreq>
 800115e:	4601      	mov	r1, r0
 8001160:	4b0b      	ldr	r3, [pc, #44]	; (8001190 <HAL_RCC_ClockConfig+0x1c4>)
 8001162:	685b      	ldr	r3, [r3, #4]
 8001164:	091b      	lsrs	r3, r3, #4
 8001166:	f003 030f 	and.w	r3, r3, #15
 800116a:	4a0a      	ldr	r2, [pc, #40]	; (8001194 <HAL_RCC_ClockConfig+0x1c8>)
 800116c:	5cd3      	ldrb	r3, [r2, r3]
 800116e:	fa21 f303 	lsr.w	r3, r1, r3
 8001172:	4a09      	ldr	r2, [pc, #36]	; (8001198 <HAL_RCC_ClockConfig+0x1cc>)
 8001174:	6013      	str	r3, [r2, #0]

  /* Configure the source of time base considering new system clocks settings*/
  HAL_InitTick(uwTickPrio);
 8001176:	4b09      	ldr	r3, [pc, #36]	; (800119c <HAL_RCC_ClockConfig+0x1d0>)
 8001178:	681b      	ldr	r3, [r3, #0]
 800117a:	4618      	mov	r0, r3
 800117c:	f7ff f964 	bl	8000448 <HAL_InitTick>

  return HAL_OK;
 8001180:	2300      	movs	r3, #0
}
 8001182:	4618      	mov	r0, r3
 8001184:	3710      	adds	r7, #16
 8001186:	46bd      	mov	sp, r7
 8001188:	bd80      	pop	{r7, pc}
 800118a:	bf00      	nop
 800118c:	40022000 	.word	0x40022000
 8001190:	40021000 	.word	0x40021000
 8001194:	08004110 	.word	0x08004110
 8001198:	20000000 	.word	0x20000000
 800119c:	20000004 	.word	0x20000004

080011a0 <HAL_RCC_GetSysClockFreq>:
  *         right SYSCLK value. Otherwise, any configuration based on this function will be incorrect.
  *
  * @retval SYSCLK frequency
  */
uint32_t HAL_RCC_GetSysClockFreq(void)
{
 80011a0:	b490      	push	{r4, r7}
 80011a2:	b08a      	sub	sp, #40	; 0x28
 80011a4:	af00      	add	r7, sp, #0
#if defined(RCC_CFGR2_PREDIV1SRC)
  const uint8_t aPLLMULFactorTable[14] = {0, 0, 4, 5, 6, 7, 8, 9, 0, 0, 0, 0, 0, 13};
  const uint8_t aPredivFactorTable[16] = {1, 2, 3, 4, 5, 6, 7, 8, 9, 10, 11, 12, 13, 14, 15, 16};
#else
  const uint8_t aPLLMULFactorTable[16] = {2, 3, 4, 5, 6, 7, 8, 9, 10, 11, 12, 13, 14, 15, 16, 16};
 80011a6:	4b2a      	ldr	r3, [pc, #168]	; (8001250 <HAL_RCC_GetSysClockFreq+0xb0>)
 80011a8:	1d3c      	adds	r4, r7, #4
 80011aa:	cb0f      	ldmia	r3, {r0, r1, r2, r3}
 80011ac:	e884 000f 	stmia.w	r4, {r0, r1, r2, r3}
#if defined(RCC_CFGR2_PREDIV1)
  const uint8_t aPredivFactorTable[16] = {1, 2, 3, 4, 5, 6, 7, 8, 9, 10, 11, 12, 13, 14, 15, 16};
#else
  const uint8_t aPredivFactorTable[2] = {1, 2};
 80011b0:	4b28      	ldr	r3, [pc, #160]	; (8001254 <HAL_RCC_GetSysClockFreq+0xb4>)
 80011b2:	881b      	ldrh	r3, [r3, #0]
 80011b4:	803b      	strh	r3, [r7, #0]
#endif /*RCC_CFGR2_PREDIV1*/

#endif
  uint32_t tmpreg = 0U, prediv = 0U, pllclk = 0U, pllmul = 0U;
 80011b6:	2300      	movs	r3, #0
 80011b8:	61fb      	str	r3, [r7, #28]
 80011ba:	2300      	movs	r3, #0
 80011bc:	61bb      	str	r3, [r7, #24]
 80011be:	2300      	movs	r3, #0
 80011c0:	627b      	str	r3, [r7, #36]	; 0x24
 80011c2:	2300      	movs	r3, #0
 80011c4:	617b      	str	r3, [r7, #20]
  uint32_t sysclockfreq = 0U;
 80011c6:	2300      	movs	r3, #0
 80011c8:	623b      	str	r3, [r7, #32]
#if defined(RCC_CFGR2_PREDIV1SRC)
  uint32_t prediv2 = 0U, pll2mul = 0U;
#endif /*RCC_CFGR2_PREDIV1SRC*/

  tmpreg = RCC->CFGR;
 80011ca:	4b23      	ldr	r3, [pc, #140]	; (8001258 <HAL_RCC_GetSysClockFreq+0xb8>)
 80011cc:	685b      	ldr	r3, [r3, #4]
 80011ce:	61fb      	str	r3, [r7, #28]

  /* Get SYSCLK source -------------------------------------------------------*/
  switch (tmpreg & RCC_CFGR_SWS)
 80011d0:	69fb      	ldr	r3, [r7, #28]
 80011d2:	f003 030c 	and.w	r3, r3, #12
 80011d6:	2b04      	cmp	r3, #4
 80011d8:	d002      	beq.n	80011e0 <HAL_RCC_GetSysClockFreq+0x40>
 80011da:	2b08      	cmp	r3, #8
 80011dc:	d003      	beq.n	80011e6 <HAL_RCC_GetSysClockFreq+0x46>
 80011de:	e02d      	b.n	800123c <HAL_RCC_GetSysClockFreq+0x9c>
  {
    case RCC_SYSCLKSOURCE_STATUS_HSE:  /* HSE used as system clock */
    {
      sysclockfreq = HSE_VALUE;
 80011e0:	4b1e      	ldr	r3, [pc, #120]	; (800125c <HAL_RCC_GetSysClockFreq+0xbc>)
 80011e2:	623b      	str	r3, [r7, #32]
      break;
 80011e4:	e02d      	b.n	8001242 <HAL_RCC_GetSysClockFreq+0xa2>
    }
    case RCC_SYSCLKSOURCE_STATUS_PLLCLK:  /* PLL used as system clock */
    {
      pllmul = aPLLMULFactorTable[(uint32_t)(tmpreg & RCC_CFGR_PLLMULL) >> RCC_CFGR_PLLMULL_Pos];
 80011e6:	69fb      	ldr	r3, [r7, #28]
 80011e8:	0c9b      	lsrs	r3, r3, #18
 80011ea:	f003 030f 	and.w	r3, r3, #15
 80011ee:	f107 0228 	add.w	r2, r7, #40	; 0x28
 80011f2:	4413      	add	r3, r2
 80011f4:	f813 3c24 	ldrb.w	r3, [r3, #-36]
 80011f8:	617b      	str	r3, [r7, #20]
      if ((tmpreg & RCC_CFGR_PLLSRC) != RCC_PLLSOURCE_HSI_DIV2)
 80011fa:	69fb      	ldr	r3, [r7, #28]
 80011fc:	f403 3380 	and.w	r3, r3, #65536	; 0x10000
 8001200:	2b00      	cmp	r3, #0
 8001202:	d013      	beq.n	800122c <HAL_RCC_GetSysClockFreq+0x8c>
      {
#if defined(RCC_CFGR2_PREDIV1)
        prediv = aPredivFactorTable[(uint32_t)(RCC->CFGR2 & RCC_CFGR2_PREDIV1) >> RCC_CFGR2_PREDIV1_Pos];
#else
        prediv = aPredivFactorTable[(uint32_t)(RCC->CFGR & RCC_CFGR_PLLXTPRE) >> RCC_CFGR_PLLXTPRE_Pos];
 8001204:	4b14      	ldr	r3, [pc, #80]	; (8001258 <HAL_RCC_GetSysClockFreq+0xb8>)
 8001206:	685b      	ldr	r3, [r3, #4]
 8001208:	0c5b      	lsrs	r3, r3, #17
 800120a:	f003 0301 	and.w	r3, r3, #1
 800120e:	f107 0228 	add.w	r2, r7, #40	; 0x28
 8001212:	4413      	add	r3, r2
 8001214:	f813 3c28 	ldrb.w	r3, [r3, #-40]
 8001218:	61bb      	str	r3, [r7, #24]
        {
          pllclk = pllclk / 2;
        }
#else
        /* HSE used as PLL clock source : PLLCLK = HSE/PREDIV1 * PLLMUL */
        pllclk = (uint32_t)((HSE_VALUE  * pllmul) / prediv);
 800121a:	697b      	ldr	r3, [r7, #20]
 800121c:	4a0f      	ldr	r2, [pc, #60]	; (800125c <HAL_RCC_GetSysClockFreq+0xbc>)
 800121e:	fb02 f203 	mul.w	r2, r2, r3
 8001222:	69bb      	ldr	r3, [r7, #24]
 8001224:	fbb2 f3f3 	udiv	r3, r2, r3
 8001228:	627b      	str	r3, [r7, #36]	; 0x24
 800122a:	e004      	b.n	8001236 <HAL_RCC_GetSysClockFreq+0x96>
#endif /*RCC_CFGR2_PREDIV1SRC*/
      }
      else
      {
        /* HSI used as PLL clock source : PLLCLK = HSI/2 * PLLMUL */
        pllclk = (uint32_t)((HSI_VALUE >> 1) * pllmul);
 800122c:	697b      	ldr	r3, [r7, #20]
 800122e:	4a0c      	ldr	r2, [pc, #48]	; (8001260 <HAL_RCC_GetSysClockFreq+0xc0>)
 8001230:	fb02 f303 	mul.w	r3, r2, r3
 8001234:	627b      	str	r3, [r7, #36]	; 0x24
      }
      sysclockfreq = pllclk;
 8001236:	6a7b      	ldr	r3, [r7, #36]	; 0x24
 8001238:	623b      	str	r3, [r7, #32]
      break;
 800123a:	e002      	b.n	8001242 <HAL_RCC_GetSysClockFreq+0xa2>
    }
    case RCC_SYSCLKSOURCE_STATUS_HSI:  /* HSI used as system clock source */
    default: /* HSI used as system clock */
    {
      sysclockfreq = HSI_VALUE;
 800123c:	4b07      	ldr	r3, [pc, #28]	; (800125c <HAL_RCC_GetSysClockFreq+0xbc>)
 800123e:	623b      	str	r3, [r7, #32]
      break;
 8001240:	bf00      	nop
    }
  }
  return sysclockfreq;
 8001242:	6a3b      	ldr	r3, [r7, #32]
}
 8001244:	4618      	mov	r0, r3
 8001246:	3728      	adds	r7, #40	; 0x28
 8001248:	46bd      	mov	sp, r7
 800124a:	bc90      	pop	{r4, r7}
 800124c:	4770      	bx	lr
 800124e:	bf00      	nop
 8001250:	080040e4 	.word	0x080040e4
 8001254:	080040f4 	.word	0x080040f4
 8001258:	40021000 	.word	0x40021000
 800125c:	007a1200 	.word	0x007a1200
 8001260:	003d0900 	.word	0x003d0900

08001264 <HAL_RCC_GetHCLKFreq>:
  * @note   The SystemCoreClock CMSIS variable is used to store System Clock Frequency
  *         and updated within this function
  * @retval HCLK frequency
  */
uint32_t HAL_RCC_GetHCLKFreq(void)
{
 8001264:	b480      	push	{r7}
 8001266:	af00      	add	r7, sp, #0
  return SystemCoreClock;
 8001268:	4b02      	ldr	r3, [pc, #8]	; (8001274 <HAL_RCC_GetHCLKFreq+0x10>)
 800126a:	681b      	ldr	r3, [r3, #0]
}
 800126c:	4618      	mov	r0, r3
 800126e:	46bd      	mov	sp, r7
 8001270:	bc80      	pop	{r7}
 8001272:	4770      	bx	lr
 8001274:	20000000 	.word	0x20000000

08001278 <HAL_RCC_GetPCLK1Freq>:
  * @note   Each time PCLK1 changes, this function must be called to update the
  *         right PCLK1 value. Otherwise, any configuration based on this function will be incorrect.
  * @retval PCLK1 frequency
  */
uint32_t HAL_RCC_GetPCLK1Freq(void)
{
 8001278:	b580      	push	{r7, lr}
 800127a:	af00      	add	r7, sp, #0
  /* Get HCLK source and Compute PCLK1 frequency ---------------------------*/
  return (HAL_RCC_GetHCLKFreq() >> APBPrescTable[(RCC->CFGR & RCC_CFGR_PPRE1) >> RCC_CFGR_PPRE1_Pos]);
 800127c:	f7ff fff2 	bl	8001264 <HAL_RCC_GetHCLKFreq>
 8001280:	4601      	mov	r1, r0
 8001282:	4b05      	ldr	r3, [pc, #20]	; (8001298 <HAL_RCC_GetPCLK1Freq+0x20>)
 8001284:	685b      	ldr	r3, [r3, #4]
 8001286:	0a1b      	lsrs	r3, r3, #8
 8001288:	f003 0307 	and.w	r3, r3, #7
 800128c:	4a03      	ldr	r2, [pc, #12]	; (800129c <HAL_RCC_GetPCLK1Freq+0x24>)
 800128e:	5cd3      	ldrb	r3, [r2, r3]
 8001290:	fa21 f303 	lsr.w	r3, r1, r3
}
 8001294:	4618      	mov	r0, r3
 8001296:	bd80      	pop	{r7, pc}
 8001298:	40021000 	.word	0x40021000
 800129c:	08004120 	.word	0x08004120

080012a0 <HAL_RCC_GetPCLK2Freq>:
  * @note   Each time PCLK2 changes, this function must be called to update the
  *         right PCLK2 value. Otherwise, any configuration based on this function will be incorrect.
  * @retval PCLK2 frequency
  */
uint32_t HAL_RCC_GetPCLK2Freq(void)
{
 80012a0:	b580      	push	{r7, lr}
 80012a2:	af00      	add	r7, sp, #0
  /* Get HCLK source and Compute PCLK2 frequency ---------------------------*/
  return (HAL_RCC_GetHCLKFreq() >> APBPrescTable[(RCC->CFGR & RCC_CFGR_PPRE2) >> RCC_CFGR_PPRE2_Pos]);
 80012a4:	f7ff ffde 	bl	8001264 <HAL_RCC_GetHCLKFreq>
 80012a8:	4601      	mov	r1, r0
 80012aa:	4b05      	ldr	r3, [pc, #20]	; (80012c0 <HAL_RCC_GetPCLK2Freq+0x20>)
 80012ac:	685b      	ldr	r3, [r3, #4]
 80012ae:	0adb      	lsrs	r3, r3, #11
 80012b0:	f003 0307 	and.w	r3, r3, #7
 80012b4:	4a03      	ldr	r2, [pc, #12]	; (80012c4 <HAL_RCC_GetPCLK2Freq+0x24>)
 80012b6:	5cd3      	ldrb	r3, [r2, r3]
 80012b8:	fa21 f303 	lsr.w	r3, r1, r3
}
 80012bc:	4618      	mov	r0, r3
 80012be:	bd80      	pop	{r7, pc}
 80012c0:	40021000 	.word	0x40021000
 80012c4:	08004120 	.word	0x08004120

080012c8 <HAL_RCC_GetClockConfig>:
  * contains the current clock configuration.
  * @param  pFLatency Pointer on the Flash Latency.
  * @retval None
  */
void HAL_RCC_GetClockConfig(RCC_ClkInitTypeDef  *RCC_ClkInitStruct, uint32_t *pFLatency)
{
 80012c8:	b480      	push	{r7}
 80012ca:	b083      	sub	sp, #12
 80012cc:	af00      	add	r7, sp, #0
 80012ce:	6078      	str	r0, [r7, #4]
 80012d0:	6039      	str	r1, [r7, #0]
  /* Check the parameters */
  assert_param(RCC_ClkInitStruct != NULL);
  assert_param(pFLatency != NULL);

  /* Set all possible values for the Clock type parameter --------------------*/
  RCC_ClkInitStruct->ClockType = RCC_CLOCKTYPE_SYSCLK | RCC_CLOCKTYPE_HCLK | RCC_CLOCKTYPE_PCLK1 | RCC_CLOCKTYPE_PCLK2;
 80012d2:	687b      	ldr	r3, [r7, #4]
 80012d4:	220f      	movs	r2, #15
 80012d6:	601a      	str	r2, [r3, #0]

  /* Get the SYSCLK configuration --------------------------------------------*/
  RCC_ClkInitStruct->SYSCLKSource = (uint32_t)(RCC->CFGR & RCC_CFGR_SW);
 80012d8:	4b11      	ldr	r3, [pc, #68]	; (8001320 <HAL_RCC_GetClockConfig+0x58>)
 80012da:	685b      	ldr	r3, [r3, #4]
 80012dc:	f003 0203 	and.w	r2, r3, #3
 80012e0:	687b      	ldr	r3, [r7, #4]
 80012e2:	605a      	str	r2, [r3, #4]

  /* Get the HCLK configuration ----------------------------------------------*/
  RCC_ClkInitStruct->AHBCLKDivider = (uint32_t)(RCC->CFGR & RCC_CFGR_HPRE);
 80012e4:	4b0e      	ldr	r3, [pc, #56]	; (8001320 <HAL_RCC_GetClockConfig+0x58>)
 80012e6:	685b      	ldr	r3, [r3, #4]
 80012e8:	f003 02f0 	and.w	r2, r3, #240	; 0xf0
 80012ec:	687b      	ldr	r3, [r7, #4]
 80012ee:	609a      	str	r2, [r3, #8]

  /* Get the APB1 configuration ----------------------------------------------*/
  RCC_ClkInitStruct->APB1CLKDivider = (uint32_t)(RCC->CFGR & RCC_CFGR_PPRE1);
 80012f0:	4b0b      	ldr	r3, [pc, #44]	; (8001320 <HAL_RCC_GetClockConfig+0x58>)
 80012f2:	685b      	ldr	r3, [r3, #4]
 80012f4:	f403 62e0 	and.w	r2, r3, #1792	; 0x700
 80012f8:	687b      	ldr	r3, [r7, #4]
 80012fa:	60da      	str	r2, [r3, #12]

  /* Get the APB2 configuration ----------------------------------------------*/
  RCC_ClkInitStruct->APB2CLKDivider = (uint32_t)((RCC->CFGR & RCC_CFGR_PPRE2) >> 3);
 80012fc:	4b08      	ldr	r3, [pc, #32]	; (8001320 <HAL_RCC_GetClockConfig+0x58>)
 80012fe:	685b      	ldr	r3, [r3, #4]
 8001300:	08db      	lsrs	r3, r3, #3
 8001302:	f403 62e0 	and.w	r2, r3, #1792	; 0x700
 8001306:	687b      	ldr	r3, [r7, #4]
 8001308:	611a      	str	r2, [r3, #16]

#if   defined(FLASH_ACR_LATENCY)
  /* Get the Flash Wait State (Latency) configuration ------------------------*/
  *pFLatency = (uint32_t)(FLASH->ACR & FLASH_ACR_LATENCY);
 800130a:	4b06      	ldr	r3, [pc, #24]	; (8001324 <HAL_RCC_GetClockConfig+0x5c>)
 800130c:	681b      	ldr	r3, [r3, #0]
 800130e:	f003 0207 	and.w	r2, r3, #7
 8001312:	683b      	ldr	r3, [r7, #0]
 8001314:	601a      	str	r2, [r3, #0]
#else
  /* For VALUE lines devices, only LATENCY_0 can be set*/
  *pFLatency = (uint32_t)FLASH_LATENCY_0;
#endif
}
 8001316:	bf00      	nop
 8001318:	370c      	adds	r7, #12
 800131a:	46bd      	mov	sp, r7
 800131c:	bc80      	pop	{r7}
 800131e:	4770      	bx	lr
 8001320:	40021000 	.word	0x40021000
 8001324:	40022000 	.word	0x40022000

08001328 <RCC_Delay>:
  * @brief  This function provides delay (in milliseconds) based on CPU cycles method.
  * @param  mdelay: specifies the delay time length, in milliseconds.
  * @retval None
  */
static void RCC_Delay(uint32_t mdelay)
{
 8001328:	b480      	push	{r7}
 800132a:	b085      	sub	sp, #20
 800132c:	af00      	add	r7, sp, #0
 800132e:	6078      	str	r0, [r7, #4]
  __IO uint32_t Delay = mdelay * (SystemCoreClock / 8U / 1000U);
 8001330:	4b0a      	ldr	r3, [pc, #40]	; (800135c <RCC_Delay+0x34>)
 8001332:	681b      	ldr	r3, [r3, #0]
 8001334:	4a0a      	ldr	r2, [pc, #40]	; (8001360 <RCC_Delay+0x38>)
 8001336:	fba2 2303 	umull	r2, r3, r2, r3
 800133a:	0a5b      	lsrs	r3, r3, #9
 800133c:	687a      	ldr	r2, [r7, #4]
 800133e:	fb02 f303 	mul.w	r3, r2, r3
 8001342:	60fb      	str	r3, [r7, #12]
  do
  {
    __NOP();
 8001344:	bf00      	nop
  }
  while (Delay --);
 8001346:	68fb      	ldr	r3, [r7, #12]
 8001348:	1e5a      	subs	r2, r3, #1
 800134a:	60fa      	str	r2, [r7, #12]
 800134c:	2b00      	cmp	r3, #0
 800134e:	d1f9      	bne.n	8001344 <RCC_Delay+0x1c>
}
 8001350:	bf00      	nop
 8001352:	3714      	adds	r7, #20
 8001354:	46bd      	mov	sp, r7
 8001356:	bc80      	pop	{r7}
 8001358:	4770      	bx	lr
 800135a:	bf00      	nop
 800135c:	20000000 	.word	0x20000000
 8001360:	10624dd3 	.word	0x10624dd3

08001364 <HAL_TIM_Base_Init>:
  *         Ex: call @ref HAL_TIM_Base_DeInit() before HAL_TIM_Base_Init()
  * @param  htim TIM Base handle
  * @retval HAL status
  */
HAL_StatusTypeDef HAL_TIM_Base_Init(TIM_HandleTypeDef *htim)
{
 8001364:	b580      	push	{r7, lr}
 8001366:	b082      	sub	sp, #8
 8001368:	af00      	add	r7, sp, #0
 800136a:	6078      	str	r0, [r7, #4]
  /* Check the TIM handle allocation */
  if (htim == NULL)
 800136c:	687b      	ldr	r3, [r7, #4]
 800136e:	2b00      	cmp	r3, #0
 8001370:	d101      	bne.n	8001376 <HAL_TIM_Base_Init+0x12>
  {
    return HAL_ERROR;
 8001372:	2301      	movs	r3, #1
 8001374:	e041      	b.n	80013fa <HAL_TIM_Base_Init+0x96>
  assert_param(IS_TIM_INSTANCE(htim->Instance));
  assert_param(IS_TIM_COUNTER_MODE(htim->Init.CounterMode));
  assert_param(IS_TIM_CLOCKDIVISION_DIV(htim->Init.ClockDivision));
  assert_param(IS_TIM_AUTORELOAD_PRELOAD(htim->Init.AutoReloadPreload));

  if (htim->State == HAL_TIM_STATE_RESET)
 8001376:	687b      	ldr	r3, [r7, #4]
 8001378:	f893 303d 	ldrb.w	r3, [r3, #61]	; 0x3d
 800137c:	b2db      	uxtb	r3, r3
 800137e:	2b00      	cmp	r3, #0
 8001380:	d106      	bne.n	8001390 <HAL_TIM_Base_Init+0x2c>
  {
    /* Allocate lock resource and initialize it */
    htim->Lock = HAL_UNLOCKED;
 8001382:	687b      	ldr	r3, [r7, #4]
 8001384:	2200      	movs	r2, #0
 8001386:	f883 203c 	strb.w	r2, [r3, #60]	; 0x3c
    }
    /* Init the low level hardware : GPIO, CLOCK, NVIC */
    htim->Base_MspInitCallback(htim);
#else
    /* Init the low level hardware : GPIO, CLOCK, NVIC */
    HAL_TIM_Base_MspInit(htim);
 800138a:	6878      	ldr	r0, [r7, #4]
 800138c:	f000 f839 	bl	8001402 <HAL_TIM_Base_MspInit>
#endif /* USE_HAL_TIM_REGISTER_CALLBACKS */
  }

  /* Set the TIM state */
  htim->State = HAL_TIM_STATE_BUSY;
 8001390:	687b      	ldr	r3, [r7, #4]
 8001392:	2202      	movs	r2, #2
 8001394:	f883 203d 	strb.w	r2, [r3, #61]	; 0x3d

  /* Set the Time Base configuration */
  TIM_Base_SetConfig(htim->Instance, &htim->Init);
 8001398:	687b      	ldr	r3, [r7, #4]
 800139a:	681a      	ldr	r2, [r3, #0]
 800139c:	687b      	ldr	r3, [r7, #4]
 800139e:	3304      	adds	r3, #4
 80013a0:	4619      	mov	r1, r3
 80013a2:	4610      	mov	r0, r2
 80013a4:	f000 f9b4 	bl	8001710 <TIM_Base_SetConfig>

  /* Initialize the DMA burst operation state */
  htim->DMABurstState = HAL_DMA_BURST_STATE_READY;
 80013a8:	687b      	ldr	r3, [r7, #4]
 80013aa:	2201      	movs	r2, #1
 80013ac:	f883 2046 	strb.w	r2, [r3, #70]	; 0x46

  /* Initialize the TIM channels state */
  TIM_CHANNEL_STATE_SET_ALL(htim, HAL_TIM_CHANNEL_STATE_READY);
 80013b0:	687b      	ldr	r3, [r7, #4]
 80013b2:	2201      	movs	r2, #1
 80013b4:	f883 203e 	strb.w	r2, [r3, #62]	; 0x3e
 80013b8:	687b      	ldr	r3, [r7, #4]
 80013ba:	2201      	movs	r2, #1
 80013bc:	f883 203f 	strb.w	r2, [r3, #63]	; 0x3f
 80013c0:	687b      	ldr	r3, [r7, #4]
 80013c2:	2201      	movs	r2, #1
 80013c4:	f883 2040 	strb.w	r2, [r3, #64]	; 0x40
 80013c8:	687b      	ldr	r3, [r7, #4]
 80013ca:	2201      	movs	r2, #1
 80013cc:	f883 2041 	strb.w	r2, [r3, #65]	; 0x41
  TIM_CHANNEL_N_STATE_SET_ALL(htim, HAL_TIM_CHANNEL_STATE_READY);
 80013d0:	687b      	ldr	r3, [r7, #4]
 80013d2:	2201      	movs	r2, #1
 80013d4:	f883 2042 	strb.w	r2, [r3, #66]	; 0x42
 80013d8:	687b      	ldr	r3, [r7, #4]
 80013da:	2201      	movs	r2, #1
 80013dc:	f883 2043 	strb.w	r2, [r3, #67]	; 0x43
 80013e0:	687b      	ldr	r3, [r7, #4]
 80013e2:	2201      	movs	r2, #1
 80013e4:	f883 2044 	strb.w	r2, [r3, #68]	; 0x44
 80013e8:	687b      	ldr	r3, [r7, #4]
 80013ea:	2201      	movs	r2, #1
 80013ec:	f883 2045 	strb.w	r2, [r3, #69]	; 0x45

  /* Initialize the TIM state*/
  htim->State = HAL_TIM_STATE_READY;
 80013f0:	687b      	ldr	r3, [r7, #4]
 80013f2:	2201      	movs	r2, #1
 80013f4:	f883 203d 	strb.w	r2, [r3, #61]	; 0x3d

  return HAL_OK;
 80013f8:	2300      	movs	r3, #0
}
 80013fa:	4618      	mov	r0, r3
 80013fc:	3708      	adds	r7, #8
 80013fe:	46bd      	mov	sp, r7
 8001400:	bd80      	pop	{r7, pc}

08001402 <HAL_TIM_Base_MspInit>:
  * @brief  Initializes the TIM Base MSP.
  * @param  htim TIM Base handle
  * @retval None
  */
__weak void HAL_TIM_Base_MspInit(TIM_HandleTypeDef *htim)
{
 8001402:	b480      	push	{r7}
 8001404:	b083      	sub	sp, #12
 8001406:	af00      	add	r7, sp, #0
 8001408:	6078      	str	r0, [r7, #4]
  UNUSED(htim);

  /* NOTE : This function should not be modified, when the callback is needed,
            the HAL_TIM_Base_MspInit could be implemented in the user file
   */
}
 800140a:	bf00      	nop
 800140c:	370c      	adds	r7, #12
 800140e:	46bd      	mov	sp, r7
 8001410:	bc80      	pop	{r7}
 8001412:	4770      	bx	lr

08001414 <HAL_TIM_Base_Start_IT>:
  * @brief  Starts the TIM Base generation in interrupt mode.
  * @param  htim TIM Base handle
  * @retval HAL status
  */
HAL_StatusTypeDef HAL_TIM_Base_Start_IT(TIM_HandleTypeDef *htim)
{
 8001414:	b480      	push	{r7}
 8001416:	b085      	sub	sp, #20
 8001418:	af00      	add	r7, sp, #0
 800141a:	6078      	str	r0, [r7, #4]

  /* Check the parameters */
  assert_param(IS_TIM_INSTANCE(htim->Instance));

  /* Check the TIM state */
  if (htim->State != HAL_TIM_STATE_READY)
 800141c:	687b      	ldr	r3, [r7, #4]
 800141e:	f893 303d 	ldrb.w	r3, [r3, #61]	; 0x3d
 8001422:	b2db      	uxtb	r3, r3
 8001424:	2b01      	cmp	r3, #1
 8001426:	d001      	beq.n	800142c <HAL_TIM_Base_Start_IT+0x18>
  {
    return HAL_ERROR;
 8001428:	2301      	movs	r3, #1
 800142a:	e03a      	b.n	80014a2 <HAL_TIM_Base_Start_IT+0x8e>
  }

  /* Set the TIM state */
  htim->State = HAL_TIM_STATE_BUSY;
 800142c:	687b      	ldr	r3, [r7, #4]
 800142e:	2202      	movs	r2, #2
 8001430:	f883 203d 	strb.w	r2, [r3, #61]	; 0x3d

  /* Enable the TIM Update interrupt */
  __HAL_TIM_ENABLE_IT(htim, TIM_IT_UPDATE);
 8001434:	687b      	ldr	r3, [r7, #4]
 8001436:	681b      	ldr	r3, [r3, #0]
 8001438:	68da      	ldr	r2, [r3, #12]
 800143a:	687b      	ldr	r3, [r7, #4]
 800143c:	681b      	ldr	r3, [r3, #0]
 800143e:	f042 0201 	orr.w	r2, r2, #1
 8001442:	60da      	str	r2, [r3, #12]

  /* Enable the Peripheral, except in trigger mode where enable is automatically done with trigger */
  if (IS_TIM_SLAVE_INSTANCE(htim->Instance))
 8001444:	687b      	ldr	r3, [r7, #4]
 8001446:	681b      	ldr	r3, [r3, #0]
 8001448:	4a18      	ldr	r2, [pc, #96]	; (80014ac <HAL_TIM_Base_Start_IT+0x98>)
 800144a:	4293      	cmp	r3, r2
 800144c:	d00e      	beq.n	800146c <HAL_TIM_Base_Start_IT+0x58>
 800144e:	687b      	ldr	r3, [r7, #4]
 8001450:	681b      	ldr	r3, [r3, #0]
 8001452:	f1b3 4f80 	cmp.w	r3, #1073741824	; 0x40000000
 8001456:	d009      	beq.n	800146c <HAL_TIM_Base_Start_IT+0x58>
 8001458:	687b      	ldr	r3, [r7, #4]
 800145a:	681b      	ldr	r3, [r3, #0]
 800145c:	4a14      	ldr	r2, [pc, #80]	; (80014b0 <HAL_TIM_Base_Start_IT+0x9c>)
 800145e:	4293      	cmp	r3, r2
 8001460:	d004      	beq.n	800146c <HAL_TIM_Base_Start_IT+0x58>
 8001462:	687b      	ldr	r3, [r7, #4]
 8001464:	681b      	ldr	r3, [r3, #0]
 8001466:	4a13      	ldr	r2, [pc, #76]	; (80014b4 <HAL_TIM_Base_Start_IT+0xa0>)
 8001468:	4293      	cmp	r3, r2
 800146a:	d111      	bne.n	8001490 <HAL_TIM_Base_Start_IT+0x7c>
  {
    tmpsmcr = htim->Instance->SMCR & TIM_SMCR_SMS;
 800146c:	687b      	ldr	r3, [r7, #4]
 800146e:	681b      	ldr	r3, [r3, #0]
 8001470:	689b      	ldr	r3, [r3, #8]
 8001472:	f003 0307 	and.w	r3, r3, #7
 8001476:	60fb      	str	r3, [r7, #12]
    if (!IS_TIM_SLAVEMODE_TRIGGER_ENABLED(tmpsmcr))
 8001478:	68fb      	ldr	r3, [r7, #12]
 800147a:	2b06      	cmp	r3, #6
 800147c:	d010      	beq.n	80014a0 <HAL_TIM_Base_Start_IT+0x8c>
    {
      __HAL_TIM_ENABLE(htim);
 800147e:	687b      	ldr	r3, [r7, #4]
 8001480:	681b      	ldr	r3, [r3, #0]
 8001482:	681a      	ldr	r2, [r3, #0]
 8001484:	687b      	ldr	r3, [r7, #4]
 8001486:	681b      	ldr	r3, [r3, #0]
 8001488:	f042 0201 	orr.w	r2, r2, #1
 800148c:	601a      	str	r2, [r3, #0]
    if (!IS_TIM_SLAVEMODE_TRIGGER_ENABLED(tmpsmcr))
 800148e:	e007      	b.n	80014a0 <HAL_TIM_Base_Start_IT+0x8c>
    }
  }
  else
  {
    __HAL_TIM_ENABLE(htim);
 8001490:	687b      	ldr	r3, [r7, #4]
 8001492:	681b      	ldr	r3, [r3, #0]
 8001494:	681a      	ldr	r2, [r3, #0]
 8001496:	687b      	ldr	r3, [r7, #4]
 8001498:	681b      	ldr	r3, [r3, #0]
 800149a:	f042 0201 	orr.w	r2, r2, #1
 800149e:	601a      	str	r2, [r3, #0]
  }

  /* Return function status */
  return HAL_OK;
 80014a0:	2300      	movs	r3, #0
}
 80014a2:	4618      	mov	r0, r3
 80014a4:	3714      	adds	r7, #20
 80014a6:	46bd      	mov	sp, r7
 80014a8:	bc80      	pop	{r7}
 80014aa:	4770      	bx	lr
 80014ac:	40012c00 	.word	0x40012c00
 80014b0:	40000400 	.word	0x40000400
 80014b4:	40000800 	.word	0x40000800

080014b8 <HAL_TIM_IRQHandler>:
  * @brief  This function handles TIM interrupts requests.
  * @param  htim TIM  handle
  * @retval None
  */
void HAL_TIM_IRQHandler(TIM_HandleTypeDef *htim)
{
 80014b8:	b580      	push	{r7, lr}
 80014ba:	b082      	sub	sp, #8
 80014bc:	af00      	add	r7, sp, #0
 80014be:	6078      	str	r0, [r7, #4]
  /* Capture compare 1 event */
  if (__HAL_TIM_GET_FLAG(htim, TIM_FLAG_CC1) != RESET)
 80014c0:	687b      	ldr	r3, [r7, #4]
 80014c2:	681b      	ldr	r3, [r3, #0]
 80014c4:	691b      	ldr	r3, [r3, #16]
 80014c6:	f003 0302 	and.w	r3, r3, #2
 80014ca:	2b02      	cmp	r3, #2
 80014cc:	d122      	bne.n	8001514 <HAL_TIM_IRQHandler+0x5c>
  {
    if (__HAL_TIM_GET_IT_SOURCE(htim, TIM_IT_CC1) != RESET)
 80014ce:	687b      	ldr	r3, [r7, #4]
 80014d0:	681b      	ldr	r3, [r3, #0]
 80014d2:	68db      	ldr	r3, [r3, #12]
 80014d4:	f003 0302 	and.w	r3, r3, #2
 80014d8:	2b02      	cmp	r3, #2
 80014da:	d11b      	bne.n	8001514 <HAL_TIM_IRQHandler+0x5c>
    {
      {
        __HAL_TIM_CLEAR_IT(htim, TIM_IT_CC1);
 80014dc:	687b      	ldr	r3, [r7, #4]
 80014de:	681b      	ldr	r3, [r3, #0]
 80014e0:	f06f 0202 	mvn.w	r2, #2
 80014e4:	611a      	str	r2, [r3, #16]
        htim->Channel = HAL_TIM_ACTIVE_CHANNEL_1;
 80014e6:	687b      	ldr	r3, [r7, #4]
 80014e8:	2201      	movs	r2, #1
 80014ea:	771a      	strb	r2, [r3, #28]

        /* Input capture event */
        if ((htim->Instance->CCMR1 & TIM_CCMR1_CC1S) != 0x00U)
 80014ec:	687b      	ldr	r3, [r7, #4]
 80014ee:	681b      	ldr	r3, [r3, #0]
 80014f0:	699b      	ldr	r3, [r3, #24]
 80014f2:	f003 0303 	and.w	r3, r3, #3
 80014f6:	2b00      	cmp	r3, #0
 80014f8:	d003      	beq.n	8001502 <HAL_TIM_IRQHandler+0x4a>
        {
#if (USE_HAL_TIM_REGISTER_CALLBACKS == 1)
          htim->IC_CaptureCallback(htim);
#else
          HAL_TIM_IC_CaptureCallback(htim);
 80014fa:	6878      	ldr	r0, [r7, #4]
 80014fc:	f000 f8ed 	bl	80016da <HAL_TIM_IC_CaptureCallback>
 8001500:	e005      	b.n	800150e <HAL_TIM_IRQHandler+0x56>
        {
#if (USE_HAL_TIM_REGISTER_CALLBACKS == 1)
          htim->OC_DelayElapsedCallback(htim);
          htim->PWM_PulseFinishedCallback(htim);
#else
          HAL_TIM_OC_DelayElapsedCallback(htim);
 8001502:	6878      	ldr	r0, [r7, #4]
 8001504:	f000 f8e0 	bl	80016c8 <HAL_TIM_OC_DelayElapsedCallback>
          HAL_TIM_PWM_PulseFinishedCallback(htim);
 8001508:	6878      	ldr	r0, [r7, #4]
 800150a:	f000 f8ef 	bl	80016ec <HAL_TIM_PWM_PulseFinishedCallback>
#endif /* USE_HAL_TIM_REGISTER_CALLBACKS */
        }
        htim->Channel = HAL_TIM_ACTIVE_CHANNEL_CLEARED;
 800150e:	687b      	ldr	r3, [r7, #4]
 8001510:	2200      	movs	r2, #0
 8001512:	771a      	strb	r2, [r3, #28]
      }
    }
  }
  /* Capture compare 2 event */
  if (__HAL_TIM_GET_FLAG(htim, TIM_FLAG_CC2) != RESET)
 8001514:	687b      	ldr	r3, [r7, #4]
 8001516:	681b      	ldr	r3, [r3, #0]
 8001518:	691b      	ldr	r3, [r3, #16]
 800151a:	f003 0304 	and.w	r3, r3, #4
 800151e:	2b04      	cmp	r3, #4
 8001520:	d122      	bne.n	8001568 <HAL_TIM_IRQHandler+0xb0>
  {
    if (__HAL_TIM_GET_IT_SOURCE(htim, TIM_IT_CC2) != RESET)
 8001522:	687b      	ldr	r3, [r7, #4]
 8001524:	681b      	ldr	r3, [r3, #0]
 8001526:	68db      	ldr	r3, [r3, #12]
 8001528:	f003 0304 	and.w	r3, r3, #4
 800152c:	2b04      	cmp	r3, #4
 800152e:	d11b      	bne.n	8001568 <HAL_TIM_IRQHandler+0xb0>
    {
      __HAL_TIM_CLEAR_IT(htim, TIM_IT_CC2);
 8001530:	687b      	ldr	r3, [r7, #4]
 8001532:	681b      	ldr	r3, [r3, #0]
 8001534:	f06f 0204 	mvn.w	r2, #4
 8001538:	611a      	str	r2, [r3, #16]
      htim->Channel = HAL_TIM_ACTIVE_CHANNEL_2;
 800153a:	687b      	ldr	r3, [r7, #4]
 800153c:	2202      	movs	r2, #2
 800153e:	771a      	strb	r2, [r3, #28]
      /* Input capture event */
      if ((htim->Instance->CCMR1 & TIM_CCMR1_CC2S) != 0x00U)
 8001540:	687b      	ldr	r3, [r7, #4]
 8001542:	681b      	ldr	r3, [r3, #0]
 8001544:	699b      	ldr	r3, [r3, #24]
 8001546:	f403 7340 	and.w	r3, r3, #768	; 0x300
 800154a:	2b00      	cmp	r3, #0
 800154c:	d003      	beq.n	8001556 <HAL_TIM_IRQHandler+0x9e>
      {
#if (USE_HAL_TIM_REGISTER_CALLBACKS == 1)
        htim->IC_CaptureCallback(htim);
#else
        HAL_TIM_IC_CaptureCallback(htim);
 800154e:	6878      	ldr	r0, [r7, #4]
 8001550:	f000 f8c3 	bl	80016da <HAL_TIM_IC_CaptureCallback>
 8001554:	e005      	b.n	8001562 <HAL_TIM_IRQHandler+0xaa>
      {
#if (USE_HAL_TIM_REGISTER_CALLBACKS == 1)
        htim->OC_DelayElapsedCallback(htim);
        htim->PWM_PulseFinishedCallback(htim);
#else
        HAL_TIM_OC_DelayElapsedCallback(htim);
 8001556:	6878      	ldr	r0, [r7, #4]
 8001558:	f000 f8b6 	bl	80016c8 <HAL_TIM_OC_DelayElapsedCallback>
        HAL_TIM_PWM_PulseFinishedCallback(htim);
 800155c:	6878      	ldr	r0, [r7, #4]
 800155e:	f000 f8c5 	bl	80016ec <HAL_TIM_PWM_PulseFinishedCallback>
#endif /* USE_HAL_TIM_REGISTER_CALLBACKS */
      }
      htim->Channel = HAL_TIM_ACTIVE_CHANNEL_CLEARED;
 8001562:	687b      	ldr	r3, [r7, #4]
 8001564:	2200      	movs	r2, #0
 8001566:	771a      	strb	r2, [r3, #28]
    }
  }
  /* Capture compare 3 event */
  if (__HAL_TIM_GET_FLAG(htim, TIM_FLAG_CC3) != RESET)
 8001568:	687b      	ldr	r3, [r7, #4]
 800156a:	681b      	ldr	r3, [r3, #0]
 800156c:	691b      	ldr	r3, [r3, #16]
 800156e:	f003 0308 	and.w	r3, r3, #8
 8001572:	2b08      	cmp	r3, #8
 8001574:	d122      	bne.n	80015bc <HAL_TIM_IRQHandler+0x104>
  {
    if (__HAL_TIM_GET_IT_SOURCE(htim, TIM_IT_CC3) != RESET)
 8001576:	687b      	ldr	r3, [r7, #4]
 8001578:	681b      	ldr	r3, [r3, #0]
 800157a:	68db      	ldr	r3, [r3, #12]
 800157c:	f003 0308 	and.w	r3, r3, #8
 8001580:	2b08      	cmp	r3, #8
 8001582:	d11b      	bne.n	80015bc <HAL_TIM_IRQHandler+0x104>
    {
      __HAL_TIM_CLEAR_IT(htim, TIM_IT_CC3);
 8001584:	687b      	ldr	r3, [r7, #4]
 8001586:	681b      	ldr	r3, [r3, #0]
 8001588:	f06f 0208 	mvn.w	r2, #8
 800158c:	611a      	str	r2, [r3, #16]
      htim->Channel = HAL_TIM_ACTIVE_CHANNEL_3;
 800158e:	687b      	ldr	r3, [r7, #4]
 8001590:	2204      	movs	r2, #4
 8001592:	771a      	strb	r2, [r3, #28]
      /* Input capture event */
      if ((htim->Instance->CCMR2 & TIM_CCMR2_CC3S) != 0x00U)
 8001594:	687b      	ldr	r3, [r7, #4]
 8001596:	681b      	ldr	r3, [r3, #0]
 8001598:	69db      	ldr	r3, [r3, #28]
 800159a:	f003 0303 	and.w	r3, r3, #3
 800159e:	2b00      	cmp	r3, #0
 80015a0:	d003      	beq.n	80015aa <HAL_TIM_IRQHandler+0xf2>
      {
#if (USE_HAL_TIM_REGISTER_CALLBACKS == 1)
        htim->IC_CaptureCallback(htim);
#else
        HAL_TIM_IC_CaptureCallback(htim);
 80015a2:	6878      	ldr	r0, [r7, #4]
 80015a4:	f000 f899 	bl	80016da <HAL_TIM_IC_CaptureCallback>
 80015a8:	e005      	b.n	80015b6 <HAL_TIM_IRQHandler+0xfe>
      {
#if (USE_HAL_TIM_REGISTER_CALLBACKS == 1)
        htim->OC_DelayElapsedCallback(htim);
        htim->PWM_PulseFinishedCallback(htim);
#else
        HAL_TIM_OC_DelayElapsedCallback(htim);
 80015aa:	6878      	ldr	r0, [r7, #4]
 80015ac:	f000 f88c 	bl	80016c8 <HAL_TIM_OC_DelayElapsedCallback>
        HAL_TIM_PWM_PulseFinishedCallback(htim);
 80015b0:	6878      	ldr	r0, [r7, #4]
 80015b2:	f000 f89b 	bl	80016ec <HAL_TIM_PWM_PulseFinishedCallback>
#endif /* USE_HAL_TIM_REGISTER_CALLBACKS */
      }
      htim->Channel = HAL_TIM_ACTIVE_CHANNEL_CLEARED;
 80015b6:	687b      	ldr	r3, [r7, #4]
 80015b8:	2200      	movs	r2, #0
 80015ba:	771a      	strb	r2, [r3, #28]
    }
  }
  /* Capture compare 4 event */
  if (__HAL_TIM_GET_FLAG(htim, TIM_FLAG_CC4) != RESET)
 80015bc:	687b      	ldr	r3, [r7, #4]
 80015be:	681b      	ldr	r3, [r3, #0]
 80015c0:	691b      	ldr	r3, [r3, #16]
 80015c2:	f003 0310 	and.w	r3, r3, #16
 80015c6:	2b10      	cmp	r3, #16
 80015c8:	d122      	bne.n	8001610 <HAL_TIM_IRQHandler+0x158>
  {
    if (__HAL_TIM_GET_IT_SOURCE(htim, TIM_IT_CC4) != RESET)
 80015ca:	687b      	ldr	r3, [r7, #4]
 80015cc:	681b      	ldr	r3, [r3, #0]
 80015ce:	68db      	ldr	r3, [r3, #12]
 80015d0:	f003 0310 	and.w	r3, r3, #16
 80015d4:	2b10      	cmp	r3, #16
 80015d6:	d11b      	bne.n	8001610 <HAL_TIM_IRQHandler+0x158>
    {
      __HAL_TIM_CLEAR_IT(htim, TIM_IT_CC4);
 80015d8:	687b      	ldr	r3, [r7, #4]
 80015da:	681b      	ldr	r3, [r3, #0]
 80015dc:	f06f 0210 	mvn.w	r2, #16
 80015e0:	611a      	str	r2, [r3, #16]
      htim->Channel = HAL_TIM_ACTIVE_CHANNEL_4;
 80015e2:	687b      	ldr	r3, [r7, #4]
 80015e4:	2208      	movs	r2, #8
 80015e6:	771a      	strb	r2, [r3, #28]
      /* Input capture event */
      if ((htim->Instance->CCMR2 & TIM_CCMR2_CC4S) != 0x00U)
 80015e8:	687b      	ldr	r3, [r7, #4]
 80015ea:	681b      	ldr	r3, [r3, #0]
 80015ec:	69db      	ldr	r3, [r3, #28]
 80015ee:	f403 7340 	and.w	r3, r3, #768	; 0x300
 80015f2:	2b00      	cmp	r3, #0
 80015f4:	d003      	beq.n	80015fe <HAL_TIM_IRQHandler+0x146>
      {
#if (USE_HAL_TIM_REGISTER_CALLBACKS == 1)
        htim->IC_CaptureCallback(htim);
#else
        HAL_TIM_IC_CaptureCallback(htim);
 80015f6:	6878      	ldr	r0, [r7, #4]
 80015f8:	f000 f86f 	bl	80016da <HAL_TIM_IC_CaptureCallback>
 80015fc:	e005      	b.n	800160a <HAL_TIM_IRQHandler+0x152>
      {
#if (USE_HAL_TIM_REGISTER_CALLBACKS == 1)
        htim->OC_DelayElapsedCallback(htim);
        htim->PWM_PulseFinishedCallback(htim);
#else
        HAL_TIM_OC_DelayElapsedCallback(htim);
 80015fe:	6878      	ldr	r0, [r7, #4]
 8001600:	f000 f862 	bl	80016c8 <HAL_TIM_OC_DelayElapsedCallback>
        HAL_TIM_PWM_PulseFinishedCallback(htim);
 8001604:	6878      	ldr	r0, [r7, #4]
 8001606:	f000 f871 	bl	80016ec <HAL_TIM_PWM_PulseFinishedCallback>
#endif /* USE_HAL_TIM_REGISTER_CALLBACKS */
      }
      htim->Channel = HAL_TIM_ACTIVE_CHANNEL_CLEARED;
 800160a:	687b      	ldr	r3, [r7, #4]
 800160c:	2200      	movs	r2, #0
 800160e:	771a      	strb	r2, [r3, #28]
    }
  }
  /* TIM Update event */
  if (__HAL_TIM_GET_FLAG(htim, TIM_FLAG_UPDATE) != RESET)
 8001610:	687b      	ldr	r3, [r7, #4]
 8001612:	681b      	ldr	r3, [r3, #0]
 8001614:	691b      	ldr	r3, [r3, #16]
 8001616:	f003 0301 	and.w	r3, r3, #1
 800161a:	2b01      	cmp	r3, #1
 800161c:	d10e      	bne.n	800163c <HAL_TIM_IRQHandler+0x184>
  {
    if (__HAL_TIM_GET_IT_SOURCE(htim, TIM_IT_UPDATE) != RESET)
 800161e:	687b      	ldr	r3, [r7, #4]
 8001620:	681b      	ldr	r3, [r3, #0]
 8001622:	68db      	ldr	r3, [r3, #12]
 8001624:	f003 0301 	and.w	r3, r3, #1
 8001628:	2b01      	cmp	r3, #1
 800162a:	d107      	bne.n	800163c <HAL_TIM_IRQHandler+0x184>
    {
      __HAL_TIM_CLEAR_IT(htim, TIM_IT_UPDATE);
 800162c:	687b      	ldr	r3, [r7, #4]
 800162e:	681b      	ldr	r3, [r3, #0]
 8001630:	f06f 0201 	mvn.w	r2, #1
 8001634:	611a      	str	r2, [r3, #16]
#if (USE_HAL_TIM_REGISTER_CALLBACKS == 1)
      htim->PeriodElapsedCallback(htim);
#else
      HAL_TIM_PeriodElapsedCallback(htim);
 8001636:	6878      	ldr	r0, [r7, #4]
 8001638:	f7fe fe70 	bl	800031c <HAL_TIM_PeriodElapsedCallback>
#endif /* USE_HAL_TIM_REGISTER_CALLBACKS */
    }
  }
  /* TIM Break input event */
  if (__HAL_TIM_GET_FLAG(htim, TIM_FLAG_BREAK) != RESET)
 800163c:	687b      	ldr	r3, [r7, #4]
 800163e:	681b      	ldr	r3, [r3, #0]
 8001640:	691b      	ldr	r3, [r3, #16]
 8001642:	f003 0380 	and.w	r3, r3, #128	; 0x80
 8001646:	2b80      	cmp	r3, #128	; 0x80
 8001648:	d10e      	bne.n	8001668 <HAL_TIM_IRQHandler+0x1b0>
  {
    if (__HAL_TIM_GET_IT_SOURCE(htim, TIM_IT_BREAK) != RESET)
 800164a:	687b      	ldr	r3, [r7, #4]
 800164c:	681b      	ldr	r3, [r3, #0]
 800164e:	68db      	ldr	r3, [r3, #12]
 8001650:	f003 0380 	and.w	r3, r3, #128	; 0x80
 8001654:	2b80      	cmp	r3, #128	; 0x80
 8001656:	d107      	bne.n	8001668 <HAL_TIM_IRQHandler+0x1b0>
    {
      __HAL_TIM_CLEAR_IT(htim, TIM_IT_BREAK);
 8001658:	687b      	ldr	r3, [r7, #4]
 800165a:	681b      	ldr	r3, [r3, #0]
 800165c:	f06f 0280 	mvn.w	r2, #128	; 0x80
 8001660:	611a      	str	r2, [r3, #16]
#if (USE_HAL_TIM_REGISTER_CALLBACKS == 1)
      htim->BreakCallback(htim);
#else
      HAL_TIMEx_BreakCallback(htim);
 8001662:	6878      	ldr	r0, [r7, #4]
 8001664:	f000 f8bf 	bl	80017e6 <HAL_TIMEx_BreakCallback>
#endif /* USE_HAL_TIM_REGISTER_CALLBACKS */
    }
  }
  /* TIM Trigger detection event */
  if (__HAL_TIM_GET_FLAG(htim, TIM_FLAG_TRIGGER) != RESET)
 8001668:	687b      	ldr	r3, [r7, #4]
 800166a:	681b      	ldr	r3, [r3, #0]
 800166c:	691b      	ldr	r3, [r3, #16]
 800166e:	f003 0340 	and.w	r3, r3, #64	; 0x40
 8001672:	2b40      	cmp	r3, #64	; 0x40
 8001674:	d10e      	bne.n	8001694 <HAL_TIM_IRQHandler+0x1dc>
  {
    if (__HAL_TIM_GET_IT_SOURCE(htim, TIM_IT_TRIGGER) != RESET)
 8001676:	687b      	ldr	r3, [r7, #4]
 8001678:	681b      	ldr	r3, [r3, #0]
 800167a:	68db      	ldr	r3, [r3, #12]
 800167c:	f003 0340 	and.w	r3, r3, #64	; 0x40
 8001680:	2b40      	cmp	r3, #64	; 0x40
 8001682:	d107      	bne.n	8001694 <HAL_TIM_IRQHandler+0x1dc>
    {
      __HAL_TIM_CLEAR_IT(htim, TIM_IT_TRIGGER);
 8001684:	687b      	ldr	r3, [r7, #4]
 8001686:	681b      	ldr	r3, [r3, #0]
 8001688:	f06f 0240 	mvn.w	r2, #64	; 0x40
 800168c:	611a      	str	r2, [r3, #16]
#if (USE_HAL_TIM_REGISTER_CALLBACKS == 1)
      htim->TriggerCallback(htim);
#else
      HAL_TIM_TriggerCallback(htim);
 800168e:	6878      	ldr	r0, [r7, #4]
 8001690:	f000 f835 	bl	80016fe <HAL_TIM_TriggerCallback>
#endif /* USE_HAL_TIM_REGISTER_CALLBACKS */
    }
  }
  /* TIM commutation event */
  if (__HAL_TIM_GET_FLAG(htim, TIM_FLAG_COM) != RESET)
 8001694:	687b      	ldr	r3, [r7, #4]
 8001696:	681b      	ldr	r3, [r3, #0]
 8001698:	691b      	ldr	r3, [r3, #16]
 800169a:	f003 0320 	and.w	r3, r3, #32
 800169e:	2b20      	cmp	r3, #32
 80016a0:	d10e      	bne.n	80016c0 <HAL_TIM_IRQHandler+0x208>
  {
    if (__HAL_TIM_GET_IT_SOURCE(htim, TIM_IT_COM) != RESET)
 80016a2:	687b      	ldr	r3, [r7, #4]
 80016a4:	681b      	ldr	r3, [r3, #0]
 80016a6:	68db      	ldr	r3, [r3, #12]
 80016a8:	f003 0320 	and.w	r3, r3, #32
 80016ac:	2b20      	cmp	r3, #32
 80016ae:	d107      	bne.n	80016c0 <HAL_TIM_IRQHandler+0x208>
    {
      __HAL_TIM_CLEAR_IT(htim, TIM_FLAG_COM);
 80016b0:	687b      	ldr	r3, [r7, #4]
 80016b2:	681b      	ldr	r3, [r3, #0]
 80016b4:	f06f 0220 	mvn.w	r2, #32
 80016b8:	611a      	str	r2, [r3, #16]
#if (USE_HAL_TIM_REGISTER_CALLBACKS == 1)
      htim->CommutationCallback(htim);
#else
      HAL_TIMEx_CommutCallback(htim);
 80016ba:	6878      	ldr	r0, [r7, #4]
 80016bc:	f000 f88a 	bl	80017d4 <HAL_TIMEx_CommutCallback>
#endif /* USE_HAL_TIM_REGISTER_CALLBACKS */
    }
  }
}
 80016c0:	bf00      	nop
 80016c2:	3708      	adds	r7, #8
 80016c4:	46bd      	mov	sp, r7
 80016c6:	bd80      	pop	{r7, pc}

080016c8 <HAL_TIM_OC_DelayElapsedCallback>:
  * @brief  Output Compare callback in non-blocking mode
  * @param  htim TIM OC handle
  * @retval None
  */
__weak void HAL_TIM_OC_DelayElapsedCallback(TIM_HandleTypeDef *htim)
{
 80016c8:	b480      	push	{r7}
 80016ca:	b083      	sub	sp, #12
 80016cc:	af00      	add	r7, sp, #0
 80016ce:	6078      	str	r0, [r7, #4]
  UNUSED(htim);

  /* NOTE : This function should not be modified, when the callback is needed,
            the HAL_TIM_OC_DelayElapsedCallback could be implemented in the user file
   */
}
 80016d0:	bf00      	nop
 80016d2:	370c      	adds	r7, #12
 80016d4:	46bd      	mov	sp, r7
 80016d6:	bc80      	pop	{r7}
 80016d8:	4770      	bx	lr

080016da <HAL_TIM_IC_CaptureCallback>:
  * @brief  Input Capture callback in non-blocking mode
  * @param  htim TIM IC handle
  * @retval None
  */
__weak void HAL_TIM_IC_CaptureCallback(TIM_HandleTypeDef *htim)
{
 80016da:	b480      	push	{r7}
 80016dc:	b083      	sub	sp, #12
 80016de:	af00      	add	r7, sp, #0
 80016e0:	6078      	str	r0, [r7, #4]
  UNUSED(htim);

  /* NOTE : This function should not be modified, when the callback is needed,
            the HAL_TIM_IC_CaptureCallback could be implemented in the user file
   */
}
 80016e2:	bf00      	nop
 80016e4:	370c      	adds	r7, #12
 80016e6:	46bd      	mov	sp, r7
 80016e8:	bc80      	pop	{r7}
 80016ea:	4770      	bx	lr

080016ec <HAL_TIM_PWM_PulseFinishedCallback>:
  * @brief  PWM Pulse finished callback in non-blocking mode
  * @param  htim TIM handle
  * @retval None
  */
__weak void HAL_TIM_PWM_PulseFinishedCallback(TIM_HandleTypeDef *htim)
{
 80016ec:	b480      	push	{r7}
 80016ee:	b083      	sub	sp, #12
 80016f0:	af00      	add	r7, sp, #0
 80016f2:	6078      	str	r0, [r7, #4]
  UNUSED(htim);

  /* NOTE : This function should not be modified, when the callback is needed,
            the HAL_TIM_PWM_PulseFinishedCallback could be implemented in the user file
   */
}
 80016f4:	bf00      	nop
 80016f6:	370c      	adds	r7, #12
 80016f8:	46bd      	mov	sp, r7
 80016fa:	bc80      	pop	{r7}
 80016fc:	4770      	bx	lr

080016fe <HAL_TIM_TriggerCallback>:
  * @brief  Hall Trigger detection callback in non-blocking mode
  * @param  htim TIM handle
  * @retval None
  */
__weak void HAL_TIM_TriggerCallback(TIM_HandleTypeDef *htim)
{
 80016fe:	b480      	push	{r7}
 8001700:	b083      	sub	sp, #12
 8001702:	af00      	add	r7, sp, #0
 8001704:	6078      	str	r0, [r7, #4]
  UNUSED(htim);

  /* NOTE : This function should not be modified, when the callback is needed,
            the HAL_TIM_TriggerCallback could be implemented in the user file
   */
}
 8001706:	bf00      	nop
 8001708:	370c      	adds	r7, #12
 800170a:	46bd      	mov	sp, r7
 800170c:	bc80      	pop	{r7}
 800170e:	4770      	bx	lr

08001710 <TIM_Base_SetConfig>:
  * @param  TIMx TIM peripheral
  * @param  Structure TIM Base configuration structure
  * @retval None
  */
void TIM_Base_SetConfig(TIM_TypeDef *TIMx, TIM_Base_InitTypeDef *Structure)
{
 8001710:	b480      	push	{r7}
 8001712:	b085      	sub	sp, #20
 8001714:	af00      	add	r7, sp, #0
 8001716:	6078      	str	r0, [r7, #4]
 8001718:	6039      	str	r1, [r7, #0]
  uint32_t tmpcr1;
  tmpcr1 = TIMx->CR1;
 800171a:	687b      	ldr	r3, [r7, #4]
 800171c:	681b      	ldr	r3, [r3, #0]
 800171e:	60fb      	str	r3, [r7, #12]

  /* Set TIM Time Base Unit parameters ---------------------------------------*/
  if (IS_TIM_COUNTER_MODE_SELECT_INSTANCE(TIMx))
 8001720:	687b      	ldr	r3, [r7, #4]
 8001722:	4a29      	ldr	r2, [pc, #164]	; (80017c8 <TIM_Base_SetConfig+0xb8>)
 8001724:	4293      	cmp	r3, r2
 8001726:	d00b      	beq.n	8001740 <TIM_Base_SetConfig+0x30>
 8001728:	687b      	ldr	r3, [r7, #4]
 800172a:	f1b3 4f80 	cmp.w	r3, #1073741824	; 0x40000000
 800172e:	d007      	beq.n	8001740 <TIM_Base_SetConfig+0x30>
 8001730:	687b      	ldr	r3, [r7, #4]
 8001732:	4a26      	ldr	r2, [pc, #152]	; (80017cc <TIM_Base_SetConfig+0xbc>)
 8001734:	4293      	cmp	r3, r2
 8001736:	d003      	beq.n	8001740 <TIM_Base_SetConfig+0x30>
 8001738:	687b      	ldr	r3, [r7, #4]
 800173a:	4a25      	ldr	r2, [pc, #148]	; (80017d0 <TIM_Base_SetConfig+0xc0>)
 800173c:	4293      	cmp	r3, r2
 800173e:	d108      	bne.n	8001752 <TIM_Base_SetConfig+0x42>
  {
    /* Select the Counter Mode */
    tmpcr1 &= ~(TIM_CR1_DIR | TIM_CR1_CMS);
 8001740:	68fb      	ldr	r3, [r7, #12]
 8001742:	f023 0370 	bic.w	r3, r3, #112	; 0x70
 8001746:	60fb      	str	r3, [r7, #12]
    tmpcr1 |= Structure->CounterMode;
 8001748:	683b      	ldr	r3, [r7, #0]
 800174a:	685b      	ldr	r3, [r3, #4]
 800174c:	68fa      	ldr	r2, [r7, #12]
 800174e:	4313      	orrs	r3, r2
 8001750:	60fb      	str	r3, [r7, #12]
  }

  if (IS_TIM_CLOCK_DIVISION_INSTANCE(TIMx))
 8001752:	687b      	ldr	r3, [r7, #4]
 8001754:	4a1c      	ldr	r2, [pc, #112]	; (80017c8 <TIM_Base_SetConfig+0xb8>)
 8001756:	4293      	cmp	r3, r2
 8001758:	d00b      	beq.n	8001772 <TIM_Base_SetConfig+0x62>
 800175a:	687b      	ldr	r3, [r7, #4]
 800175c:	f1b3 4f80 	cmp.w	r3, #1073741824	; 0x40000000
 8001760:	d007      	beq.n	8001772 <TIM_Base_SetConfig+0x62>
 8001762:	687b      	ldr	r3, [r7, #4]
 8001764:	4a19      	ldr	r2, [pc, #100]	; (80017cc <TIM_Base_SetConfig+0xbc>)
 8001766:	4293      	cmp	r3, r2
 8001768:	d003      	beq.n	8001772 <TIM_Base_SetConfig+0x62>
 800176a:	687b      	ldr	r3, [r7, #4]
 800176c:	4a18      	ldr	r2, [pc, #96]	; (80017d0 <TIM_Base_SetConfig+0xc0>)
 800176e:	4293      	cmp	r3, r2
 8001770:	d108      	bne.n	8001784 <TIM_Base_SetConfig+0x74>
  {
    /* Set the clock division */
    tmpcr1 &= ~TIM_CR1_CKD;
 8001772:	68fb      	ldr	r3, [r7, #12]
 8001774:	f423 7340 	bic.w	r3, r3, #768	; 0x300
 8001778:	60fb      	str	r3, [r7, #12]
    tmpcr1 |= (uint32_t)Structure->ClockDivision;
 800177a:	683b      	ldr	r3, [r7, #0]
 800177c:	68db      	ldr	r3, [r3, #12]
 800177e:	68fa      	ldr	r2, [r7, #12]
 8001780:	4313      	orrs	r3, r2
 8001782:	60fb      	str	r3, [r7, #12]
  }

  /* Set the auto-reload preload */
  MODIFY_REG(tmpcr1, TIM_CR1_ARPE, Structure->AutoReloadPreload);
 8001784:	68fb      	ldr	r3, [r7, #12]
 8001786:	f023 0280 	bic.w	r2, r3, #128	; 0x80
 800178a:	683b      	ldr	r3, [r7, #0]
 800178c:	695b      	ldr	r3, [r3, #20]
 800178e:	4313      	orrs	r3, r2
 8001790:	60fb      	str	r3, [r7, #12]

  TIMx->CR1 = tmpcr1;
 8001792:	687b      	ldr	r3, [r7, #4]
 8001794:	68fa      	ldr	r2, [r7, #12]
 8001796:	601a      	str	r2, [r3, #0]

  /* Set the Autoreload value */
  TIMx->ARR = (uint32_t)Structure->Period ;
 8001798:	683b      	ldr	r3, [r7, #0]
 800179a:	689a      	ldr	r2, [r3, #8]
 800179c:	687b      	ldr	r3, [r7, #4]
 800179e:	62da      	str	r2, [r3, #44]	; 0x2c

  /* Set the Prescaler value */
  TIMx->PSC = Structure->Prescaler;
 80017a0:	683b      	ldr	r3, [r7, #0]
 80017a2:	681a      	ldr	r2, [r3, #0]
 80017a4:	687b      	ldr	r3, [r7, #4]
 80017a6:	629a      	str	r2, [r3, #40]	; 0x28

  if (IS_TIM_REPETITION_COUNTER_INSTANCE(TIMx))
 80017a8:	687b      	ldr	r3, [r7, #4]
 80017aa:	4a07      	ldr	r2, [pc, #28]	; (80017c8 <TIM_Base_SetConfig+0xb8>)
 80017ac:	4293      	cmp	r3, r2
 80017ae:	d103      	bne.n	80017b8 <TIM_Base_SetConfig+0xa8>
  {
    /* Set the Repetition Counter value */
    TIMx->RCR = Structure->RepetitionCounter;
 80017b0:	683b      	ldr	r3, [r7, #0]
 80017b2:	691a      	ldr	r2, [r3, #16]
 80017b4:	687b      	ldr	r3, [r7, #4]
 80017b6:	631a      	str	r2, [r3, #48]	; 0x30
  }

  /* Generate an update event to reload the Prescaler
     and the repetition counter (only for advanced timer) value immediately */
  TIMx->EGR = TIM_EGR_UG;
 80017b8:	687b      	ldr	r3, [r7, #4]
 80017ba:	2201      	movs	r2, #1
 80017bc:	615a      	str	r2, [r3, #20]
}
 80017be:	bf00      	nop
 80017c0:	3714      	adds	r7, #20
 80017c2:	46bd      	mov	sp, r7
 80017c4:	bc80      	pop	{r7}
 80017c6:	4770      	bx	lr
 80017c8:	40012c00 	.word	0x40012c00
 80017cc:	40000400 	.word	0x40000400
 80017d0:	40000800 	.word	0x40000800

080017d4 <HAL_TIMEx_CommutCallback>:
  * @brief  Hall commutation changed callback in non-blocking mode
  * @param  htim TIM handle
  * @retval None
  */
__weak void HAL_TIMEx_CommutCallback(TIM_HandleTypeDef *htim)
{
 80017d4:	b480      	push	{r7}
 80017d6:	b083      	sub	sp, #12
 80017d8:	af00      	add	r7, sp, #0
 80017da:	6078      	str	r0, [r7, #4]
  UNUSED(htim);

  /* NOTE : This function should not be modified, when the callback is needed,
            the HAL_TIMEx_CommutCallback could be implemented in the user file
   */
}
 80017dc:	bf00      	nop
 80017de:	370c      	adds	r7, #12
 80017e0:	46bd      	mov	sp, r7
 80017e2:	bc80      	pop	{r7}
 80017e4:	4770      	bx	lr

080017e6 <HAL_TIMEx_BreakCallback>:
  * @brief  Hall Break detection callback in non-blocking mode
  * @param  htim TIM handle
  * @retval None
  */
__weak void HAL_TIMEx_BreakCallback(TIM_HandleTypeDef *htim)
{
 80017e6:	b480      	push	{r7}
 80017e8:	b083      	sub	sp, #12
 80017ea:	af00      	add	r7, sp, #0
 80017ec:	6078      	str	r0, [r7, #4]
  UNUSED(htim);

  /* NOTE : This function should not be modified, when the callback is needed,
            the HAL_TIMEx_BreakCallback could be implemented in the user file
   */
}
 80017ee:	bf00      	nop
 80017f0:	370c      	adds	r7, #12
 80017f2:	46bd      	mov	sp, r7
 80017f4:	bc80      	pop	{r7}
 80017f6:	4770      	bx	lr

080017f8 <HAL_UART_Init>:
  * @param  huart  Pointer to a UART_HandleTypeDef structure that contains
  *                the configuration information for the specified UART module.
  * @retval HAL status
  */
HAL_StatusTypeDef HAL_UART_Init(UART_HandleTypeDef *huart)
{
 80017f8:	b580      	push	{r7, lr}
 80017fa:	b082      	sub	sp, #8
 80017fc:	af00      	add	r7, sp, #0
 80017fe:	6078      	str	r0, [r7, #4]
  /* Check the UART handle allocation */
  if (huart == NULL)
 8001800:	687b      	ldr	r3, [r7, #4]
 8001802:	2b00      	cmp	r3, #0
 8001804:	d101      	bne.n	800180a <HAL_UART_Init+0x12>
  {
    return HAL_ERROR;
 8001806:	2301      	movs	r3, #1
 8001808:	e03f      	b.n	800188a <HAL_UART_Init+0x92>
  assert_param(IS_UART_WORD_LENGTH(huart->Init.WordLength));
#if defined(USART_CR1_OVER8)
  assert_param(IS_UART_OVERSAMPLING(huart->Init.OverSampling));
#endif /* USART_CR1_OVER8 */

  if (huart->gState == HAL_UART_STATE_RESET)
 800180a:	687b      	ldr	r3, [r7, #4]
 800180c:	f893 303d 	ldrb.w	r3, [r3, #61]	; 0x3d
 8001810:	b2db      	uxtb	r3, r3
 8001812:	2b00      	cmp	r3, #0
 8001814:	d106      	bne.n	8001824 <HAL_UART_Init+0x2c>
  {
    /* Allocate lock resource and initialize it */
    huart->Lock = HAL_UNLOCKED;
 8001816:	687b      	ldr	r3, [r7, #4]
 8001818:	2200      	movs	r2, #0
 800181a:	f883 203c 	strb.w	r2, [r3, #60]	; 0x3c

    /* Init the low level hardware */
    huart->MspInitCallback(huart);
#else
    /* Init the low level hardware : GPIO, CLOCK */
    HAL_UART_MspInit(huart);
 800181e:	6878      	ldr	r0, [r7, #4]
 8001820:	f7fe fdc6 	bl	80003b0 <HAL_UART_MspInit>
#endif /* (USE_HAL_UART_REGISTER_CALLBACKS) */
  }

  huart->gState = HAL_UART_STATE_BUSY;
 8001824:	687b      	ldr	r3, [r7, #4]
 8001826:	2224      	movs	r2, #36	; 0x24
 8001828:	f883 203d 	strb.w	r2, [r3, #61]	; 0x3d

  /* Disable the peripheral */
  __HAL_UART_DISABLE(huart);
 800182c:	687b      	ldr	r3, [r7, #4]
 800182e:	681b      	ldr	r3, [r3, #0]
 8001830:	68da      	ldr	r2, [r3, #12]
 8001832:	687b      	ldr	r3, [r7, #4]
 8001834:	681b      	ldr	r3, [r3, #0]
 8001836:	f422 5200 	bic.w	r2, r2, #8192	; 0x2000
 800183a:	60da      	str	r2, [r3, #12]

  /* Set the UART Communication parameters */
  UART_SetConfig(huart);
 800183c:	6878      	ldr	r0, [r7, #4]
 800183e:	f000 f829 	bl	8001894 <UART_SetConfig>

  /* In asynchronous mode, the following bits must be kept cleared:
     - LINEN and CLKEN bits in the USART_CR2 register,
     - SCEN, HDSEL and IREN  bits in the USART_CR3 register.*/
  CLEAR_BIT(huart->Instance->CR2, (USART_CR2_LINEN | USART_CR2_CLKEN));
 8001842:	687b      	ldr	r3, [r7, #4]
 8001844:	681b      	ldr	r3, [r3, #0]
 8001846:	691a      	ldr	r2, [r3, #16]
 8001848:	687b      	ldr	r3, [r7, #4]
 800184a:	681b      	ldr	r3, [r3, #0]
 800184c:	f422 4290 	bic.w	r2, r2, #18432	; 0x4800
 8001850:	611a      	str	r2, [r3, #16]
  CLEAR_BIT(huart->Instance->CR3, (USART_CR3_SCEN | USART_CR3_HDSEL | USART_CR3_IREN));
 8001852:	687b      	ldr	r3, [r7, #4]
 8001854:	681b      	ldr	r3, [r3, #0]
 8001856:	695a      	ldr	r2, [r3, #20]
 8001858:	687b      	ldr	r3, [r7, #4]
 800185a:	681b      	ldr	r3, [r3, #0]
 800185c:	f022 022a 	bic.w	r2, r2, #42	; 0x2a
 8001860:	615a      	str	r2, [r3, #20]

  /* Enable the peripheral */
  __HAL_UART_ENABLE(huart);
 8001862:	687b      	ldr	r3, [r7, #4]
 8001864:	681b      	ldr	r3, [r3, #0]
 8001866:	68da      	ldr	r2, [r3, #12]
 8001868:	687b      	ldr	r3, [r7, #4]
 800186a:	681b      	ldr	r3, [r3, #0]
 800186c:	f442 5200 	orr.w	r2, r2, #8192	; 0x2000
 8001870:	60da      	str	r2, [r3, #12]

  /* Initialize the UART state */
  huart->ErrorCode = HAL_UART_ERROR_NONE;
 8001872:	687b      	ldr	r3, [r7, #4]
 8001874:	2200      	movs	r2, #0
 8001876:	641a      	str	r2, [r3, #64]	; 0x40
  huart->gState = HAL_UART_STATE_READY;
 8001878:	687b      	ldr	r3, [r7, #4]
 800187a:	2220      	movs	r2, #32
 800187c:	f883 203d 	strb.w	r2, [r3, #61]	; 0x3d
  huart->RxState = HAL_UART_STATE_READY;
 8001880:	687b      	ldr	r3, [r7, #4]
 8001882:	2220      	movs	r2, #32
 8001884:	f883 203e 	strb.w	r2, [r3, #62]	; 0x3e

  return HAL_OK;
 8001888:	2300      	movs	r3, #0
}
 800188a:	4618      	mov	r0, r3
 800188c:	3708      	adds	r7, #8
 800188e:	46bd      	mov	sp, r7
 8001890:	bd80      	pop	{r7, pc}
	...

08001894 <UART_SetConfig>:
  * @param  huart  Pointer to a UART_HandleTypeDef structure that contains
  *                the configuration information for the specified UART module.
  * @retval None
  */
static void UART_SetConfig(UART_HandleTypeDef *huart)
{
 8001894:	b580      	push	{r7, lr}
 8001896:	b084      	sub	sp, #16
 8001898:	af00      	add	r7, sp, #0
 800189a:	6078      	str	r0, [r7, #4]
  assert_param(IS_UART_MODE(huart->Init.Mode));

  /*-------------------------- USART CR2 Configuration -----------------------*/
  /* Configure the UART Stop Bits: Set STOP[13:12] bits
     according to huart->Init.StopBits value */
  MODIFY_REG(huart->Instance->CR2, USART_CR2_STOP, huart->Init.StopBits);
 800189c:	687b      	ldr	r3, [r7, #4]
 800189e:	681b      	ldr	r3, [r3, #0]
 80018a0:	691b      	ldr	r3, [r3, #16]
 80018a2:	f423 5140 	bic.w	r1, r3, #12288	; 0x3000
 80018a6:	687b      	ldr	r3, [r7, #4]
 80018a8:	68da      	ldr	r2, [r3, #12]
 80018aa:	687b      	ldr	r3, [r7, #4]
 80018ac:	681b      	ldr	r3, [r3, #0]
 80018ae:	430a      	orrs	r2, r1
 80018b0:	611a      	str	r2, [r3, #16]
  tmpreg = (uint32_t)huart->Init.WordLength | huart->Init.Parity | huart->Init.Mode | huart->Init.OverSampling;
  MODIFY_REG(huart->Instance->CR1,
             (uint32_t)(USART_CR1_M | USART_CR1_PCE | USART_CR1_PS | USART_CR1_TE | USART_CR1_RE | USART_CR1_OVER8),
             tmpreg);
#else
  tmpreg = (uint32_t)huart->Init.WordLength | huart->Init.Parity | huart->Init.Mode;
 80018b2:	687b      	ldr	r3, [r7, #4]
 80018b4:	689a      	ldr	r2, [r3, #8]
 80018b6:	687b      	ldr	r3, [r7, #4]
 80018b8:	691b      	ldr	r3, [r3, #16]
 80018ba:	431a      	orrs	r2, r3
 80018bc:	687b      	ldr	r3, [r7, #4]
 80018be:	695b      	ldr	r3, [r3, #20]
 80018c0:	4313      	orrs	r3, r2
 80018c2:	60bb      	str	r3, [r7, #8]
  MODIFY_REG(huart->Instance->CR1,
 80018c4:	687b      	ldr	r3, [r7, #4]
 80018c6:	681b      	ldr	r3, [r3, #0]
 80018c8:	68db      	ldr	r3, [r3, #12]
 80018ca:	f423 53b0 	bic.w	r3, r3, #5632	; 0x1600
 80018ce:	f023 030c 	bic.w	r3, r3, #12
 80018d2:	687a      	ldr	r2, [r7, #4]
 80018d4:	6812      	ldr	r2, [r2, #0]
 80018d6:	68b9      	ldr	r1, [r7, #8]
 80018d8:	430b      	orrs	r3, r1
 80018da:	60d3      	str	r3, [r2, #12]
             tmpreg);
#endif /* USART_CR1_OVER8 */

  /*-------------------------- USART CR3 Configuration -----------------------*/
  /* Configure the UART HFC: Set CTSE and RTSE bits according to huart->Init.HwFlowCtl value */
  MODIFY_REG(huart->Instance->CR3, (USART_CR3_RTSE | USART_CR3_CTSE), huart->Init.HwFlowCtl);
 80018dc:	687b      	ldr	r3, [r7, #4]
 80018de:	681b      	ldr	r3, [r3, #0]
 80018e0:	695b      	ldr	r3, [r3, #20]
 80018e2:	f423 7140 	bic.w	r1, r3, #768	; 0x300
 80018e6:	687b      	ldr	r3, [r7, #4]
 80018e8:	699a      	ldr	r2, [r3, #24]
 80018ea:	687b      	ldr	r3, [r7, #4]
 80018ec:	681b      	ldr	r3, [r3, #0]
 80018ee:	430a      	orrs	r2, r1
 80018f0:	615a      	str	r2, [r3, #20]


  if(huart->Instance == USART1)
 80018f2:	687b      	ldr	r3, [r7, #4]
 80018f4:	681b      	ldr	r3, [r3, #0]
 80018f6:	4a2c      	ldr	r2, [pc, #176]	; (80019a8 <UART_SetConfig+0x114>)
 80018f8:	4293      	cmp	r3, r2
 80018fa:	d103      	bne.n	8001904 <UART_SetConfig+0x70>
  {
    pclk = HAL_RCC_GetPCLK2Freq();
 80018fc:	f7ff fcd0 	bl	80012a0 <HAL_RCC_GetPCLK2Freq>
 8001900:	60f8      	str	r0, [r7, #12]
 8001902:	e002      	b.n	800190a <UART_SetConfig+0x76>
  }
  else
  {
    pclk = HAL_RCC_GetPCLK1Freq();
 8001904:	f7ff fcb8 	bl	8001278 <HAL_RCC_GetPCLK1Freq>
 8001908:	60f8      	str	r0, [r7, #12]
  else
  {
    huart->Instance->BRR = UART_BRR_SAMPLING16(pclk, huart->Init.BaudRate);
  }
#else
  huart->Instance->BRR = UART_BRR_SAMPLING16(pclk, huart->Init.BaudRate);
 800190a:	68fa      	ldr	r2, [r7, #12]
 800190c:	4613      	mov	r3, r2
 800190e:	009b      	lsls	r3, r3, #2
 8001910:	4413      	add	r3, r2
 8001912:	009a      	lsls	r2, r3, #2
 8001914:	441a      	add	r2, r3
 8001916:	687b      	ldr	r3, [r7, #4]
 8001918:	685b      	ldr	r3, [r3, #4]
 800191a:	009b      	lsls	r3, r3, #2
 800191c:	fbb2 f3f3 	udiv	r3, r2, r3
 8001920:	4a22      	ldr	r2, [pc, #136]	; (80019ac <UART_SetConfig+0x118>)
 8001922:	fba2 2303 	umull	r2, r3, r2, r3
 8001926:	095b      	lsrs	r3, r3, #5
 8001928:	0119      	lsls	r1, r3, #4
 800192a:	68fa      	ldr	r2, [r7, #12]
 800192c:	4613      	mov	r3, r2
 800192e:	009b      	lsls	r3, r3, #2
 8001930:	4413      	add	r3, r2
 8001932:	009a      	lsls	r2, r3, #2
 8001934:	441a      	add	r2, r3
 8001936:	687b      	ldr	r3, [r7, #4]
 8001938:	685b      	ldr	r3, [r3, #4]
 800193a:	009b      	lsls	r3, r3, #2
 800193c:	fbb2 f2f3 	udiv	r2, r2, r3
 8001940:	4b1a      	ldr	r3, [pc, #104]	; (80019ac <UART_SetConfig+0x118>)
 8001942:	fba3 0302 	umull	r0, r3, r3, r2
 8001946:	095b      	lsrs	r3, r3, #5
 8001948:	2064      	movs	r0, #100	; 0x64
 800194a:	fb00 f303 	mul.w	r3, r0, r3
 800194e:	1ad3      	subs	r3, r2, r3
 8001950:	011b      	lsls	r3, r3, #4
 8001952:	3332      	adds	r3, #50	; 0x32
 8001954:	4a15      	ldr	r2, [pc, #84]	; (80019ac <UART_SetConfig+0x118>)
 8001956:	fba2 2303 	umull	r2, r3, r2, r3
 800195a:	095b      	lsrs	r3, r3, #5
 800195c:	f003 03f0 	and.w	r3, r3, #240	; 0xf0
 8001960:	4419      	add	r1, r3
 8001962:	68fa      	ldr	r2, [r7, #12]
 8001964:	4613      	mov	r3, r2
 8001966:	009b      	lsls	r3, r3, #2
 8001968:	4413      	add	r3, r2
 800196a:	009a      	lsls	r2, r3, #2
 800196c:	441a      	add	r2, r3
 800196e:	687b      	ldr	r3, [r7, #4]
 8001970:	685b      	ldr	r3, [r3, #4]
 8001972:	009b      	lsls	r3, r3, #2
 8001974:	fbb2 f2f3 	udiv	r2, r2, r3
 8001978:	4b0c      	ldr	r3, [pc, #48]	; (80019ac <UART_SetConfig+0x118>)
 800197a:	fba3 0302 	umull	r0, r3, r3, r2
 800197e:	095b      	lsrs	r3, r3, #5
 8001980:	2064      	movs	r0, #100	; 0x64
 8001982:	fb00 f303 	mul.w	r3, r0, r3
 8001986:	1ad3      	subs	r3, r2, r3
 8001988:	011b      	lsls	r3, r3, #4
 800198a:	3332      	adds	r3, #50	; 0x32
 800198c:	4a07      	ldr	r2, [pc, #28]	; (80019ac <UART_SetConfig+0x118>)
 800198e:	fba2 2303 	umull	r2, r3, r2, r3
 8001992:	095b      	lsrs	r3, r3, #5
 8001994:	f003 020f 	and.w	r2, r3, #15
 8001998:	687b      	ldr	r3, [r7, #4]
 800199a:	681b      	ldr	r3, [r3, #0]
 800199c:	440a      	add	r2, r1
 800199e:	609a      	str	r2, [r3, #8]
#endif /* USART_CR1_OVER8 */
}
 80019a0:	bf00      	nop
 80019a2:	3710      	adds	r7, #16
 80019a4:	46bd      	mov	sp, r7
 80019a6:	bd80      	pop	{r7, pc}
 80019a8:	40013800 	.word	0x40013800
 80019ac:	51eb851f 	.word	0x51eb851f

080019b0 <vApplicationGetIdleTaskMemory>:

/*
  vApplicationGetIdleTaskMemory gets called when configSUPPORT_STATIC_ALLOCATION
  equals to 1 and is required for static memory allocation support.
*/
void vApplicationGetIdleTaskMemory (StaticTask_t **ppxIdleTaskTCBBuffer, StackType_t **ppxIdleTaskStackBuffer, uint32_t *pulIdleTaskStackSize) {
 80019b0:	b480      	push	{r7}
 80019b2:	b085      	sub	sp, #20
 80019b4:	af00      	add	r7, sp, #0
 80019b6:	60f8      	str	r0, [r7, #12]
 80019b8:	60b9      	str	r1, [r7, #8]
 80019ba:	607a      	str	r2, [r7, #4]
  *ppxIdleTaskTCBBuffer   = &Idle_TCB;
 80019bc:	68fb      	ldr	r3, [r7, #12]
 80019be:	4a06      	ldr	r2, [pc, #24]	; (80019d8 <vApplicationGetIdleTaskMemory+0x28>)
 80019c0:	601a      	str	r2, [r3, #0]
  *ppxIdleTaskStackBuffer = &Idle_Stack[0];
 80019c2:	68bb      	ldr	r3, [r7, #8]
 80019c4:	4a05      	ldr	r2, [pc, #20]	; (80019dc <vApplicationGetIdleTaskMemory+0x2c>)
 80019c6:	601a      	str	r2, [r3, #0]
  *pulIdleTaskStackSize   = (uint32_t)configMINIMAL_STACK_SIZE;
 80019c8:	687b      	ldr	r3, [r7, #4]
 80019ca:	2280      	movs	r2, #128	; 0x80
 80019cc:	601a      	str	r2, [r3, #0]
}
 80019ce:	bf00      	nop
 80019d0:	3714      	adds	r7, #20
 80019d2:	46bd      	mov	sp, r7
 80019d4:	bc80      	pop	{r7}
 80019d6:	4770      	bx	lr
 80019d8:	2000002c 	.word	0x2000002c
 80019dc:	20000088 	.word	0x20000088

080019e0 <vApplicationGetTimerTaskMemory>:

/*
  vApplicationGetTimerTaskMemory gets called when configSUPPORT_STATIC_ALLOCATION
  equals to 1 and is required for static memory allocation support.
*/
void vApplicationGetTimerTaskMemory (StaticTask_t **ppxTimerTaskTCBBuffer, StackType_t **ppxTimerTaskStackBuffer, uint32_t *pulTimerTaskStackSize) {
 80019e0:	b480      	push	{r7}
 80019e2:	b085      	sub	sp, #20
 80019e4:	af00      	add	r7, sp, #0
 80019e6:	60f8      	str	r0, [r7, #12]
 80019e8:	60b9      	str	r1, [r7, #8]
 80019ea:	607a      	str	r2, [r7, #4]
  *ppxTimerTaskTCBBuffer   = &Timer_TCB;
 80019ec:	68fb      	ldr	r3, [r7, #12]
 80019ee:	4a07      	ldr	r2, [pc, #28]	; (8001a0c <vApplicationGetTimerTaskMemory+0x2c>)
 80019f0:	601a      	str	r2, [r3, #0]
  *ppxTimerTaskStackBuffer = &Timer_Stack[0];
 80019f2:	68bb      	ldr	r3, [r7, #8]
 80019f4:	4a06      	ldr	r2, [pc, #24]	; (8001a10 <vApplicationGetTimerTaskMemory+0x30>)
 80019f6:	601a      	str	r2, [r3, #0]
  *pulTimerTaskStackSize   = (uint32_t)configTIMER_TASK_STACK_DEPTH;
 80019f8:	687b      	ldr	r3, [r7, #4]
 80019fa:	f44f 7280 	mov.w	r2, #256	; 0x100
 80019fe:	601a      	str	r2, [r3, #0]
}
 8001a00:	bf00      	nop
 8001a02:	3714      	adds	r7, #20
 8001a04:	46bd      	mov	sp, r7
 8001a06:	bc80      	pop	{r7}
 8001a08:	4770      	bx	lr
 8001a0a:	bf00      	nop
 8001a0c:	20000288 	.word	0x20000288
 8001a10:	200002e4 	.word	0x200002e4

08001a14 <vListInitialise>:
/*-----------------------------------------------------------
 * PUBLIC LIST API documented in list.h
 *----------------------------------------------------------*/

void vListInitialise( List_t * const pxList )
{
 8001a14:	b480      	push	{r7}
 8001a16:	b083      	sub	sp, #12
 8001a18:	af00      	add	r7, sp, #0
 8001a1a:	6078      	str	r0, [r7, #4]
	/* The list structure contains a list item which is used to mark the
	end of the list.  To initialise the list the list end is inserted
	as the only list entry. */
	pxList->pxIndex = ( ListItem_t * ) &( pxList->xListEnd );			/*lint !e826 !e740 The mini list structure is used as the list end to save RAM.  This is checked and valid. */
 8001a1c:	687b      	ldr	r3, [r7, #4]
 8001a1e:	f103 0208 	add.w	r2, r3, #8
 8001a22:	687b      	ldr	r3, [r7, #4]
 8001a24:	605a      	str	r2, [r3, #4]

	/* The list end value is the highest possible value in the list to
	ensure it remains at the end of the list. */
	pxList->xListEnd.xItemValue = portMAX_DELAY;
 8001a26:	687b      	ldr	r3, [r7, #4]
 8001a28:	f04f 32ff 	mov.w	r2, #4294967295
 8001a2c:	609a      	str	r2, [r3, #8]

	/* The list end next and previous pointers point to itself so we know
	when the list is empty. */
	pxList->xListEnd.pxNext = ( ListItem_t * ) &( pxList->xListEnd );	/*lint !e826 !e740 The mini list structure is used as the list end to save RAM.  This is checked and valid. */
 8001a2e:	687b      	ldr	r3, [r7, #4]
 8001a30:	f103 0208 	add.w	r2, r3, #8
 8001a34:	687b      	ldr	r3, [r7, #4]
 8001a36:	60da      	str	r2, [r3, #12]
	pxList->xListEnd.pxPrevious = ( ListItem_t * ) &( pxList->xListEnd );/*lint !e826 !e740 The mini list structure is used as the list end to save RAM.  This is checked and valid. */
 8001a38:	687b      	ldr	r3, [r7, #4]
 8001a3a:	f103 0208 	add.w	r2, r3, #8
 8001a3e:	687b      	ldr	r3, [r7, #4]
 8001a40:	611a      	str	r2, [r3, #16]

	pxList->uxNumberOfItems = ( UBaseType_t ) 0U;
 8001a42:	687b      	ldr	r3, [r7, #4]
 8001a44:	2200      	movs	r2, #0
 8001a46:	601a      	str	r2, [r3, #0]

	/* Write known values into the list if
	configUSE_LIST_DATA_INTEGRITY_CHECK_BYTES is set to 1. */
	listSET_LIST_INTEGRITY_CHECK_1_VALUE( pxList );
	listSET_LIST_INTEGRITY_CHECK_2_VALUE( pxList );
}
 8001a48:	bf00      	nop
 8001a4a:	370c      	adds	r7, #12
 8001a4c:	46bd      	mov	sp, r7
 8001a4e:	bc80      	pop	{r7}
 8001a50:	4770      	bx	lr

08001a52 <vListInitialiseItem>:
/*-----------------------------------------------------------*/

void vListInitialiseItem( ListItem_t * const pxItem )
{
 8001a52:	b480      	push	{r7}
 8001a54:	b083      	sub	sp, #12
 8001a56:	af00      	add	r7, sp, #0
 8001a58:	6078      	str	r0, [r7, #4]
	/* Make sure the list item is not recorded as being on a list. */
	pxItem->pvContainer = NULL;
 8001a5a:	687b      	ldr	r3, [r7, #4]
 8001a5c:	2200      	movs	r2, #0
 8001a5e:	611a      	str	r2, [r3, #16]

	/* Write known values into the list item if
	configUSE_LIST_DATA_INTEGRITY_CHECK_BYTES is set to 1. */
	listSET_FIRST_LIST_ITEM_INTEGRITY_CHECK_VALUE( pxItem );
	listSET_SECOND_LIST_ITEM_INTEGRITY_CHECK_VALUE( pxItem );
}
 8001a60:	bf00      	nop
 8001a62:	370c      	adds	r7, #12
 8001a64:	46bd      	mov	sp, r7
 8001a66:	bc80      	pop	{r7}
 8001a68:	4770      	bx	lr

08001a6a <vListInsertEnd>:
/*-----------------------------------------------------------*/

void vListInsertEnd( List_t * const pxList, ListItem_t * const pxNewListItem )
{
 8001a6a:	b480      	push	{r7}
 8001a6c:	b085      	sub	sp, #20
 8001a6e:	af00      	add	r7, sp, #0
 8001a70:	6078      	str	r0, [r7, #4]
 8001a72:	6039      	str	r1, [r7, #0]
ListItem_t * const pxIndex = pxList->pxIndex;
 8001a74:	687b      	ldr	r3, [r7, #4]
 8001a76:	685b      	ldr	r3, [r3, #4]
 8001a78:	60fb      	str	r3, [r7, #12]
	listTEST_LIST_ITEM_INTEGRITY( pxNewListItem );

	/* Insert a new list item into pxList, but rather than sort the list,
	makes the new list item the last item to be removed by a call to
	listGET_OWNER_OF_NEXT_ENTRY(). */
	pxNewListItem->pxNext = pxIndex;
 8001a7a:	683b      	ldr	r3, [r7, #0]
 8001a7c:	68fa      	ldr	r2, [r7, #12]
 8001a7e:	605a      	str	r2, [r3, #4]
	pxNewListItem->pxPrevious = pxIndex->pxPrevious;
 8001a80:	68fb      	ldr	r3, [r7, #12]
 8001a82:	689a      	ldr	r2, [r3, #8]
 8001a84:	683b      	ldr	r3, [r7, #0]
 8001a86:	609a      	str	r2, [r3, #8]

	/* Only used during decision coverage testing. */
	mtCOVERAGE_TEST_DELAY();

	pxIndex->pxPrevious->pxNext = pxNewListItem;
 8001a88:	68fb      	ldr	r3, [r7, #12]
 8001a8a:	689b      	ldr	r3, [r3, #8]
 8001a8c:	683a      	ldr	r2, [r7, #0]
 8001a8e:	605a      	str	r2, [r3, #4]
	pxIndex->pxPrevious = pxNewListItem;
 8001a90:	68fb      	ldr	r3, [r7, #12]
 8001a92:	683a      	ldr	r2, [r7, #0]
 8001a94:	609a      	str	r2, [r3, #8]

	/* Remember which list the item is in. */
	pxNewListItem->pvContainer = ( void * ) pxList;
 8001a96:	683b      	ldr	r3, [r7, #0]
 8001a98:	687a      	ldr	r2, [r7, #4]
 8001a9a:	611a      	str	r2, [r3, #16]

	( pxList->uxNumberOfItems )++;
 8001a9c:	687b      	ldr	r3, [r7, #4]
 8001a9e:	681b      	ldr	r3, [r3, #0]
 8001aa0:	1c5a      	adds	r2, r3, #1
 8001aa2:	687b      	ldr	r3, [r7, #4]
 8001aa4:	601a      	str	r2, [r3, #0]
}
 8001aa6:	bf00      	nop
 8001aa8:	3714      	adds	r7, #20
 8001aaa:	46bd      	mov	sp, r7
 8001aac:	bc80      	pop	{r7}
 8001aae:	4770      	bx	lr

08001ab0 <vListInsert>:
/*-----------------------------------------------------------*/

void vListInsert( List_t * const pxList, ListItem_t * const pxNewListItem )
{
 8001ab0:	b480      	push	{r7}
 8001ab2:	b085      	sub	sp, #20
 8001ab4:	af00      	add	r7, sp, #0
 8001ab6:	6078      	str	r0, [r7, #4]
 8001ab8:	6039      	str	r1, [r7, #0]
ListItem_t *pxIterator;
const TickType_t xValueOfInsertion = pxNewListItem->xItemValue;
 8001aba:	683b      	ldr	r3, [r7, #0]
 8001abc:	681b      	ldr	r3, [r3, #0]
 8001abe:	60bb      	str	r3, [r7, #8]
	new list item should be placed after it.  This ensures that TCB's which are
	stored in ready lists (all of which have the same xItemValue value) get a
	share of the CPU.  However, if the xItemValue is the same as the back marker
	the iteration loop below will not end.  Therefore the value is checked
	first, and the algorithm slightly modified if necessary. */
	if( xValueOfInsertion == portMAX_DELAY )
 8001ac0:	68bb      	ldr	r3, [r7, #8]
 8001ac2:	f1b3 3fff 	cmp.w	r3, #4294967295
 8001ac6:	d103      	bne.n	8001ad0 <vListInsert+0x20>
	{
		pxIterator = pxList->xListEnd.pxPrevious;
 8001ac8:	687b      	ldr	r3, [r7, #4]
 8001aca:	691b      	ldr	r3, [r3, #16]
 8001acc:	60fb      	str	r3, [r7, #12]
 8001ace:	e00c      	b.n	8001aea <vListInsert+0x3a>
			4) Using a queue or semaphore before it has been initialised or
			   before the scheduler has been started (are interrupts firing
			   before vTaskStartScheduler() has been called?).
		**********************************************************************/

		for( pxIterator = ( ListItem_t * ) &( pxList->xListEnd ); pxIterator->pxNext->xItemValue <= xValueOfInsertion; pxIterator = pxIterator->pxNext ) /*lint !e826 !e740 The mini list structure is used as the list end to save RAM.  This is checked and valid. */
 8001ad0:	687b      	ldr	r3, [r7, #4]
 8001ad2:	3308      	adds	r3, #8
 8001ad4:	60fb      	str	r3, [r7, #12]
 8001ad6:	e002      	b.n	8001ade <vListInsert+0x2e>
 8001ad8:	68fb      	ldr	r3, [r7, #12]
 8001ada:	685b      	ldr	r3, [r3, #4]
 8001adc:	60fb      	str	r3, [r7, #12]
 8001ade:	68fb      	ldr	r3, [r7, #12]
 8001ae0:	685b      	ldr	r3, [r3, #4]
 8001ae2:	681b      	ldr	r3, [r3, #0]
 8001ae4:	68ba      	ldr	r2, [r7, #8]
 8001ae6:	429a      	cmp	r2, r3
 8001ae8:	d2f6      	bcs.n	8001ad8 <vListInsert+0x28>
			/* There is nothing to do here, just iterating to the wanted
			insertion position. */
		}
	}

	pxNewListItem->pxNext = pxIterator->pxNext;
 8001aea:	68fb      	ldr	r3, [r7, #12]
 8001aec:	685a      	ldr	r2, [r3, #4]
 8001aee:	683b      	ldr	r3, [r7, #0]
 8001af0:	605a      	str	r2, [r3, #4]
	pxNewListItem->pxNext->pxPrevious = pxNewListItem;
 8001af2:	683b      	ldr	r3, [r7, #0]
 8001af4:	685b      	ldr	r3, [r3, #4]
 8001af6:	683a      	ldr	r2, [r7, #0]
 8001af8:	609a      	str	r2, [r3, #8]
	pxNewListItem->pxPrevious = pxIterator;
 8001afa:	683b      	ldr	r3, [r7, #0]
 8001afc:	68fa      	ldr	r2, [r7, #12]
 8001afe:	609a      	str	r2, [r3, #8]
	pxIterator->pxNext = pxNewListItem;
 8001b00:	68fb      	ldr	r3, [r7, #12]
 8001b02:	683a      	ldr	r2, [r7, #0]
 8001b04:	605a      	str	r2, [r3, #4]

	/* Remember which list the item is in.  This allows fast removal of the
	item later. */
	pxNewListItem->pvContainer = ( void * ) pxList;
 8001b06:	683b      	ldr	r3, [r7, #0]
 8001b08:	687a      	ldr	r2, [r7, #4]
 8001b0a:	611a      	str	r2, [r3, #16]

	( pxList->uxNumberOfItems )++;
 8001b0c:	687b      	ldr	r3, [r7, #4]
 8001b0e:	681b      	ldr	r3, [r3, #0]
 8001b10:	1c5a      	adds	r2, r3, #1
 8001b12:	687b      	ldr	r3, [r7, #4]
 8001b14:	601a      	str	r2, [r3, #0]
}
 8001b16:	bf00      	nop
 8001b18:	3714      	adds	r7, #20
 8001b1a:	46bd      	mov	sp, r7
 8001b1c:	bc80      	pop	{r7}
 8001b1e:	4770      	bx	lr

08001b20 <uxListRemove>:
/*-----------------------------------------------------------*/

UBaseType_t uxListRemove( ListItem_t * const pxItemToRemove )
{
 8001b20:	b480      	push	{r7}
 8001b22:	b085      	sub	sp, #20
 8001b24:	af00      	add	r7, sp, #0
 8001b26:	6078      	str	r0, [r7, #4]
/* The list item knows which list it is in.  Obtain the list from the list
item. */
List_t * const pxList = ( List_t * ) pxItemToRemove->pvContainer;
 8001b28:	687b      	ldr	r3, [r7, #4]
 8001b2a:	691b      	ldr	r3, [r3, #16]
 8001b2c:	60fb      	str	r3, [r7, #12]

	pxItemToRemove->pxNext->pxPrevious = pxItemToRemove->pxPrevious;
 8001b2e:	687b      	ldr	r3, [r7, #4]
 8001b30:	685b      	ldr	r3, [r3, #4]
 8001b32:	687a      	ldr	r2, [r7, #4]
 8001b34:	6892      	ldr	r2, [r2, #8]
 8001b36:	609a      	str	r2, [r3, #8]
	pxItemToRemove->pxPrevious->pxNext = pxItemToRemove->pxNext;
 8001b38:	687b      	ldr	r3, [r7, #4]
 8001b3a:	689b      	ldr	r3, [r3, #8]
 8001b3c:	687a      	ldr	r2, [r7, #4]
 8001b3e:	6852      	ldr	r2, [r2, #4]
 8001b40:	605a      	str	r2, [r3, #4]

	/* Only used during decision coverage testing. */
	mtCOVERAGE_TEST_DELAY();

	/* Make sure the index is left pointing to a valid item. */
	if( pxList->pxIndex == pxItemToRemove )
 8001b42:	68fb      	ldr	r3, [r7, #12]
 8001b44:	685b      	ldr	r3, [r3, #4]
 8001b46:	687a      	ldr	r2, [r7, #4]
 8001b48:	429a      	cmp	r2, r3
 8001b4a:	d103      	bne.n	8001b54 <uxListRemove+0x34>
	{
		pxList->pxIndex = pxItemToRemove->pxPrevious;
 8001b4c:	687b      	ldr	r3, [r7, #4]
 8001b4e:	689a      	ldr	r2, [r3, #8]
 8001b50:	68fb      	ldr	r3, [r7, #12]
 8001b52:	605a      	str	r2, [r3, #4]
	else
	{
		mtCOVERAGE_TEST_MARKER();
	}

	pxItemToRemove->pvContainer = NULL;
 8001b54:	687b      	ldr	r3, [r7, #4]
 8001b56:	2200      	movs	r2, #0
 8001b58:	611a      	str	r2, [r3, #16]
	( pxList->uxNumberOfItems )--;
 8001b5a:	68fb      	ldr	r3, [r7, #12]
 8001b5c:	681b      	ldr	r3, [r3, #0]
 8001b5e:	1e5a      	subs	r2, r3, #1
 8001b60:	68fb      	ldr	r3, [r7, #12]
 8001b62:	601a      	str	r2, [r3, #0]

	return pxList->uxNumberOfItems;
 8001b64:	68fb      	ldr	r3, [r7, #12]
 8001b66:	681b      	ldr	r3, [r3, #0]
}
 8001b68:	4618      	mov	r0, r3
 8001b6a:	3714      	adds	r7, #20
 8001b6c:	46bd      	mov	sp, r7
 8001b6e:	bc80      	pop	{r7}
 8001b70:	4770      	bx	lr
	...

08001b74 <xQueueGenericReset>:
	}														\
	taskEXIT_CRITICAL()
/*-----------------------------------------------------------*/

BaseType_t xQueueGenericReset( QueueHandle_t xQueue, BaseType_t xNewQueue )
{
 8001b74:	b580      	push	{r7, lr}
 8001b76:	b084      	sub	sp, #16
 8001b78:	af00      	add	r7, sp, #0
 8001b7a:	6078      	str	r0, [r7, #4]
 8001b7c:	6039      	str	r1, [r7, #0]
Queue_t * const pxQueue = ( Queue_t * ) xQueue;
 8001b7e:	687b      	ldr	r3, [r7, #4]
 8001b80:	60fb      	str	r3, [r7, #12]

	configASSERT( pxQueue );
 8001b82:	68fb      	ldr	r3, [r7, #12]
 8001b84:	2b00      	cmp	r3, #0
 8001b86:	d109      	bne.n	8001b9c <xQueueGenericReset+0x28>

portFORCE_INLINE static void vPortRaiseBASEPRI( void )
{
uint32_t ulNewBASEPRI;

	__asm volatile
 8001b88:	f04f 0350 	mov.w	r3, #80	; 0x50
 8001b8c:	f383 8811 	msr	BASEPRI, r3
 8001b90:	f3bf 8f6f 	isb	sy
 8001b94:	f3bf 8f4f 	dsb	sy
 8001b98:	60bb      	str	r3, [r7, #8]
 8001b9a:	e7fe      	b.n	8001b9a <xQueueGenericReset+0x26>

	taskENTER_CRITICAL();
 8001b9c:	f001 ff94 	bl	8003ac8 <vPortEnterCritical>
	{
		pxQueue->pcTail = pxQueue->pcHead + ( pxQueue->uxLength * pxQueue->uxItemSize );
 8001ba0:	68fb      	ldr	r3, [r7, #12]
 8001ba2:	681a      	ldr	r2, [r3, #0]
 8001ba4:	68fb      	ldr	r3, [r7, #12]
 8001ba6:	6bdb      	ldr	r3, [r3, #60]	; 0x3c
 8001ba8:	68f9      	ldr	r1, [r7, #12]
 8001baa:	6c09      	ldr	r1, [r1, #64]	; 0x40
 8001bac:	fb01 f303 	mul.w	r3, r1, r3
 8001bb0:	441a      	add	r2, r3
 8001bb2:	68fb      	ldr	r3, [r7, #12]
 8001bb4:	605a      	str	r2, [r3, #4]
		pxQueue->uxMessagesWaiting = ( UBaseType_t ) 0U;
 8001bb6:	68fb      	ldr	r3, [r7, #12]
 8001bb8:	2200      	movs	r2, #0
 8001bba:	639a      	str	r2, [r3, #56]	; 0x38
		pxQueue->pcWriteTo = pxQueue->pcHead;
 8001bbc:	68fb      	ldr	r3, [r7, #12]
 8001bbe:	681a      	ldr	r2, [r3, #0]
 8001bc0:	68fb      	ldr	r3, [r7, #12]
 8001bc2:	609a      	str	r2, [r3, #8]
		pxQueue->u.pcReadFrom = pxQueue->pcHead + ( ( pxQueue->uxLength - ( UBaseType_t ) 1U ) * pxQueue->uxItemSize );
 8001bc4:	68fb      	ldr	r3, [r7, #12]
 8001bc6:	681a      	ldr	r2, [r3, #0]
 8001bc8:	68fb      	ldr	r3, [r7, #12]
 8001bca:	6bdb      	ldr	r3, [r3, #60]	; 0x3c
 8001bcc:	3b01      	subs	r3, #1
 8001bce:	68f9      	ldr	r1, [r7, #12]
 8001bd0:	6c09      	ldr	r1, [r1, #64]	; 0x40
 8001bd2:	fb01 f303 	mul.w	r3, r1, r3
 8001bd6:	441a      	add	r2, r3
 8001bd8:	68fb      	ldr	r3, [r7, #12]
 8001bda:	60da      	str	r2, [r3, #12]
		pxQueue->cRxLock = queueUNLOCKED;
 8001bdc:	68fb      	ldr	r3, [r7, #12]
 8001bde:	22ff      	movs	r2, #255	; 0xff
 8001be0:	f883 2044 	strb.w	r2, [r3, #68]	; 0x44
		pxQueue->cTxLock = queueUNLOCKED;
 8001be4:	68fb      	ldr	r3, [r7, #12]
 8001be6:	22ff      	movs	r2, #255	; 0xff
 8001be8:	f883 2045 	strb.w	r2, [r3, #69]	; 0x45

		if( xNewQueue == pdFALSE )
 8001bec:	683b      	ldr	r3, [r7, #0]
 8001bee:	2b00      	cmp	r3, #0
 8001bf0:	d114      	bne.n	8001c1c <xQueueGenericReset+0xa8>
			/* If there are tasks blocked waiting to read from the queue, then
			the tasks will remain blocked as after this function exits the queue
			will still be empty.  If there are tasks blocked waiting to write to
			the queue, then one should be unblocked as after this function exits
			it will be possible to write to it. */
			if( listLIST_IS_EMPTY( &( pxQueue->xTasksWaitingToSend ) ) == pdFALSE )
 8001bf2:	68fb      	ldr	r3, [r7, #12]
 8001bf4:	691b      	ldr	r3, [r3, #16]
 8001bf6:	2b00      	cmp	r3, #0
 8001bf8:	d01a      	beq.n	8001c30 <xQueueGenericReset+0xbc>
			{
				if( xTaskRemoveFromEventList( &( pxQueue->xTasksWaitingToSend ) ) != pdFALSE )
 8001bfa:	68fb      	ldr	r3, [r7, #12]
 8001bfc:	3310      	adds	r3, #16
 8001bfe:	4618      	mov	r0, r3
 8001c00:	f001 f8d8 	bl	8002db4 <xTaskRemoveFromEventList>
 8001c04:	4603      	mov	r3, r0
 8001c06:	2b00      	cmp	r3, #0
 8001c08:	d012      	beq.n	8001c30 <xQueueGenericReset+0xbc>
				{
					queueYIELD_IF_USING_PREEMPTION();
 8001c0a:	4b0d      	ldr	r3, [pc, #52]	; (8001c40 <xQueueGenericReset+0xcc>)
 8001c0c:	f04f 5280 	mov.w	r2, #268435456	; 0x10000000
 8001c10:	601a      	str	r2, [r3, #0]
 8001c12:	f3bf 8f4f 	dsb	sy
 8001c16:	f3bf 8f6f 	isb	sy
 8001c1a:	e009      	b.n	8001c30 <xQueueGenericReset+0xbc>
			}
		}
		else
		{
			/* Ensure the event queues start in the correct state. */
			vListInitialise( &( pxQueue->xTasksWaitingToSend ) );
 8001c1c:	68fb      	ldr	r3, [r7, #12]
 8001c1e:	3310      	adds	r3, #16
 8001c20:	4618      	mov	r0, r3
 8001c22:	f7ff fef7 	bl	8001a14 <vListInitialise>
			vListInitialise( &( pxQueue->xTasksWaitingToReceive ) );
 8001c26:	68fb      	ldr	r3, [r7, #12]
 8001c28:	3324      	adds	r3, #36	; 0x24
 8001c2a:	4618      	mov	r0, r3
 8001c2c:	f7ff fef2 	bl	8001a14 <vListInitialise>
		}
	}
	taskEXIT_CRITICAL();
 8001c30:	f001 ff78 	bl	8003b24 <vPortExitCritical>

	/* A value is returned for calling semantic consistency with previous
	versions. */
	return pdPASS;
 8001c34:	2301      	movs	r3, #1
}
 8001c36:	4618      	mov	r0, r3
 8001c38:	3710      	adds	r7, #16
 8001c3a:	46bd      	mov	sp, r7
 8001c3c:	bd80      	pop	{r7, pc}
 8001c3e:	bf00      	nop
 8001c40:	e000ed04 	.word	0xe000ed04

08001c44 <xQueueGenericCreateStatic>:
/*-----------------------------------------------------------*/

#if( configSUPPORT_STATIC_ALLOCATION == 1 )

	QueueHandle_t xQueueGenericCreateStatic( const UBaseType_t uxQueueLength, const UBaseType_t uxItemSize, uint8_t *pucQueueStorage, StaticQueue_t *pxStaticQueue, const uint8_t ucQueueType )
	{
 8001c44:	b580      	push	{r7, lr}
 8001c46:	b08e      	sub	sp, #56	; 0x38
 8001c48:	af02      	add	r7, sp, #8
 8001c4a:	60f8      	str	r0, [r7, #12]
 8001c4c:	60b9      	str	r1, [r7, #8]
 8001c4e:	607a      	str	r2, [r7, #4]
 8001c50:	603b      	str	r3, [r7, #0]
	Queue_t *pxNewQueue;

		configASSERT( uxQueueLength > ( UBaseType_t ) 0 );
 8001c52:	68fb      	ldr	r3, [r7, #12]
 8001c54:	2b00      	cmp	r3, #0
 8001c56:	d109      	bne.n	8001c6c <xQueueGenericCreateStatic+0x28>
 8001c58:	f04f 0350 	mov.w	r3, #80	; 0x50
 8001c5c:	f383 8811 	msr	BASEPRI, r3
 8001c60:	f3bf 8f6f 	isb	sy
 8001c64:	f3bf 8f4f 	dsb	sy
 8001c68:	62bb      	str	r3, [r7, #40]	; 0x28
 8001c6a:	e7fe      	b.n	8001c6a <xQueueGenericCreateStatic+0x26>

		/* The StaticQueue_t structure and the queue storage area must be
		supplied. */
		configASSERT( pxStaticQueue != NULL );
 8001c6c:	683b      	ldr	r3, [r7, #0]
 8001c6e:	2b00      	cmp	r3, #0
 8001c70:	d109      	bne.n	8001c86 <xQueueGenericCreateStatic+0x42>
 8001c72:	f04f 0350 	mov.w	r3, #80	; 0x50
 8001c76:	f383 8811 	msr	BASEPRI, r3
 8001c7a:	f3bf 8f6f 	isb	sy
 8001c7e:	f3bf 8f4f 	dsb	sy
 8001c82:	627b      	str	r3, [r7, #36]	; 0x24
 8001c84:	e7fe      	b.n	8001c84 <xQueueGenericCreateStatic+0x40>

		/* A queue storage area should be provided if the item size is not 0, and
		should not be provided if the item size is 0. */
		configASSERT( !( ( pucQueueStorage != NULL ) && ( uxItemSize == 0 ) ) );
 8001c86:	687b      	ldr	r3, [r7, #4]
 8001c88:	2b00      	cmp	r3, #0
 8001c8a:	d002      	beq.n	8001c92 <xQueueGenericCreateStatic+0x4e>
 8001c8c:	68bb      	ldr	r3, [r7, #8]
 8001c8e:	2b00      	cmp	r3, #0
 8001c90:	d001      	beq.n	8001c96 <xQueueGenericCreateStatic+0x52>
 8001c92:	2301      	movs	r3, #1
 8001c94:	e000      	b.n	8001c98 <xQueueGenericCreateStatic+0x54>
 8001c96:	2300      	movs	r3, #0
 8001c98:	2b00      	cmp	r3, #0
 8001c9a:	d109      	bne.n	8001cb0 <xQueueGenericCreateStatic+0x6c>
 8001c9c:	f04f 0350 	mov.w	r3, #80	; 0x50
 8001ca0:	f383 8811 	msr	BASEPRI, r3
 8001ca4:	f3bf 8f6f 	isb	sy
 8001ca8:	f3bf 8f4f 	dsb	sy
 8001cac:	623b      	str	r3, [r7, #32]
 8001cae:	e7fe      	b.n	8001cae <xQueueGenericCreateStatic+0x6a>
		configASSERT( !( ( pucQueueStorage == NULL ) && ( uxItemSize != 0 ) ) );
 8001cb0:	687b      	ldr	r3, [r7, #4]
 8001cb2:	2b00      	cmp	r3, #0
 8001cb4:	d102      	bne.n	8001cbc <xQueueGenericCreateStatic+0x78>
 8001cb6:	68bb      	ldr	r3, [r7, #8]
 8001cb8:	2b00      	cmp	r3, #0
 8001cba:	d101      	bne.n	8001cc0 <xQueueGenericCreateStatic+0x7c>
 8001cbc:	2301      	movs	r3, #1
 8001cbe:	e000      	b.n	8001cc2 <xQueueGenericCreateStatic+0x7e>
 8001cc0:	2300      	movs	r3, #0
 8001cc2:	2b00      	cmp	r3, #0
 8001cc4:	d109      	bne.n	8001cda <xQueueGenericCreateStatic+0x96>
 8001cc6:	f04f 0350 	mov.w	r3, #80	; 0x50
 8001cca:	f383 8811 	msr	BASEPRI, r3
 8001cce:	f3bf 8f6f 	isb	sy
 8001cd2:	f3bf 8f4f 	dsb	sy
 8001cd6:	61fb      	str	r3, [r7, #28]
 8001cd8:	e7fe      	b.n	8001cd8 <xQueueGenericCreateStatic+0x94>
		#if( configASSERT_DEFINED == 1 )
		{
			/* Sanity check that the size of the structure used to declare a
			variable of type StaticQueue_t or StaticSemaphore_t equals the size of
			the real queue and semaphore structures. */
			volatile size_t xSize = sizeof( StaticQueue_t );
 8001cda:	2350      	movs	r3, #80	; 0x50
 8001cdc:	617b      	str	r3, [r7, #20]
			configASSERT( xSize == sizeof( Queue_t ) );
 8001cde:	697b      	ldr	r3, [r7, #20]
 8001ce0:	2b50      	cmp	r3, #80	; 0x50
 8001ce2:	d009      	beq.n	8001cf8 <xQueueGenericCreateStatic+0xb4>
 8001ce4:	f04f 0350 	mov.w	r3, #80	; 0x50
 8001ce8:	f383 8811 	msr	BASEPRI, r3
 8001cec:	f3bf 8f6f 	isb	sy
 8001cf0:	f3bf 8f4f 	dsb	sy
 8001cf4:	61bb      	str	r3, [r7, #24]
 8001cf6:	e7fe      	b.n	8001cf6 <xQueueGenericCreateStatic+0xb2>
		#endif /* configASSERT_DEFINED */

		/* The address of a statically allocated queue was passed in, use it.
		The address of a statically allocated storage area was also passed in
		but is already set. */
		pxNewQueue = ( Queue_t * ) pxStaticQueue; /*lint !e740 Unusual cast is ok as the structures are designed to have the same alignment, and the size is checked by an assert. */
 8001cf8:	683b      	ldr	r3, [r7, #0]
 8001cfa:	62fb      	str	r3, [r7, #44]	; 0x2c

		if( pxNewQueue != NULL )
 8001cfc:	6afb      	ldr	r3, [r7, #44]	; 0x2c
 8001cfe:	2b00      	cmp	r3, #0
 8001d00:	d00d      	beq.n	8001d1e <xQueueGenericCreateStatic+0xda>
			#if( configSUPPORT_DYNAMIC_ALLOCATION == 1 )
			{
				/* Queues can be allocated wither statically or dynamically, so
				note this queue was allocated statically in case the queue is
				later deleted. */
				pxNewQueue->ucStaticallyAllocated = pdTRUE;
 8001d02:	6afb      	ldr	r3, [r7, #44]	; 0x2c
 8001d04:	2201      	movs	r2, #1
 8001d06:	f883 2046 	strb.w	r2, [r3, #70]	; 0x46
			}
			#endif /* configSUPPORT_DYNAMIC_ALLOCATION */

			prvInitialiseNewQueue( uxQueueLength, uxItemSize, pucQueueStorage, ucQueueType, pxNewQueue );
 8001d0a:	f897 2038 	ldrb.w	r2, [r7, #56]	; 0x38
 8001d0e:	6afb      	ldr	r3, [r7, #44]	; 0x2c
 8001d10:	9300      	str	r3, [sp, #0]
 8001d12:	4613      	mov	r3, r2
 8001d14:	687a      	ldr	r2, [r7, #4]
 8001d16:	68b9      	ldr	r1, [r7, #8]
 8001d18:	68f8      	ldr	r0, [r7, #12]
 8001d1a:	f000 f805 	bl	8001d28 <prvInitialiseNewQueue>
		else
		{
			traceQUEUE_CREATE_FAILED( ucQueueType );
		}

		return pxNewQueue;
 8001d1e:	6afb      	ldr	r3, [r7, #44]	; 0x2c
	}
 8001d20:	4618      	mov	r0, r3
 8001d22:	3730      	adds	r7, #48	; 0x30
 8001d24:	46bd      	mov	sp, r7
 8001d26:	bd80      	pop	{r7, pc}

08001d28 <prvInitialiseNewQueue>:

#endif /* configSUPPORT_STATIC_ALLOCATION */
/*-----------------------------------------------------------*/

static void prvInitialiseNewQueue( const UBaseType_t uxQueueLength, const UBaseType_t uxItemSize, uint8_t *pucQueueStorage, const uint8_t ucQueueType, Queue_t *pxNewQueue )
{
 8001d28:	b580      	push	{r7, lr}
 8001d2a:	b084      	sub	sp, #16
 8001d2c:	af00      	add	r7, sp, #0
 8001d2e:	60f8      	str	r0, [r7, #12]
 8001d30:	60b9      	str	r1, [r7, #8]
 8001d32:	607a      	str	r2, [r7, #4]
 8001d34:	70fb      	strb	r3, [r7, #3]
	/* Remove compiler warnings about unused parameters should
	configUSE_TRACE_FACILITY not be set to 1. */
	( void ) ucQueueType;

	if( uxItemSize == ( UBaseType_t ) 0 )
 8001d36:	68bb      	ldr	r3, [r7, #8]
 8001d38:	2b00      	cmp	r3, #0
 8001d3a:	d103      	bne.n	8001d44 <prvInitialiseNewQueue+0x1c>
	{
		/* No RAM was allocated for the queue storage area, but PC head cannot
		be set to NULL because NULL is used as a key to say the queue is used as
		a mutex.  Therefore just set pcHead to point to the queue as a benign
		value that is known to be within the memory map. */
		pxNewQueue->pcHead = ( int8_t * ) pxNewQueue;
 8001d3c:	69bb      	ldr	r3, [r7, #24]
 8001d3e:	69ba      	ldr	r2, [r7, #24]
 8001d40:	601a      	str	r2, [r3, #0]
 8001d42:	e002      	b.n	8001d4a <prvInitialiseNewQueue+0x22>
	}
	else
	{
		/* Set the head to the start of the queue storage area. */
		pxNewQueue->pcHead = ( int8_t * ) pucQueueStorage;
 8001d44:	69bb      	ldr	r3, [r7, #24]
 8001d46:	687a      	ldr	r2, [r7, #4]
 8001d48:	601a      	str	r2, [r3, #0]
	}

	/* Initialise the queue members as described where the queue type is
	defined. */
	pxNewQueue->uxLength = uxQueueLength;
 8001d4a:	69bb      	ldr	r3, [r7, #24]
 8001d4c:	68fa      	ldr	r2, [r7, #12]
 8001d4e:	63da      	str	r2, [r3, #60]	; 0x3c
	pxNewQueue->uxItemSize = uxItemSize;
 8001d50:	69bb      	ldr	r3, [r7, #24]
 8001d52:	68ba      	ldr	r2, [r7, #8]
 8001d54:	641a      	str	r2, [r3, #64]	; 0x40
	( void ) xQueueGenericReset( pxNewQueue, pdTRUE );
 8001d56:	2101      	movs	r1, #1
 8001d58:	69b8      	ldr	r0, [r7, #24]
 8001d5a:	f7ff ff0b 	bl	8001b74 <xQueueGenericReset>

	#if ( configUSE_TRACE_FACILITY == 1 )
	{
		pxNewQueue->ucQueueType = ucQueueType;
 8001d5e:	69bb      	ldr	r3, [r7, #24]
 8001d60:	78fa      	ldrb	r2, [r7, #3]
 8001d62:	f883 204c 	strb.w	r2, [r3, #76]	; 0x4c
		pxNewQueue->pxQueueSetContainer = NULL;
	}
	#endif /* configUSE_QUEUE_SETS */

	traceQUEUE_CREATE( pxNewQueue );
}
 8001d66:	bf00      	nop
 8001d68:	3710      	adds	r7, #16
 8001d6a:	46bd      	mov	sp, r7
 8001d6c:	bd80      	pop	{r7, pc}
	...

08001d70 <xQueueGenericSend>:

#endif /* ( ( configUSE_COUNTING_SEMAPHORES == 1 ) && ( configSUPPORT_DYNAMIC_ALLOCATION == 1 ) ) */
/*-----------------------------------------------------------*/

BaseType_t xQueueGenericSend( QueueHandle_t xQueue, const void * const pvItemToQueue, TickType_t xTicksToWait, const BaseType_t xCopyPosition )
{
 8001d70:	b580      	push	{r7, lr}
 8001d72:	b08e      	sub	sp, #56	; 0x38
 8001d74:	af00      	add	r7, sp, #0
 8001d76:	60f8      	str	r0, [r7, #12]
 8001d78:	60b9      	str	r1, [r7, #8]
 8001d7a:	607a      	str	r2, [r7, #4]
 8001d7c:	603b      	str	r3, [r7, #0]
BaseType_t xEntryTimeSet = pdFALSE, xYieldRequired;
 8001d7e:	2300      	movs	r3, #0
 8001d80:	637b      	str	r3, [r7, #52]	; 0x34
TimeOut_t xTimeOut;
Queue_t * const pxQueue = ( Queue_t * ) xQueue;
 8001d82:	68fb      	ldr	r3, [r7, #12]
 8001d84:	633b      	str	r3, [r7, #48]	; 0x30

	configASSERT( pxQueue );
 8001d86:	6b3b      	ldr	r3, [r7, #48]	; 0x30
 8001d88:	2b00      	cmp	r3, #0
 8001d8a:	d109      	bne.n	8001da0 <xQueueGenericSend+0x30>
 8001d8c:	f04f 0350 	mov.w	r3, #80	; 0x50
 8001d90:	f383 8811 	msr	BASEPRI, r3
 8001d94:	f3bf 8f6f 	isb	sy
 8001d98:	f3bf 8f4f 	dsb	sy
 8001d9c:	62bb      	str	r3, [r7, #40]	; 0x28
 8001d9e:	e7fe      	b.n	8001d9e <xQueueGenericSend+0x2e>
	configASSERT( !( ( pvItemToQueue == NULL ) && ( pxQueue->uxItemSize != ( UBaseType_t ) 0U ) ) );
 8001da0:	68bb      	ldr	r3, [r7, #8]
 8001da2:	2b00      	cmp	r3, #0
 8001da4:	d103      	bne.n	8001dae <xQueueGenericSend+0x3e>
 8001da6:	6b3b      	ldr	r3, [r7, #48]	; 0x30
 8001da8:	6c1b      	ldr	r3, [r3, #64]	; 0x40
 8001daa:	2b00      	cmp	r3, #0
 8001dac:	d101      	bne.n	8001db2 <xQueueGenericSend+0x42>
 8001dae:	2301      	movs	r3, #1
 8001db0:	e000      	b.n	8001db4 <xQueueGenericSend+0x44>
 8001db2:	2300      	movs	r3, #0
 8001db4:	2b00      	cmp	r3, #0
 8001db6:	d109      	bne.n	8001dcc <xQueueGenericSend+0x5c>
 8001db8:	f04f 0350 	mov.w	r3, #80	; 0x50
 8001dbc:	f383 8811 	msr	BASEPRI, r3
 8001dc0:	f3bf 8f6f 	isb	sy
 8001dc4:	f3bf 8f4f 	dsb	sy
 8001dc8:	627b      	str	r3, [r7, #36]	; 0x24
 8001dca:	e7fe      	b.n	8001dca <xQueueGenericSend+0x5a>
	configASSERT( !( ( xCopyPosition == queueOVERWRITE ) && ( pxQueue->uxLength != 1 ) ) );
 8001dcc:	683b      	ldr	r3, [r7, #0]
 8001dce:	2b02      	cmp	r3, #2
 8001dd0:	d103      	bne.n	8001dda <xQueueGenericSend+0x6a>
 8001dd2:	6b3b      	ldr	r3, [r7, #48]	; 0x30
 8001dd4:	6bdb      	ldr	r3, [r3, #60]	; 0x3c
 8001dd6:	2b01      	cmp	r3, #1
 8001dd8:	d101      	bne.n	8001dde <xQueueGenericSend+0x6e>
 8001dda:	2301      	movs	r3, #1
 8001ddc:	e000      	b.n	8001de0 <xQueueGenericSend+0x70>
 8001dde:	2300      	movs	r3, #0
 8001de0:	2b00      	cmp	r3, #0
 8001de2:	d109      	bne.n	8001df8 <xQueueGenericSend+0x88>
 8001de4:	f04f 0350 	mov.w	r3, #80	; 0x50
 8001de8:	f383 8811 	msr	BASEPRI, r3
 8001dec:	f3bf 8f6f 	isb	sy
 8001df0:	f3bf 8f4f 	dsb	sy
 8001df4:	623b      	str	r3, [r7, #32]
 8001df6:	e7fe      	b.n	8001df6 <xQueueGenericSend+0x86>
	#if ( ( INCLUDE_xTaskGetSchedulerState == 1 ) || ( configUSE_TIMERS == 1 ) )
	{
		configASSERT( !( ( xTaskGetSchedulerState() == taskSCHEDULER_SUSPENDED ) && ( xTicksToWait != 0 ) ) );
 8001df8:	f001 f996 	bl	8003128 <xTaskGetSchedulerState>
 8001dfc:	4603      	mov	r3, r0
 8001dfe:	2b00      	cmp	r3, #0
 8001e00:	d102      	bne.n	8001e08 <xQueueGenericSend+0x98>
 8001e02:	687b      	ldr	r3, [r7, #4]
 8001e04:	2b00      	cmp	r3, #0
 8001e06:	d101      	bne.n	8001e0c <xQueueGenericSend+0x9c>
 8001e08:	2301      	movs	r3, #1
 8001e0a:	e000      	b.n	8001e0e <xQueueGenericSend+0x9e>
 8001e0c:	2300      	movs	r3, #0
 8001e0e:	2b00      	cmp	r3, #0
 8001e10:	d109      	bne.n	8001e26 <xQueueGenericSend+0xb6>
 8001e12:	f04f 0350 	mov.w	r3, #80	; 0x50
 8001e16:	f383 8811 	msr	BASEPRI, r3
 8001e1a:	f3bf 8f6f 	isb	sy
 8001e1e:	f3bf 8f4f 	dsb	sy
 8001e22:	61fb      	str	r3, [r7, #28]
 8001e24:	e7fe      	b.n	8001e24 <xQueueGenericSend+0xb4>
	/* This function relaxes the coding standard somewhat to allow return
	statements within the function itself.  This is done in the interest
	of execution time efficiency. */
	for( ;; )
	{
		taskENTER_CRITICAL();
 8001e26:	f001 fe4f 	bl	8003ac8 <vPortEnterCritical>
		{
			/* Is there room on the queue now?  The running task must be the
			highest priority task wanting to access the queue.  If the head item
			in the queue is to be overwritten then it does not matter if the
			queue is full. */
			if( ( pxQueue->uxMessagesWaiting < pxQueue->uxLength ) || ( xCopyPosition == queueOVERWRITE ) )
 8001e2a:	6b3b      	ldr	r3, [r7, #48]	; 0x30
 8001e2c:	6b9a      	ldr	r2, [r3, #56]	; 0x38
 8001e2e:	6b3b      	ldr	r3, [r7, #48]	; 0x30
 8001e30:	6bdb      	ldr	r3, [r3, #60]	; 0x3c
 8001e32:	429a      	cmp	r2, r3
 8001e34:	d302      	bcc.n	8001e3c <xQueueGenericSend+0xcc>
 8001e36:	683b      	ldr	r3, [r7, #0]
 8001e38:	2b02      	cmp	r3, #2
 8001e3a:	d129      	bne.n	8001e90 <xQueueGenericSend+0x120>
			{
				traceQUEUE_SEND( pxQueue );
				xYieldRequired = prvCopyDataToQueue( pxQueue, pvItemToQueue, xCopyPosition );
 8001e3c:	683a      	ldr	r2, [r7, #0]
 8001e3e:	68b9      	ldr	r1, [r7, #8]
 8001e40:	6b38      	ldr	r0, [r7, #48]	; 0x30
 8001e42:	f000 f9ff 	bl	8002244 <prvCopyDataToQueue>
 8001e46:	62f8      	str	r0, [r7, #44]	; 0x2c
				}
				#else /* configUSE_QUEUE_SETS */
				{
					/* If there was a task waiting for data to arrive on the
					queue then unblock it now. */
					if( listLIST_IS_EMPTY( &( pxQueue->xTasksWaitingToReceive ) ) == pdFALSE )
 8001e48:	6b3b      	ldr	r3, [r7, #48]	; 0x30
 8001e4a:	6a5b      	ldr	r3, [r3, #36]	; 0x24
 8001e4c:	2b00      	cmp	r3, #0
 8001e4e:	d010      	beq.n	8001e72 <xQueueGenericSend+0x102>
					{
						if( xTaskRemoveFromEventList( &( pxQueue->xTasksWaitingToReceive ) ) != pdFALSE )
 8001e50:	6b3b      	ldr	r3, [r7, #48]	; 0x30
 8001e52:	3324      	adds	r3, #36	; 0x24
 8001e54:	4618      	mov	r0, r3
 8001e56:	f000 ffad 	bl	8002db4 <xTaskRemoveFromEventList>
 8001e5a:	4603      	mov	r3, r0
 8001e5c:	2b00      	cmp	r3, #0
 8001e5e:	d013      	beq.n	8001e88 <xQueueGenericSend+0x118>
						{
							/* The unblocked task has a priority higher than
							our own so yield immediately.  Yes it is ok to do
							this from within the critical section - the kernel
							takes care of that. */
							queueYIELD_IF_USING_PREEMPTION();
 8001e60:	4b3f      	ldr	r3, [pc, #252]	; (8001f60 <xQueueGenericSend+0x1f0>)
 8001e62:	f04f 5280 	mov.w	r2, #268435456	; 0x10000000
 8001e66:	601a      	str	r2, [r3, #0]
 8001e68:	f3bf 8f4f 	dsb	sy
 8001e6c:	f3bf 8f6f 	isb	sy
 8001e70:	e00a      	b.n	8001e88 <xQueueGenericSend+0x118>
						else
						{
							mtCOVERAGE_TEST_MARKER();
						}
					}
					else if( xYieldRequired != pdFALSE )
 8001e72:	6afb      	ldr	r3, [r7, #44]	; 0x2c
 8001e74:	2b00      	cmp	r3, #0
 8001e76:	d007      	beq.n	8001e88 <xQueueGenericSend+0x118>
					{
						/* This path is a special case that will only get
						executed if the task was holding multiple mutexes and
						the mutexes were given back in an order that is
						different to that in which they were taken. */
						queueYIELD_IF_USING_PREEMPTION();
 8001e78:	4b39      	ldr	r3, [pc, #228]	; (8001f60 <xQueueGenericSend+0x1f0>)
 8001e7a:	f04f 5280 	mov.w	r2, #268435456	; 0x10000000
 8001e7e:	601a      	str	r2, [r3, #0]
 8001e80:	f3bf 8f4f 	dsb	sy
 8001e84:	f3bf 8f6f 	isb	sy
						mtCOVERAGE_TEST_MARKER();
					}
				}
				#endif /* configUSE_QUEUE_SETS */

				taskEXIT_CRITICAL();
 8001e88:	f001 fe4c 	bl	8003b24 <vPortExitCritical>
				return pdPASS;
 8001e8c:	2301      	movs	r3, #1
 8001e8e:	e063      	b.n	8001f58 <xQueueGenericSend+0x1e8>
			}
			else
			{
				if( xTicksToWait == ( TickType_t ) 0 )
 8001e90:	687b      	ldr	r3, [r7, #4]
 8001e92:	2b00      	cmp	r3, #0
 8001e94:	d103      	bne.n	8001e9e <xQueueGenericSend+0x12e>
				{
					/* The queue was full and no block time is specified (or
					the block time has expired) so leave now. */
					taskEXIT_CRITICAL();
 8001e96:	f001 fe45 	bl	8003b24 <vPortExitCritical>

					/* Return to the original privilege level before exiting
					the function. */
					traceQUEUE_SEND_FAILED( pxQueue );
					return errQUEUE_FULL;
 8001e9a:	2300      	movs	r3, #0
 8001e9c:	e05c      	b.n	8001f58 <xQueueGenericSend+0x1e8>
				}
				else if( xEntryTimeSet == pdFALSE )
 8001e9e:	6b7b      	ldr	r3, [r7, #52]	; 0x34
 8001ea0:	2b00      	cmp	r3, #0
 8001ea2:	d106      	bne.n	8001eb2 <xQueueGenericSend+0x142>
				{
					/* The queue was full and a block time was specified so
					configure the timeout structure. */
					vTaskInternalSetTimeOutState( &xTimeOut );
 8001ea4:	f107 0314 	add.w	r3, r7, #20
 8001ea8:	4618      	mov	r0, r3
 8001eaa:	f000 ffe5 	bl	8002e78 <vTaskInternalSetTimeOutState>
					xEntryTimeSet = pdTRUE;
 8001eae:	2301      	movs	r3, #1
 8001eb0:	637b      	str	r3, [r7, #52]	; 0x34
					/* Entry time was already set. */
					mtCOVERAGE_TEST_MARKER();
				}
			}
		}
		taskEXIT_CRITICAL();
 8001eb2:	f001 fe37 	bl	8003b24 <vPortExitCritical>

		/* Interrupts and other tasks can send to and receive from the queue
		now the critical section has been exited. */

		vTaskSuspendAll();
 8001eb6:	f000 fd5d 	bl	8002974 <vTaskSuspendAll>
		prvLockQueue( pxQueue );
 8001eba:	f001 fe05 	bl	8003ac8 <vPortEnterCritical>
 8001ebe:	6b3b      	ldr	r3, [r7, #48]	; 0x30
 8001ec0:	f893 3044 	ldrb.w	r3, [r3, #68]	; 0x44
 8001ec4:	b25b      	sxtb	r3, r3
 8001ec6:	f1b3 3fff 	cmp.w	r3, #4294967295
 8001eca:	d103      	bne.n	8001ed4 <xQueueGenericSend+0x164>
 8001ecc:	6b3b      	ldr	r3, [r7, #48]	; 0x30
 8001ece:	2200      	movs	r2, #0
 8001ed0:	f883 2044 	strb.w	r2, [r3, #68]	; 0x44
 8001ed4:	6b3b      	ldr	r3, [r7, #48]	; 0x30
 8001ed6:	f893 3045 	ldrb.w	r3, [r3, #69]	; 0x45
 8001eda:	b25b      	sxtb	r3, r3
 8001edc:	f1b3 3fff 	cmp.w	r3, #4294967295
 8001ee0:	d103      	bne.n	8001eea <xQueueGenericSend+0x17a>
 8001ee2:	6b3b      	ldr	r3, [r7, #48]	; 0x30
 8001ee4:	2200      	movs	r2, #0
 8001ee6:	f883 2045 	strb.w	r2, [r3, #69]	; 0x45
 8001eea:	f001 fe1b 	bl	8003b24 <vPortExitCritical>

		/* Update the timeout state to see if it has expired yet. */
		if( xTaskCheckForTimeOut( &xTimeOut, &xTicksToWait ) == pdFALSE )
 8001eee:	1d3a      	adds	r2, r7, #4
 8001ef0:	f107 0314 	add.w	r3, r7, #20
 8001ef4:	4611      	mov	r1, r2
 8001ef6:	4618      	mov	r0, r3
 8001ef8:	f000 ffd4 	bl	8002ea4 <xTaskCheckForTimeOut>
 8001efc:	4603      	mov	r3, r0
 8001efe:	2b00      	cmp	r3, #0
 8001f00:	d124      	bne.n	8001f4c <xQueueGenericSend+0x1dc>
		{
			if( prvIsQueueFull( pxQueue ) != pdFALSE )
 8001f02:	6b38      	ldr	r0, [r7, #48]	; 0x30
 8001f04:	f000 fa96 	bl	8002434 <prvIsQueueFull>
 8001f08:	4603      	mov	r3, r0
 8001f0a:	2b00      	cmp	r3, #0
 8001f0c:	d018      	beq.n	8001f40 <xQueueGenericSend+0x1d0>
			{
				traceBLOCKING_ON_QUEUE_SEND( pxQueue );
				vTaskPlaceOnEventList( &( pxQueue->xTasksWaitingToSend ), xTicksToWait );
 8001f0e:	6b3b      	ldr	r3, [r7, #48]	; 0x30
 8001f10:	3310      	adds	r3, #16
 8001f12:	687a      	ldr	r2, [r7, #4]
 8001f14:	4611      	mov	r1, r2
 8001f16:	4618      	mov	r0, r3
 8001f18:	f000 fefe 	bl	8002d18 <vTaskPlaceOnEventList>
				/* Unlocking the queue means queue events can effect the
				event list.  It is possible that interrupts occurring now
				remove this task from the event list again - but as the
				scheduler is suspended the task will go onto the pending
				ready last instead of the actual ready list. */
				prvUnlockQueue( pxQueue );
 8001f1c:	6b38      	ldr	r0, [r7, #48]	; 0x30
 8001f1e:	f000 fa21 	bl	8002364 <prvUnlockQueue>
				/* Resuming the scheduler will move tasks from the pending
				ready list into the ready list - so it is feasible that this
				task is already in a ready list before it yields - in which
				case the yield will not cause a context switch unless there
				is also a higher priority task in the pending ready list. */
				if( xTaskResumeAll() == pdFALSE )
 8001f22:	f000 fd35 	bl	8002990 <xTaskResumeAll>
 8001f26:	4603      	mov	r3, r0
 8001f28:	2b00      	cmp	r3, #0
 8001f2a:	f47f af7c 	bne.w	8001e26 <xQueueGenericSend+0xb6>
				{
					portYIELD_WITHIN_API();
 8001f2e:	4b0c      	ldr	r3, [pc, #48]	; (8001f60 <xQueueGenericSend+0x1f0>)
 8001f30:	f04f 5280 	mov.w	r2, #268435456	; 0x10000000
 8001f34:	601a      	str	r2, [r3, #0]
 8001f36:	f3bf 8f4f 	dsb	sy
 8001f3a:	f3bf 8f6f 	isb	sy
 8001f3e:	e772      	b.n	8001e26 <xQueueGenericSend+0xb6>
				}
			}
			else
			{
				/* Try again. */
				prvUnlockQueue( pxQueue );
 8001f40:	6b38      	ldr	r0, [r7, #48]	; 0x30
 8001f42:	f000 fa0f 	bl	8002364 <prvUnlockQueue>
				( void ) xTaskResumeAll();
 8001f46:	f000 fd23 	bl	8002990 <xTaskResumeAll>
 8001f4a:	e76c      	b.n	8001e26 <xQueueGenericSend+0xb6>
			}
		}
		else
		{
			/* The timeout has expired. */
			prvUnlockQueue( pxQueue );
 8001f4c:	6b38      	ldr	r0, [r7, #48]	; 0x30
 8001f4e:	f000 fa09 	bl	8002364 <prvUnlockQueue>
			( void ) xTaskResumeAll();
 8001f52:	f000 fd1d 	bl	8002990 <xTaskResumeAll>

			traceQUEUE_SEND_FAILED( pxQueue );
			return errQUEUE_FULL;
 8001f56:	2300      	movs	r3, #0
		}
	}
}
 8001f58:	4618      	mov	r0, r3
 8001f5a:	3738      	adds	r7, #56	; 0x38
 8001f5c:	46bd      	mov	sp, r7
 8001f5e:	bd80      	pop	{r7, pc}
 8001f60:	e000ed04 	.word	0xe000ed04

08001f64 <xQueueGenericSendFromISR>:
/*-----------------------------------------------------------*/

BaseType_t xQueueGenericSendFromISR( QueueHandle_t xQueue, const void * const pvItemToQueue, BaseType_t * const pxHigherPriorityTaskWoken, const BaseType_t xCopyPosition )
{
 8001f64:	b580      	push	{r7, lr}
 8001f66:	b08e      	sub	sp, #56	; 0x38
 8001f68:	af00      	add	r7, sp, #0
 8001f6a:	60f8      	str	r0, [r7, #12]
 8001f6c:	60b9      	str	r1, [r7, #8]
 8001f6e:	607a      	str	r2, [r7, #4]
 8001f70:	603b      	str	r3, [r7, #0]
BaseType_t xReturn;
UBaseType_t uxSavedInterruptStatus;
Queue_t * const pxQueue = ( Queue_t * ) xQueue;
 8001f72:	68fb      	ldr	r3, [r7, #12]
 8001f74:	633b      	str	r3, [r7, #48]	; 0x30

	configASSERT( pxQueue );
 8001f76:	6b3b      	ldr	r3, [r7, #48]	; 0x30
 8001f78:	2b00      	cmp	r3, #0
 8001f7a:	d109      	bne.n	8001f90 <xQueueGenericSendFromISR+0x2c>
 8001f7c:	f04f 0350 	mov.w	r3, #80	; 0x50
 8001f80:	f383 8811 	msr	BASEPRI, r3
 8001f84:	f3bf 8f6f 	isb	sy
 8001f88:	f3bf 8f4f 	dsb	sy
 8001f8c:	627b      	str	r3, [r7, #36]	; 0x24
 8001f8e:	e7fe      	b.n	8001f8e <xQueueGenericSendFromISR+0x2a>
	configASSERT( !( ( pvItemToQueue == NULL ) && ( pxQueue->uxItemSize != ( UBaseType_t ) 0U ) ) );
 8001f90:	68bb      	ldr	r3, [r7, #8]
 8001f92:	2b00      	cmp	r3, #0
 8001f94:	d103      	bne.n	8001f9e <xQueueGenericSendFromISR+0x3a>
 8001f96:	6b3b      	ldr	r3, [r7, #48]	; 0x30
 8001f98:	6c1b      	ldr	r3, [r3, #64]	; 0x40
 8001f9a:	2b00      	cmp	r3, #0
 8001f9c:	d101      	bne.n	8001fa2 <xQueueGenericSendFromISR+0x3e>
 8001f9e:	2301      	movs	r3, #1
 8001fa0:	e000      	b.n	8001fa4 <xQueueGenericSendFromISR+0x40>
 8001fa2:	2300      	movs	r3, #0
 8001fa4:	2b00      	cmp	r3, #0
 8001fa6:	d109      	bne.n	8001fbc <xQueueGenericSendFromISR+0x58>
 8001fa8:	f04f 0350 	mov.w	r3, #80	; 0x50
 8001fac:	f383 8811 	msr	BASEPRI, r3
 8001fb0:	f3bf 8f6f 	isb	sy
 8001fb4:	f3bf 8f4f 	dsb	sy
 8001fb8:	623b      	str	r3, [r7, #32]
 8001fba:	e7fe      	b.n	8001fba <xQueueGenericSendFromISR+0x56>
	configASSERT( !( ( xCopyPosition == queueOVERWRITE ) && ( pxQueue->uxLength != 1 ) ) );
 8001fbc:	683b      	ldr	r3, [r7, #0]
 8001fbe:	2b02      	cmp	r3, #2
 8001fc0:	d103      	bne.n	8001fca <xQueueGenericSendFromISR+0x66>
 8001fc2:	6b3b      	ldr	r3, [r7, #48]	; 0x30
 8001fc4:	6bdb      	ldr	r3, [r3, #60]	; 0x3c
 8001fc6:	2b01      	cmp	r3, #1
 8001fc8:	d101      	bne.n	8001fce <xQueueGenericSendFromISR+0x6a>
 8001fca:	2301      	movs	r3, #1
 8001fcc:	e000      	b.n	8001fd0 <xQueueGenericSendFromISR+0x6c>
 8001fce:	2300      	movs	r3, #0
 8001fd0:	2b00      	cmp	r3, #0
 8001fd2:	d109      	bne.n	8001fe8 <xQueueGenericSendFromISR+0x84>
 8001fd4:	f04f 0350 	mov.w	r3, #80	; 0x50
 8001fd8:	f383 8811 	msr	BASEPRI, r3
 8001fdc:	f3bf 8f6f 	isb	sy
 8001fe0:	f3bf 8f4f 	dsb	sy
 8001fe4:	61fb      	str	r3, [r7, #28]
 8001fe6:	e7fe      	b.n	8001fe6 <xQueueGenericSendFromISR+0x82>
	that have been assigned a priority at or (logically) below the maximum
	system call	interrupt priority.  FreeRTOS maintains a separate interrupt
	safe API to ensure interrupt entry is as fast and as simple as possible.
	More information (albeit Cortex-M specific) is provided on the following
	link: http://www.freertos.org/RTOS-Cortex-M3-M4.html */
	portASSERT_IF_INTERRUPT_PRIORITY_INVALID();
 8001fe8:	f001 fe28 	bl	8003c3c <vPortValidateInterruptPriority>

portFORCE_INLINE static uint32_t ulPortRaiseBASEPRI( void )
{
uint32_t ulOriginalBASEPRI, ulNewBASEPRI;

	__asm volatile
 8001fec:	f3ef 8211 	mrs	r2, BASEPRI
 8001ff0:	f04f 0350 	mov.w	r3, #80	; 0x50
 8001ff4:	f383 8811 	msr	BASEPRI, r3
 8001ff8:	f3bf 8f6f 	isb	sy
 8001ffc:	f3bf 8f4f 	dsb	sy
 8002000:	61ba      	str	r2, [r7, #24]
 8002002:	617b      	str	r3, [r7, #20]
		:"=r" (ulOriginalBASEPRI), "=r" (ulNewBASEPRI) : "i" ( configMAX_SYSCALL_INTERRUPT_PRIORITY ) : "memory"
	);

	/* This return will not be reached but is necessary to prevent compiler
	warnings. */
	return ulOriginalBASEPRI;
 8002004:	69bb      	ldr	r3, [r7, #24]
	/* Similar to xQueueGenericSend, except without blocking if there is no room
	in the queue.  Also don't directly wake a task that was blocked on a queue
	read, instead return a flag to say whether a context switch is required or
	not (i.e. has a task with a higher priority than us been woken by this
	post). */
	uxSavedInterruptStatus = portSET_INTERRUPT_MASK_FROM_ISR();
 8002006:	62fb      	str	r3, [r7, #44]	; 0x2c
	{
		if( ( pxQueue->uxMessagesWaiting < pxQueue->uxLength ) || ( xCopyPosition == queueOVERWRITE ) )
 8002008:	6b3b      	ldr	r3, [r7, #48]	; 0x30
 800200a:	6b9a      	ldr	r2, [r3, #56]	; 0x38
 800200c:	6b3b      	ldr	r3, [r7, #48]	; 0x30
 800200e:	6bdb      	ldr	r3, [r3, #60]	; 0x3c
 8002010:	429a      	cmp	r2, r3
 8002012:	d302      	bcc.n	800201a <xQueueGenericSendFromISR+0xb6>
 8002014:	683b      	ldr	r3, [r7, #0]
 8002016:	2b02      	cmp	r3, #2
 8002018:	d12c      	bne.n	8002074 <xQueueGenericSendFromISR+0x110>
		{
			const int8_t cTxLock = pxQueue->cTxLock;
 800201a:	6b3b      	ldr	r3, [r7, #48]	; 0x30
 800201c:	f893 3045 	ldrb.w	r3, [r3, #69]	; 0x45
 8002020:	f887 302b 	strb.w	r3, [r7, #43]	; 0x2b
			/* Semaphores use xQueueGiveFromISR(), so pxQueue will not be a
			semaphore or mutex.  That means prvCopyDataToQueue() cannot result
			in a task disinheriting a priority and prvCopyDataToQueue() can be
			called here even though the disinherit function does not check if
			the scheduler is suspended before accessing the ready lists. */
			( void ) prvCopyDataToQueue( pxQueue, pvItemToQueue, xCopyPosition );
 8002024:	683a      	ldr	r2, [r7, #0]
 8002026:	68b9      	ldr	r1, [r7, #8]
 8002028:	6b38      	ldr	r0, [r7, #48]	; 0x30
 800202a:	f000 f90b 	bl	8002244 <prvCopyDataToQueue>

			/* The event list is not altered if the queue is locked.  This will
			be done when the queue is unlocked later. */
			if( cTxLock == queueUNLOCKED )
 800202e:	f997 302b 	ldrsb.w	r3, [r7, #43]	; 0x2b
 8002032:	f1b3 3fff 	cmp.w	r3, #4294967295
 8002036:	d112      	bne.n	800205e <xQueueGenericSendFromISR+0xfa>
						}
					}
				}
				#else /* configUSE_QUEUE_SETS */
				{
					if( listLIST_IS_EMPTY( &( pxQueue->xTasksWaitingToReceive ) ) == pdFALSE )
 8002038:	6b3b      	ldr	r3, [r7, #48]	; 0x30
 800203a:	6a5b      	ldr	r3, [r3, #36]	; 0x24
 800203c:	2b00      	cmp	r3, #0
 800203e:	d016      	beq.n	800206e <xQueueGenericSendFromISR+0x10a>
					{
						if( xTaskRemoveFromEventList( &( pxQueue->xTasksWaitingToReceive ) ) != pdFALSE )
 8002040:	6b3b      	ldr	r3, [r7, #48]	; 0x30
 8002042:	3324      	adds	r3, #36	; 0x24
 8002044:	4618      	mov	r0, r3
 8002046:	f000 feb5 	bl	8002db4 <xTaskRemoveFromEventList>
 800204a:	4603      	mov	r3, r0
 800204c:	2b00      	cmp	r3, #0
 800204e:	d00e      	beq.n	800206e <xQueueGenericSendFromISR+0x10a>
						{
							/* The task waiting has a higher priority so record that a
							context	switch is required. */
							if( pxHigherPriorityTaskWoken != NULL )
 8002050:	687b      	ldr	r3, [r7, #4]
 8002052:	2b00      	cmp	r3, #0
 8002054:	d00b      	beq.n	800206e <xQueueGenericSendFromISR+0x10a>
							{
								*pxHigherPriorityTaskWoken = pdTRUE;
 8002056:	687b      	ldr	r3, [r7, #4]
 8002058:	2201      	movs	r2, #1
 800205a:	601a      	str	r2, [r3, #0]
 800205c:	e007      	b.n	800206e <xQueueGenericSendFromISR+0x10a>
			}
			else
			{
				/* Increment the lock count so the task that unlocks the queue
				knows that data was posted while it was locked. */
				pxQueue->cTxLock = ( int8_t ) ( cTxLock + 1 );
 800205e:	f897 302b 	ldrb.w	r3, [r7, #43]	; 0x2b
 8002062:	3301      	adds	r3, #1
 8002064:	b2db      	uxtb	r3, r3
 8002066:	b25a      	sxtb	r2, r3
 8002068:	6b3b      	ldr	r3, [r7, #48]	; 0x30
 800206a:	f883 2045 	strb.w	r2, [r3, #69]	; 0x45
			}

			xReturn = pdPASS;
 800206e:	2301      	movs	r3, #1
 8002070:	637b      	str	r3, [r7, #52]	; 0x34
		{
 8002072:	e001      	b.n	8002078 <xQueueGenericSendFromISR+0x114>
		}
		else
		{
			traceQUEUE_SEND_FROM_ISR_FAILED( pxQueue );
			xReturn = errQUEUE_FULL;
 8002074:	2300      	movs	r3, #0
 8002076:	637b      	str	r3, [r7, #52]	; 0x34
 8002078:	6afb      	ldr	r3, [r7, #44]	; 0x2c
 800207a:	613b      	str	r3, [r7, #16]
}
/*-----------------------------------------------------------*/

portFORCE_INLINE static void vPortSetBASEPRI( uint32_t ulNewMaskValue )
{
	__asm volatile
 800207c:	693b      	ldr	r3, [r7, #16]
 800207e:	f383 8811 	msr	BASEPRI, r3
		}
	}
	portCLEAR_INTERRUPT_MASK_FROM_ISR( uxSavedInterruptStatus );

	return xReturn;
 8002082:	6b7b      	ldr	r3, [r7, #52]	; 0x34
}
 8002084:	4618      	mov	r0, r3
 8002086:	3738      	adds	r7, #56	; 0x38
 8002088:	46bd      	mov	sp, r7
 800208a:	bd80      	pop	{r7, pc}

0800208c <xQueueReceive>:
	return xReturn;
}
/*-----------------------------------------------------------*/

BaseType_t xQueueReceive( QueueHandle_t xQueue, void * const pvBuffer, TickType_t xTicksToWait )
{
 800208c:	b580      	push	{r7, lr}
 800208e:	b08c      	sub	sp, #48	; 0x30
 8002090:	af00      	add	r7, sp, #0
 8002092:	60f8      	str	r0, [r7, #12]
 8002094:	60b9      	str	r1, [r7, #8]
 8002096:	607a      	str	r2, [r7, #4]
BaseType_t xEntryTimeSet = pdFALSE;
 8002098:	2300      	movs	r3, #0
 800209a:	62fb      	str	r3, [r7, #44]	; 0x2c
TimeOut_t xTimeOut;
Queue_t * const pxQueue = ( Queue_t * ) xQueue;
 800209c:	68fb      	ldr	r3, [r7, #12]
 800209e:	62bb      	str	r3, [r7, #40]	; 0x28

	/* Check the pointer is not NULL. */
	configASSERT( ( pxQueue ) );
 80020a0:	6abb      	ldr	r3, [r7, #40]	; 0x28
 80020a2:	2b00      	cmp	r3, #0
 80020a4:	d109      	bne.n	80020ba <xQueueReceive+0x2e>
	__asm volatile
 80020a6:	f04f 0350 	mov.w	r3, #80	; 0x50
 80020aa:	f383 8811 	msr	BASEPRI, r3
 80020ae:	f3bf 8f6f 	isb	sy
 80020b2:	f3bf 8f4f 	dsb	sy
 80020b6:	623b      	str	r3, [r7, #32]
 80020b8:	e7fe      	b.n	80020b8 <xQueueReceive+0x2c>

	/* The buffer into which data is received can only be NULL if the data size
	is zero (so no data is copied into the buffer. */
	configASSERT( !( ( ( pvBuffer ) == NULL ) && ( ( pxQueue )->uxItemSize != ( UBaseType_t ) 0U ) ) );
 80020ba:	68bb      	ldr	r3, [r7, #8]
 80020bc:	2b00      	cmp	r3, #0
 80020be:	d103      	bne.n	80020c8 <xQueueReceive+0x3c>
 80020c0:	6abb      	ldr	r3, [r7, #40]	; 0x28
 80020c2:	6c1b      	ldr	r3, [r3, #64]	; 0x40
 80020c4:	2b00      	cmp	r3, #0
 80020c6:	d101      	bne.n	80020cc <xQueueReceive+0x40>
 80020c8:	2301      	movs	r3, #1
 80020ca:	e000      	b.n	80020ce <xQueueReceive+0x42>
 80020cc:	2300      	movs	r3, #0
 80020ce:	2b00      	cmp	r3, #0
 80020d0:	d109      	bne.n	80020e6 <xQueueReceive+0x5a>
 80020d2:	f04f 0350 	mov.w	r3, #80	; 0x50
 80020d6:	f383 8811 	msr	BASEPRI, r3
 80020da:	f3bf 8f6f 	isb	sy
 80020de:	f3bf 8f4f 	dsb	sy
 80020e2:	61fb      	str	r3, [r7, #28]
 80020e4:	e7fe      	b.n	80020e4 <xQueueReceive+0x58>

	/* Cannot block if the scheduler is suspended. */
	#if ( ( INCLUDE_xTaskGetSchedulerState == 1 ) || ( configUSE_TIMERS == 1 ) )
	{
		configASSERT( !( ( xTaskGetSchedulerState() == taskSCHEDULER_SUSPENDED ) && ( xTicksToWait != 0 ) ) );
 80020e6:	f001 f81f 	bl	8003128 <xTaskGetSchedulerState>
 80020ea:	4603      	mov	r3, r0
 80020ec:	2b00      	cmp	r3, #0
 80020ee:	d102      	bne.n	80020f6 <xQueueReceive+0x6a>
 80020f0:	687b      	ldr	r3, [r7, #4]
 80020f2:	2b00      	cmp	r3, #0
 80020f4:	d101      	bne.n	80020fa <xQueueReceive+0x6e>
 80020f6:	2301      	movs	r3, #1
 80020f8:	e000      	b.n	80020fc <xQueueReceive+0x70>
 80020fa:	2300      	movs	r3, #0
 80020fc:	2b00      	cmp	r3, #0
 80020fe:	d109      	bne.n	8002114 <xQueueReceive+0x88>
 8002100:	f04f 0350 	mov.w	r3, #80	; 0x50
 8002104:	f383 8811 	msr	BASEPRI, r3
 8002108:	f3bf 8f6f 	isb	sy
 800210c:	f3bf 8f4f 	dsb	sy
 8002110:	61bb      	str	r3, [r7, #24]
 8002112:	e7fe      	b.n	8002112 <xQueueReceive+0x86>
	statements within the function itself.  This is done in the interest
	of execution time efficiency. */

	for( ;; )
	{
		taskENTER_CRITICAL();
 8002114:	f001 fcd8 	bl	8003ac8 <vPortEnterCritical>
		{
			const UBaseType_t uxMessagesWaiting = pxQueue->uxMessagesWaiting;
 8002118:	6abb      	ldr	r3, [r7, #40]	; 0x28
 800211a:	6b9b      	ldr	r3, [r3, #56]	; 0x38
 800211c:	627b      	str	r3, [r7, #36]	; 0x24

			/* Is there data in the queue now?  To be running the calling task
			must be the highest priority task wanting to access the queue. */
			if( uxMessagesWaiting > ( UBaseType_t ) 0 )
 800211e:	6a7b      	ldr	r3, [r7, #36]	; 0x24
 8002120:	2b00      	cmp	r3, #0
 8002122:	d01f      	beq.n	8002164 <xQueueReceive+0xd8>
			{
				/* Data available, remove one item. */
				prvCopyDataFromQueue( pxQueue, pvBuffer );
 8002124:	68b9      	ldr	r1, [r7, #8]
 8002126:	6ab8      	ldr	r0, [r7, #40]	; 0x28
 8002128:	f000 f8f6 	bl	8002318 <prvCopyDataFromQueue>
				traceQUEUE_RECEIVE( pxQueue );
				pxQueue->uxMessagesWaiting = uxMessagesWaiting - ( UBaseType_t ) 1;
 800212c:	6a7b      	ldr	r3, [r7, #36]	; 0x24
 800212e:	1e5a      	subs	r2, r3, #1
 8002130:	6abb      	ldr	r3, [r7, #40]	; 0x28
 8002132:	639a      	str	r2, [r3, #56]	; 0x38

				/* There is now space in the queue, were any tasks waiting to
				post to the queue?  If so, unblock the highest priority waiting
				task. */
				if( listLIST_IS_EMPTY( &( pxQueue->xTasksWaitingToSend ) ) == pdFALSE )
 8002134:	6abb      	ldr	r3, [r7, #40]	; 0x28
 8002136:	691b      	ldr	r3, [r3, #16]
 8002138:	2b00      	cmp	r3, #0
 800213a:	d00f      	beq.n	800215c <xQueueReceive+0xd0>
				{
					if( xTaskRemoveFromEventList( &( pxQueue->xTasksWaitingToSend ) ) != pdFALSE )
 800213c:	6abb      	ldr	r3, [r7, #40]	; 0x28
 800213e:	3310      	adds	r3, #16
 8002140:	4618      	mov	r0, r3
 8002142:	f000 fe37 	bl	8002db4 <xTaskRemoveFromEventList>
 8002146:	4603      	mov	r3, r0
 8002148:	2b00      	cmp	r3, #0
 800214a:	d007      	beq.n	800215c <xQueueReceive+0xd0>
					{
						queueYIELD_IF_USING_PREEMPTION();
 800214c:	4b3c      	ldr	r3, [pc, #240]	; (8002240 <xQueueReceive+0x1b4>)
 800214e:	f04f 5280 	mov.w	r2, #268435456	; 0x10000000
 8002152:	601a      	str	r2, [r3, #0]
 8002154:	f3bf 8f4f 	dsb	sy
 8002158:	f3bf 8f6f 	isb	sy
				else
				{
					mtCOVERAGE_TEST_MARKER();
				}

				taskEXIT_CRITICAL();
 800215c:	f001 fce2 	bl	8003b24 <vPortExitCritical>
				return pdPASS;
 8002160:	2301      	movs	r3, #1
 8002162:	e069      	b.n	8002238 <xQueueReceive+0x1ac>
			}
			else
			{
				if( xTicksToWait == ( TickType_t ) 0 )
 8002164:	687b      	ldr	r3, [r7, #4]
 8002166:	2b00      	cmp	r3, #0
 8002168:	d103      	bne.n	8002172 <xQueueReceive+0xe6>
				{
					/* The queue was empty and no block time is specified (or
					the block time has expired) so leave now. */
					taskEXIT_CRITICAL();
 800216a:	f001 fcdb 	bl	8003b24 <vPortExitCritical>
					traceQUEUE_RECEIVE_FAILED( pxQueue );
					return errQUEUE_EMPTY;
 800216e:	2300      	movs	r3, #0
 8002170:	e062      	b.n	8002238 <xQueueReceive+0x1ac>
				}
				else if( xEntryTimeSet == pdFALSE )
 8002172:	6afb      	ldr	r3, [r7, #44]	; 0x2c
 8002174:	2b00      	cmp	r3, #0
 8002176:	d106      	bne.n	8002186 <xQueueReceive+0xfa>
				{
					/* The queue was empty and a block time was specified so
					configure the timeout structure. */
					vTaskInternalSetTimeOutState( &xTimeOut );
 8002178:	f107 0310 	add.w	r3, r7, #16
 800217c:	4618      	mov	r0, r3
 800217e:	f000 fe7b 	bl	8002e78 <vTaskInternalSetTimeOutState>
					xEntryTimeSet = pdTRUE;
 8002182:	2301      	movs	r3, #1
 8002184:	62fb      	str	r3, [r7, #44]	; 0x2c
					/* Entry time was already set. */
					mtCOVERAGE_TEST_MARKER();
				}
			}
		}
		taskEXIT_CRITICAL();
 8002186:	f001 fccd 	bl	8003b24 <vPortExitCritical>

		/* Interrupts and other tasks can send to and receive from the queue
		now the critical section has been exited. */

		vTaskSuspendAll();
 800218a:	f000 fbf3 	bl	8002974 <vTaskSuspendAll>
		prvLockQueue( pxQueue );
 800218e:	f001 fc9b 	bl	8003ac8 <vPortEnterCritical>
 8002192:	6abb      	ldr	r3, [r7, #40]	; 0x28
 8002194:	f893 3044 	ldrb.w	r3, [r3, #68]	; 0x44
 8002198:	b25b      	sxtb	r3, r3
 800219a:	f1b3 3fff 	cmp.w	r3, #4294967295
 800219e:	d103      	bne.n	80021a8 <xQueueReceive+0x11c>
 80021a0:	6abb      	ldr	r3, [r7, #40]	; 0x28
 80021a2:	2200      	movs	r2, #0
 80021a4:	f883 2044 	strb.w	r2, [r3, #68]	; 0x44
 80021a8:	6abb      	ldr	r3, [r7, #40]	; 0x28
 80021aa:	f893 3045 	ldrb.w	r3, [r3, #69]	; 0x45
 80021ae:	b25b      	sxtb	r3, r3
 80021b0:	f1b3 3fff 	cmp.w	r3, #4294967295
 80021b4:	d103      	bne.n	80021be <xQueueReceive+0x132>
 80021b6:	6abb      	ldr	r3, [r7, #40]	; 0x28
 80021b8:	2200      	movs	r2, #0
 80021ba:	f883 2045 	strb.w	r2, [r3, #69]	; 0x45
 80021be:	f001 fcb1 	bl	8003b24 <vPortExitCritical>

		/* Update the timeout state to see if it has expired yet. */
		if( xTaskCheckForTimeOut( &xTimeOut, &xTicksToWait ) == pdFALSE )
 80021c2:	1d3a      	adds	r2, r7, #4
 80021c4:	f107 0310 	add.w	r3, r7, #16
 80021c8:	4611      	mov	r1, r2
 80021ca:	4618      	mov	r0, r3
 80021cc:	f000 fe6a 	bl	8002ea4 <xTaskCheckForTimeOut>
 80021d0:	4603      	mov	r3, r0
 80021d2:	2b00      	cmp	r3, #0
 80021d4:	d123      	bne.n	800221e <xQueueReceive+0x192>
		{
			/* The timeout has not expired.  If the queue is still empty place
			the task on the list of tasks waiting to receive from the queue. */
			if( prvIsQueueEmpty( pxQueue ) != pdFALSE )
 80021d6:	6ab8      	ldr	r0, [r7, #40]	; 0x28
 80021d8:	f000 f916 	bl	8002408 <prvIsQueueEmpty>
 80021dc:	4603      	mov	r3, r0
 80021de:	2b00      	cmp	r3, #0
 80021e0:	d017      	beq.n	8002212 <xQueueReceive+0x186>
			{
				traceBLOCKING_ON_QUEUE_RECEIVE( pxQueue );
				vTaskPlaceOnEventList( &( pxQueue->xTasksWaitingToReceive ), xTicksToWait );
 80021e2:	6abb      	ldr	r3, [r7, #40]	; 0x28
 80021e4:	3324      	adds	r3, #36	; 0x24
 80021e6:	687a      	ldr	r2, [r7, #4]
 80021e8:	4611      	mov	r1, r2
 80021ea:	4618      	mov	r0, r3
 80021ec:	f000 fd94 	bl	8002d18 <vTaskPlaceOnEventList>
				prvUnlockQueue( pxQueue );
 80021f0:	6ab8      	ldr	r0, [r7, #40]	; 0x28
 80021f2:	f000 f8b7 	bl	8002364 <prvUnlockQueue>
				if( xTaskResumeAll() == pdFALSE )
 80021f6:	f000 fbcb 	bl	8002990 <xTaskResumeAll>
 80021fa:	4603      	mov	r3, r0
 80021fc:	2b00      	cmp	r3, #0
 80021fe:	d189      	bne.n	8002114 <xQueueReceive+0x88>
				{
					portYIELD_WITHIN_API();
 8002200:	4b0f      	ldr	r3, [pc, #60]	; (8002240 <xQueueReceive+0x1b4>)
 8002202:	f04f 5280 	mov.w	r2, #268435456	; 0x10000000
 8002206:	601a      	str	r2, [r3, #0]
 8002208:	f3bf 8f4f 	dsb	sy
 800220c:	f3bf 8f6f 	isb	sy
 8002210:	e780      	b.n	8002114 <xQueueReceive+0x88>
			}
			else
			{
				/* The queue contains data again.  Loop back to try and read the
				data. */
				prvUnlockQueue( pxQueue );
 8002212:	6ab8      	ldr	r0, [r7, #40]	; 0x28
 8002214:	f000 f8a6 	bl	8002364 <prvUnlockQueue>
				( void ) xTaskResumeAll();
 8002218:	f000 fbba 	bl	8002990 <xTaskResumeAll>
 800221c:	e77a      	b.n	8002114 <xQueueReceive+0x88>
		}
		else
		{
			/* Timed out.  If there is no data in the queue exit, otherwise loop
			back and attempt to read the data. */
			prvUnlockQueue( pxQueue );
 800221e:	6ab8      	ldr	r0, [r7, #40]	; 0x28
 8002220:	f000 f8a0 	bl	8002364 <prvUnlockQueue>
			( void ) xTaskResumeAll();
 8002224:	f000 fbb4 	bl	8002990 <xTaskResumeAll>

			if( prvIsQueueEmpty( pxQueue ) != pdFALSE )
 8002228:	6ab8      	ldr	r0, [r7, #40]	; 0x28
 800222a:	f000 f8ed 	bl	8002408 <prvIsQueueEmpty>
 800222e:	4603      	mov	r3, r0
 8002230:	2b00      	cmp	r3, #0
 8002232:	f43f af6f 	beq.w	8002114 <xQueueReceive+0x88>
			{
				traceQUEUE_RECEIVE_FAILED( pxQueue );
				return errQUEUE_EMPTY;
 8002236:	2300      	movs	r3, #0
			{
				mtCOVERAGE_TEST_MARKER();
			}
		}
	}
}
 8002238:	4618      	mov	r0, r3
 800223a:	3730      	adds	r7, #48	; 0x30
 800223c:	46bd      	mov	sp, r7
 800223e:	bd80      	pop	{r7, pc}
 8002240:	e000ed04 	.word	0xe000ed04

08002244 <prvCopyDataToQueue>:

#endif /* configUSE_MUTEXES */
/*-----------------------------------------------------------*/

static BaseType_t prvCopyDataToQueue( Queue_t * const pxQueue, const void *pvItemToQueue, const BaseType_t xPosition )
{
 8002244:	b580      	push	{r7, lr}
 8002246:	b086      	sub	sp, #24
 8002248:	af00      	add	r7, sp, #0
 800224a:	60f8      	str	r0, [r7, #12]
 800224c:	60b9      	str	r1, [r7, #8]
 800224e:	607a      	str	r2, [r7, #4]
BaseType_t xReturn = pdFALSE;
 8002250:	2300      	movs	r3, #0
 8002252:	617b      	str	r3, [r7, #20]
UBaseType_t uxMessagesWaiting;

	/* This function is called from a critical section. */

	uxMessagesWaiting = pxQueue->uxMessagesWaiting;
 8002254:	68fb      	ldr	r3, [r7, #12]
 8002256:	6b9b      	ldr	r3, [r3, #56]	; 0x38
 8002258:	613b      	str	r3, [r7, #16]

	if( pxQueue->uxItemSize == ( UBaseType_t ) 0 )
 800225a:	68fb      	ldr	r3, [r7, #12]
 800225c:	6c1b      	ldr	r3, [r3, #64]	; 0x40
 800225e:	2b00      	cmp	r3, #0
 8002260:	d10d      	bne.n	800227e <prvCopyDataToQueue+0x3a>
	{
		#if ( configUSE_MUTEXES == 1 )
		{
			if( pxQueue->uxQueueType == queueQUEUE_IS_MUTEX )
 8002262:	68fb      	ldr	r3, [r7, #12]
 8002264:	681b      	ldr	r3, [r3, #0]
 8002266:	2b00      	cmp	r3, #0
 8002268:	d14d      	bne.n	8002306 <prvCopyDataToQueue+0xc2>
			{
				/* The mutex is no longer being held. */
				xReturn = xTaskPriorityDisinherit( ( void * ) pxQueue->pxMutexHolder );
 800226a:	68fb      	ldr	r3, [r7, #12]
 800226c:	685b      	ldr	r3, [r3, #4]
 800226e:	4618      	mov	r0, r3
 8002270:	f000 ff78 	bl	8003164 <xTaskPriorityDisinherit>
 8002274:	6178      	str	r0, [r7, #20]
				pxQueue->pxMutexHolder = NULL;
 8002276:	68fb      	ldr	r3, [r7, #12]
 8002278:	2200      	movs	r2, #0
 800227a:	605a      	str	r2, [r3, #4]
 800227c:	e043      	b.n	8002306 <prvCopyDataToQueue+0xc2>
				mtCOVERAGE_TEST_MARKER();
			}
		}
		#endif /* configUSE_MUTEXES */
	}
	else if( xPosition == queueSEND_TO_BACK )
 800227e:	687b      	ldr	r3, [r7, #4]
 8002280:	2b00      	cmp	r3, #0
 8002282:	d119      	bne.n	80022b8 <prvCopyDataToQueue+0x74>
	{
		( void ) memcpy( ( void * ) pxQueue->pcWriteTo, pvItemToQueue, ( size_t ) pxQueue->uxItemSize ); /*lint !e961 !e418 MISRA exception as the casts are only redundant for some ports, plus previous logic ensures a null pointer can only be passed to memcpy() if the copy size is 0. */
 8002284:	68fb      	ldr	r3, [r7, #12]
 8002286:	6898      	ldr	r0, [r3, #8]
 8002288:	68fb      	ldr	r3, [r7, #12]
 800228a:	6c1b      	ldr	r3, [r3, #64]	; 0x40
 800228c:	461a      	mov	r2, r3
 800228e:	68b9      	ldr	r1, [r7, #8]
 8002290:	f001 ff08 	bl	80040a4 <memcpy>
		pxQueue->pcWriteTo += pxQueue->uxItemSize;
 8002294:	68fb      	ldr	r3, [r7, #12]
 8002296:	689a      	ldr	r2, [r3, #8]
 8002298:	68fb      	ldr	r3, [r7, #12]
 800229a:	6c1b      	ldr	r3, [r3, #64]	; 0x40
 800229c:	441a      	add	r2, r3
 800229e:	68fb      	ldr	r3, [r7, #12]
 80022a0:	609a      	str	r2, [r3, #8]
		if( pxQueue->pcWriteTo >= pxQueue->pcTail ) /*lint !e946 MISRA exception justified as comparison of pointers is the cleanest solution. */
 80022a2:	68fb      	ldr	r3, [r7, #12]
 80022a4:	689a      	ldr	r2, [r3, #8]
 80022a6:	68fb      	ldr	r3, [r7, #12]
 80022a8:	685b      	ldr	r3, [r3, #4]
 80022aa:	429a      	cmp	r2, r3
 80022ac:	d32b      	bcc.n	8002306 <prvCopyDataToQueue+0xc2>
		{
			pxQueue->pcWriteTo = pxQueue->pcHead;
 80022ae:	68fb      	ldr	r3, [r7, #12]
 80022b0:	681a      	ldr	r2, [r3, #0]
 80022b2:	68fb      	ldr	r3, [r7, #12]
 80022b4:	609a      	str	r2, [r3, #8]
 80022b6:	e026      	b.n	8002306 <prvCopyDataToQueue+0xc2>
			mtCOVERAGE_TEST_MARKER();
		}
	}
	else
	{
		( void ) memcpy( ( void * ) pxQueue->u.pcReadFrom, pvItemToQueue, ( size_t ) pxQueue->uxItemSize ); /*lint !e961 MISRA exception as the casts are only redundant for some ports. */
 80022b8:	68fb      	ldr	r3, [r7, #12]
 80022ba:	68d8      	ldr	r0, [r3, #12]
 80022bc:	68fb      	ldr	r3, [r7, #12]
 80022be:	6c1b      	ldr	r3, [r3, #64]	; 0x40
 80022c0:	461a      	mov	r2, r3
 80022c2:	68b9      	ldr	r1, [r7, #8]
 80022c4:	f001 feee 	bl	80040a4 <memcpy>
		pxQueue->u.pcReadFrom -= pxQueue->uxItemSize;
 80022c8:	68fb      	ldr	r3, [r7, #12]
 80022ca:	68da      	ldr	r2, [r3, #12]
 80022cc:	68fb      	ldr	r3, [r7, #12]
 80022ce:	6c1b      	ldr	r3, [r3, #64]	; 0x40
 80022d0:	425b      	negs	r3, r3
 80022d2:	441a      	add	r2, r3
 80022d4:	68fb      	ldr	r3, [r7, #12]
 80022d6:	60da      	str	r2, [r3, #12]
		if( pxQueue->u.pcReadFrom < pxQueue->pcHead ) /*lint !e946 MISRA exception justified as comparison of pointers is the cleanest solution. */
 80022d8:	68fb      	ldr	r3, [r7, #12]
 80022da:	68da      	ldr	r2, [r3, #12]
 80022dc:	68fb      	ldr	r3, [r7, #12]
 80022de:	681b      	ldr	r3, [r3, #0]
 80022e0:	429a      	cmp	r2, r3
 80022e2:	d207      	bcs.n	80022f4 <prvCopyDataToQueue+0xb0>
		{
			pxQueue->u.pcReadFrom = ( pxQueue->pcTail - pxQueue->uxItemSize );
 80022e4:	68fb      	ldr	r3, [r7, #12]
 80022e6:	685a      	ldr	r2, [r3, #4]
 80022e8:	68fb      	ldr	r3, [r7, #12]
 80022ea:	6c1b      	ldr	r3, [r3, #64]	; 0x40
 80022ec:	425b      	negs	r3, r3
 80022ee:	441a      	add	r2, r3
 80022f0:	68fb      	ldr	r3, [r7, #12]
 80022f2:	60da      	str	r2, [r3, #12]
		else
		{
			mtCOVERAGE_TEST_MARKER();
		}

		if( xPosition == queueOVERWRITE )
 80022f4:	687b      	ldr	r3, [r7, #4]
 80022f6:	2b02      	cmp	r3, #2
 80022f8:	d105      	bne.n	8002306 <prvCopyDataToQueue+0xc2>
		{
			if( uxMessagesWaiting > ( UBaseType_t ) 0 )
 80022fa:	693b      	ldr	r3, [r7, #16]
 80022fc:	2b00      	cmp	r3, #0
 80022fe:	d002      	beq.n	8002306 <prvCopyDataToQueue+0xc2>
			{
				/* An item is not being added but overwritten, so subtract
				one from the recorded number of items in the queue so when
				one is added again below the number of recorded items remains
				correct. */
				--uxMessagesWaiting;
 8002300:	693b      	ldr	r3, [r7, #16]
 8002302:	3b01      	subs	r3, #1
 8002304:	613b      	str	r3, [r7, #16]
		{
			mtCOVERAGE_TEST_MARKER();
		}
	}

	pxQueue->uxMessagesWaiting = uxMessagesWaiting + ( UBaseType_t ) 1;
 8002306:	693b      	ldr	r3, [r7, #16]
 8002308:	1c5a      	adds	r2, r3, #1
 800230a:	68fb      	ldr	r3, [r7, #12]
 800230c:	639a      	str	r2, [r3, #56]	; 0x38

	return xReturn;
 800230e:	697b      	ldr	r3, [r7, #20]
}
 8002310:	4618      	mov	r0, r3
 8002312:	3718      	adds	r7, #24
 8002314:	46bd      	mov	sp, r7
 8002316:	bd80      	pop	{r7, pc}

08002318 <prvCopyDataFromQueue>:
/*-----------------------------------------------------------*/

static void prvCopyDataFromQueue( Queue_t * const pxQueue, void * const pvBuffer )
{
 8002318:	b580      	push	{r7, lr}
 800231a:	b082      	sub	sp, #8
 800231c:	af00      	add	r7, sp, #0
 800231e:	6078      	str	r0, [r7, #4]
 8002320:	6039      	str	r1, [r7, #0]
	if( pxQueue->uxItemSize != ( UBaseType_t ) 0 )
 8002322:	687b      	ldr	r3, [r7, #4]
 8002324:	6c1b      	ldr	r3, [r3, #64]	; 0x40
 8002326:	2b00      	cmp	r3, #0
 8002328:	d018      	beq.n	800235c <prvCopyDataFromQueue+0x44>
	{
		pxQueue->u.pcReadFrom += pxQueue->uxItemSize;
 800232a:	687b      	ldr	r3, [r7, #4]
 800232c:	68da      	ldr	r2, [r3, #12]
 800232e:	687b      	ldr	r3, [r7, #4]
 8002330:	6c1b      	ldr	r3, [r3, #64]	; 0x40
 8002332:	441a      	add	r2, r3
 8002334:	687b      	ldr	r3, [r7, #4]
 8002336:	60da      	str	r2, [r3, #12]
		if( pxQueue->u.pcReadFrom >= pxQueue->pcTail ) /*lint !e946 MISRA exception justified as use of the relational operator is the cleanest solutions. */
 8002338:	687b      	ldr	r3, [r7, #4]
 800233a:	68da      	ldr	r2, [r3, #12]
 800233c:	687b      	ldr	r3, [r7, #4]
 800233e:	685b      	ldr	r3, [r3, #4]
 8002340:	429a      	cmp	r2, r3
 8002342:	d303      	bcc.n	800234c <prvCopyDataFromQueue+0x34>
		{
			pxQueue->u.pcReadFrom = pxQueue->pcHead;
 8002344:	687b      	ldr	r3, [r7, #4]
 8002346:	681a      	ldr	r2, [r3, #0]
 8002348:	687b      	ldr	r3, [r7, #4]
 800234a:	60da      	str	r2, [r3, #12]
		}
		else
		{
			mtCOVERAGE_TEST_MARKER();
		}
		( void ) memcpy( ( void * ) pvBuffer, ( void * ) pxQueue->u.pcReadFrom, ( size_t ) pxQueue->uxItemSize ); /*lint !e961 !e418 MISRA exception as the casts are only redundant for some ports.  Also previous logic ensures a null pointer can only be passed to memcpy() when the count is 0. */
 800234c:	687b      	ldr	r3, [r7, #4]
 800234e:	68d9      	ldr	r1, [r3, #12]
 8002350:	687b      	ldr	r3, [r7, #4]
 8002352:	6c1b      	ldr	r3, [r3, #64]	; 0x40
 8002354:	461a      	mov	r2, r3
 8002356:	6838      	ldr	r0, [r7, #0]
 8002358:	f001 fea4 	bl	80040a4 <memcpy>
	}
}
 800235c:	bf00      	nop
 800235e:	3708      	adds	r7, #8
 8002360:	46bd      	mov	sp, r7
 8002362:	bd80      	pop	{r7, pc}

08002364 <prvUnlockQueue>:
/*-----------------------------------------------------------*/

static void prvUnlockQueue( Queue_t * const pxQueue )
{
 8002364:	b580      	push	{r7, lr}
 8002366:	b084      	sub	sp, #16
 8002368:	af00      	add	r7, sp, #0
 800236a:	6078      	str	r0, [r7, #4]

	/* The lock counts contains the number of extra data items placed or
	removed from the queue while the queue was locked.  When a queue is
	locked items can be added or removed, but the event lists cannot be
	updated. */
	taskENTER_CRITICAL();
 800236c:	f001 fbac 	bl	8003ac8 <vPortEnterCritical>
	{
		int8_t cTxLock = pxQueue->cTxLock;
 8002370:	687b      	ldr	r3, [r7, #4]
 8002372:	f893 3045 	ldrb.w	r3, [r3, #69]	; 0x45
 8002376:	73fb      	strb	r3, [r7, #15]

		/* See if data was added to the queue while it was locked. */
		while( cTxLock > queueLOCKED_UNMODIFIED )
 8002378:	e011      	b.n	800239e <prvUnlockQueue+0x3a>
			}
			#else /* configUSE_QUEUE_SETS */
			{
				/* Tasks that are removed from the event list will get added to
				the pending ready list as the scheduler is still suspended. */
				if( listLIST_IS_EMPTY( &( pxQueue->xTasksWaitingToReceive ) ) == pdFALSE )
 800237a:	687b      	ldr	r3, [r7, #4]
 800237c:	6a5b      	ldr	r3, [r3, #36]	; 0x24
 800237e:	2b00      	cmp	r3, #0
 8002380:	d012      	beq.n	80023a8 <prvUnlockQueue+0x44>
				{
					if( xTaskRemoveFromEventList( &( pxQueue->xTasksWaitingToReceive ) ) != pdFALSE )
 8002382:	687b      	ldr	r3, [r7, #4]
 8002384:	3324      	adds	r3, #36	; 0x24
 8002386:	4618      	mov	r0, r3
 8002388:	f000 fd14 	bl	8002db4 <xTaskRemoveFromEventList>
 800238c:	4603      	mov	r3, r0
 800238e:	2b00      	cmp	r3, #0
 8002390:	d001      	beq.n	8002396 <prvUnlockQueue+0x32>
					{
						/* The task waiting has a higher priority so record that
						a context switch is required. */
						vTaskMissedYield();
 8002392:	f000 fde7 	bl	8002f64 <vTaskMissedYield>
					break;
				}
			}
			#endif /* configUSE_QUEUE_SETS */

			--cTxLock;
 8002396:	7bfb      	ldrb	r3, [r7, #15]
 8002398:	3b01      	subs	r3, #1
 800239a:	b2db      	uxtb	r3, r3
 800239c:	73fb      	strb	r3, [r7, #15]
		while( cTxLock > queueLOCKED_UNMODIFIED )
 800239e:	f997 300f 	ldrsb.w	r3, [r7, #15]
 80023a2:	2b00      	cmp	r3, #0
 80023a4:	dce9      	bgt.n	800237a <prvUnlockQueue+0x16>
 80023a6:	e000      	b.n	80023aa <prvUnlockQueue+0x46>
					break;
 80023a8:	bf00      	nop
		}

		pxQueue->cTxLock = queueUNLOCKED;
 80023aa:	687b      	ldr	r3, [r7, #4]
 80023ac:	22ff      	movs	r2, #255	; 0xff
 80023ae:	f883 2045 	strb.w	r2, [r3, #69]	; 0x45
	}
	taskEXIT_CRITICAL();
 80023b2:	f001 fbb7 	bl	8003b24 <vPortExitCritical>

	/* Do the same for the Rx lock. */
	taskENTER_CRITICAL();
 80023b6:	f001 fb87 	bl	8003ac8 <vPortEnterCritical>
	{
		int8_t cRxLock = pxQueue->cRxLock;
 80023ba:	687b      	ldr	r3, [r7, #4]
 80023bc:	f893 3044 	ldrb.w	r3, [r3, #68]	; 0x44
 80023c0:	73bb      	strb	r3, [r7, #14]

		while( cRxLock > queueLOCKED_UNMODIFIED )
 80023c2:	e011      	b.n	80023e8 <prvUnlockQueue+0x84>
		{
			if( listLIST_IS_EMPTY( &( pxQueue->xTasksWaitingToSend ) ) == pdFALSE )
 80023c4:	687b      	ldr	r3, [r7, #4]
 80023c6:	691b      	ldr	r3, [r3, #16]
 80023c8:	2b00      	cmp	r3, #0
 80023ca:	d012      	beq.n	80023f2 <prvUnlockQueue+0x8e>
			{
				if( xTaskRemoveFromEventList( &( pxQueue->xTasksWaitingToSend ) ) != pdFALSE )
 80023cc:	687b      	ldr	r3, [r7, #4]
 80023ce:	3310      	adds	r3, #16
 80023d0:	4618      	mov	r0, r3
 80023d2:	f000 fcef 	bl	8002db4 <xTaskRemoveFromEventList>
 80023d6:	4603      	mov	r3, r0
 80023d8:	2b00      	cmp	r3, #0
 80023da:	d001      	beq.n	80023e0 <prvUnlockQueue+0x7c>
				{
					vTaskMissedYield();
 80023dc:	f000 fdc2 	bl	8002f64 <vTaskMissedYield>
				else
				{
					mtCOVERAGE_TEST_MARKER();
				}

				--cRxLock;
 80023e0:	7bbb      	ldrb	r3, [r7, #14]
 80023e2:	3b01      	subs	r3, #1
 80023e4:	b2db      	uxtb	r3, r3
 80023e6:	73bb      	strb	r3, [r7, #14]
		while( cRxLock > queueLOCKED_UNMODIFIED )
 80023e8:	f997 300e 	ldrsb.w	r3, [r7, #14]
 80023ec:	2b00      	cmp	r3, #0
 80023ee:	dce9      	bgt.n	80023c4 <prvUnlockQueue+0x60>
 80023f0:	e000      	b.n	80023f4 <prvUnlockQueue+0x90>
			}
			else
			{
				break;
 80023f2:	bf00      	nop
			}
		}

		pxQueue->cRxLock = queueUNLOCKED;
 80023f4:	687b      	ldr	r3, [r7, #4]
 80023f6:	22ff      	movs	r2, #255	; 0xff
 80023f8:	f883 2044 	strb.w	r2, [r3, #68]	; 0x44
	}
	taskEXIT_CRITICAL();
 80023fc:	f001 fb92 	bl	8003b24 <vPortExitCritical>
}
 8002400:	bf00      	nop
 8002402:	3710      	adds	r7, #16
 8002404:	46bd      	mov	sp, r7
 8002406:	bd80      	pop	{r7, pc}

08002408 <prvIsQueueEmpty>:
/*-----------------------------------------------------------*/

static BaseType_t prvIsQueueEmpty( const Queue_t *pxQueue )
{
 8002408:	b580      	push	{r7, lr}
 800240a:	b084      	sub	sp, #16
 800240c:	af00      	add	r7, sp, #0
 800240e:	6078      	str	r0, [r7, #4]
BaseType_t xReturn;

	taskENTER_CRITICAL();
 8002410:	f001 fb5a 	bl	8003ac8 <vPortEnterCritical>
	{
		if( pxQueue->uxMessagesWaiting == ( UBaseType_t )  0 )
 8002414:	687b      	ldr	r3, [r7, #4]
 8002416:	6b9b      	ldr	r3, [r3, #56]	; 0x38
 8002418:	2b00      	cmp	r3, #0
 800241a:	d102      	bne.n	8002422 <prvIsQueueEmpty+0x1a>
		{
			xReturn = pdTRUE;
 800241c:	2301      	movs	r3, #1
 800241e:	60fb      	str	r3, [r7, #12]
 8002420:	e001      	b.n	8002426 <prvIsQueueEmpty+0x1e>
		}
		else
		{
			xReturn = pdFALSE;
 8002422:	2300      	movs	r3, #0
 8002424:	60fb      	str	r3, [r7, #12]
		}
	}
	taskEXIT_CRITICAL();
 8002426:	f001 fb7d 	bl	8003b24 <vPortExitCritical>

	return xReturn;
 800242a:	68fb      	ldr	r3, [r7, #12]
}
 800242c:	4618      	mov	r0, r3
 800242e:	3710      	adds	r7, #16
 8002430:	46bd      	mov	sp, r7
 8002432:	bd80      	pop	{r7, pc}

08002434 <prvIsQueueFull>:
	return xReturn;
} /*lint !e818 xQueue could not be pointer to const because it is a typedef. */
/*-----------------------------------------------------------*/

static BaseType_t prvIsQueueFull( const Queue_t *pxQueue )
{
 8002434:	b580      	push	{r7, lr}
 8002436:	b084      	sub	sp, #16
 8002438:	af00      	add	r7, sp, #0
 800243a:	6078      	str	r0, [r7, #4]
BaseType_t xReturn;

	taskENTER_CRITICAL();
 800243c:	f001 fb44 	bl	8003ac8 <vPortEnterCritical>
	{
		if( pxQueue->uxMessagesWaiting == pxQueue->uxLength )
 8002440:	687b      	ldr	r3, [r7, #4]
 8002442:	6b9a      	ldr	r2, [r3, #56]	; 0x38
 8002444:	687b      	ldr	r3, [r7, #4]
 8002446:	6bdb      	ldr	r3, [r3, #60]	; 0x3c
 8002448:	429a      	cmp	r2, r3
 800244a:	d102      	bne.n	8002452 <prvIsQueueFull+0x1e>
		{
			xReturn = pdTRUE;
 800244c:	2301      	movs	r3, #1
 800244e:	60fb      	str	r3, [r7, #12]
 8002450:	e001      	b.n	8002456 <prvIsQueueFull+0x22>
		}
		else
		{
			xReturn = pdFALSE;
 8002452:	2300      	movs	r3, #0
 8002454:	60fb      	str	r3, [r7, #12]
		}
	}
	taskEXIT_CRITICAL();
 8002456:	f001 fb65 	bl	8003b24 <vPortExitCritical>

	return xReturn;
 800245a:	68fb      	ldr	r3, [r7, #12]
}
 800245c:	4618      	mov	r0, r3
 800245e:	3710      	adds	r7, #16
 8002460:	46bd      	mov	sp, r7
 8002462:	bd80      	pop	{r7, pc}

08002464 <vQueueAddToRegistry>:
/*-----------------------------------------------------------*/

#if ( configQUEUE_REGISTRY_SIZE > 0 )

	void vQueueAddToRegistry( QueueHandle_t xQueue, const char *pcQueueName ) /*lint !e971 Unqualified char types are allowed for strings and single characters only. */
	{
 8002464:	b480      	push	{r7}
 8002466:	b085      	sub	sp, #20
 8002468:	af00      	add	r7, sp, #0
 800246a:	6078      	str	r0, [r7, #4]
 800246c:	6039      	str	r1, [r7, #0]
	UBaseType_t ux;

		/* See if there is an empty space in the registry.  A NULL name denotes
		a free slot. */
		for( ux = ( UBaseType_t ) 0U; ux < ( UBaseType_t ) configQUEUE_REGISTRY_SIZE; ux++ )
 800246e:	2300      	movs	r3, #0
 8002470:	60fb      	str	r3, [r7, #12]
 8002472:	e014      	b.n	800249e <vQueueAddToRegistry+0x3a>
		{
			if( xQueueRegistry[ ux ].pcQueueName == NULL )
 8002474:	4a0e      	ldr	r2, [pc, #56]	; (80024b0 <vQueueAddToRegistry+0x4c>)
 8002476:	68fb      	ldr	r3, [r7, #12]
 8002478:	f852 3033 	ldr.w	r3, [r2, r3, lsl #3]
 800247c:	2b00      	cmp	r3, #0
 800247e:	d10b      	bne.n	8002498 <vQueueAddToRegistry+0x34>
			{
				/* Store the information on this queue. */
				xQueueRegistry[ ux ].pcQueueName = pcQueueName;
 8002480:	490b      	ldr	r1, [pc, #44]	; (80024b0 <vQueueAddToRegistry+0x4c>)
 8002482:	68fb      	ldr	r3, [r7, #12]
 8002484:	683a      	ldr	r2, [r7, #0]
 8002486:	f841 2033 	str.w	r2, [r1, r3, lsl #3]
				xQueueRegistry[ ux ].xHandle = xQueue;
 800248a:	4a09      	ldr	r2, [pc, #36]	; (80024b0 <vQueueAddToRegistry+0x4c>)
 800248c:	68fb      	ldr	r3, [r7, #12]
 800248e:	00db      	lsls	r3, r3, #3
 8002490:	4413      	add	r3, r2
 8002492:	687a      	ldr	r2, [r7, #4]
 8002494:	605a      	str	r2, [r3, #4]

				traceQUEUE_REGISTRY_ADD( xQueue, pcQueueName );
				break;
 8002496:	e005      	b.n	80024a4 <vQueueAddToRegistry+0x40>
		for( ux = ( UBaseType_t ) 0U; ux < ( UBaseType_t ) configQUEUE_REGISTRY_SIZE; ux++ )
 8002498:	68fb      	ldr	r3, [r7, #12]
 800249a:	3301      	adds	r3, #1
 800249c:	60fb      	str	r3, [r7, #12]
 800249e:	68fb      	ldr	r3, [r7, #12]
 80024a0:	2b07      	cmp	r3, #7
 80024a2:	d9e7      	bls.n	8002474 <vQueueAddToRegistry+0x10>
			else
			{
				mtCOVERAGE_TEST_MARKER();
			}
		}
	}
 80024a4:	bf00      	nop
 80024a6:	3714      	adds	r7, #20
 80024a8:	46bd      	mov	sp, r7
 80024aa:	bc80      	pop	{r7}
 80024ac:	4770      	bx	lr
 80024ae:	bf00      	nop
 80024b0:	200019c4 	.word	0x200019c4

080024b4 <vQueueWaitForMessageRestricted>:
/*-----------------------------------------------------------*/

#if ( configUSE_TIMERS == 1 )

	void vQueueWaitForMessageRestricted( QueueHandle_t xQueue, TickType_t xTicksToWait, const BaseType_t xWaitIndefinitely )
	{
 80024b4:	b580      	push	{r7, lr}
 80024b6:	b086      	sub	sp, #24
 80024b8:	af00      	add	r7, sp, #0
 80024ba:	60f8      	str	r0, [r7, #12]
 80024bc:	60b9      	str	r1, [r7, #8]
 80024be:	607a      	str	r2, [r7, #4]
	Queue_t * const pxQueue = ( Queue_t * ) xQueue;
 80024c0:	68fb      	ldr	r3, [r7, #12]
 80024c2:	617b      	str	r3, [r7, #20]
		will not actually cause the task to block, just place it on a blocked
		list.  It will not block until the scheduler is unlocked - at which
		time a yield will be performed.  If an item is added to the queue while
		the queue is locked, and the calling task blocks on the queue, then the
		calling task will be immediately unblocked when the queue is unlocked. */
		prvLockQueue( pxQueue );
 80024c4:	f001 fb00 	bl	8003ac8 <vPortEnterCritical>
 80024c8:	697b      	ldr	r3, [r7, #20]
 80024ca:	f893 3044 	ldrb.w	r3, [r3, #68]	; 0x44
 80024ce:	b25b      	sxtb	r3, r3
 80024d0:	f1b3 3fff 	cmp.w	r3, #4294967295
 80024d4:	d103      	bne.n	80024de <vQueueWaitForMessageRestricted+0x2a>
 80024d6:	697b      	ldr	r3, [r7, #20]
 80024d8:	2200      	movs	r2, #0
 80024da:	f883 2044 	strb.w	r2, [r3, #68]	; 0x44
 80024de:	697b      	ldr	r3, [r7, #20]
 80024e0:	f893 3045 	ldrb.w	r3, [r3, #69]	; 0x45
 80024e4:	b25b      	sxtb	r3, r3
 80024e6:	f1b3 3fff 	cmp.w	r3, #4294967295
 80024ea:	d103      	bne.n	80024f4 <vQueueWaitForMessageRestricted+0x40>
 80024ec:	697b      	ldr	r3, [r7, #20]
 80024ee:	2200      	movs	r2, #0
 80024f0:	f883 2045 	strb.w	r2, [r3, #69]	; 0x45
 80024f4:	f001 fb16 	bl	8003b24 <vPortExitCritical>
		if( pxQueue->uxMessagesWaiting == ( UBaseType_t ) 0U )
 80024f8:	697b      	ldr	r3, [r7, #20]
 80024fa:	6b9b      	ldr	r3, [r3, #56]	; 0x38
 80024fc:	2b00      	cmp	r3, #0
 80024fe:	d106      	bne.n	800250e <vQueueWaitForMessageRestricted+0x5a>
		{
			/* There is nothing in the queue, block for the specified period. */
			vTaskPlaceOnEventListRestricted( &( pxQueue->xTasksWaitingToReceive ), xTicksToWait, xWaitIndefinitely );
 8002500:	697b      	ldr	r3, [r7, #20]
 8002502:	3324      	adds	r3, #36	; 0x24
 8002504:	687a      	ldr	r2, [r7, #4]
 8002506:	68b9      	ldr	r1, [r7, #8]
 8002508:	4618      	mov	r0, r3
 800250a:	f000 fc29 	bl	8002d60 <vTaskPlaceOnEventListRestricted>
		}
		else
		{
			mtCOVERAGE_TEST_MARKER();
		}
		prvUnlockQueue( pxQueue );
 800250e:	6978      	ldr	r0, [r7, #20]
 8002510:	f7ff ff28 	bl	8002364 <prvUnlockQueue>
	}
 8002514:	bf00      	nop
 8002516:	3718      	adds	r7, #24
 8002518:	46bd      	mov	sp, r7
 800251a:	bd80      	pop	{r7, pc}

0800251c <xTaskCreateStatic>:
									const uint32_t ulStackDepth,
									void * const pvParameters,
									UBaseType_t uxPriority,
									StackType_t * const puxStackBuffer,
									StaticTask_t * const pxTaskBuffer )
	{
 800251c:	b580      	push	{r7, lr}
 800251e:	b08e      	sub	sp, #56	; 0x38
 8002520:	af04      	add	r7, sp, #16
 8002522:	60f8      	str	r0, [r7, #12]
 8002524:	60b9      	str	r1, [r7, #8]
 8002526:	607a      	str	r2, [r7, #4]
 8002528:	603b      	str	r3, [r7, #0]
	TCB_t *pxNewTCB;
	TaskHandle_t xReturn;

		configASSERT( puxStackBuffer != NULL );
 800252a:	6b7b      	ldr	r3, [r7, #52]	; 0x34
 800252c:	2b00      	cmp	r3, #0
 800252e:	d109      	bne.n	8002544 <xTaskCreateStatic+0x28>
 8002530:	f04f 0350 	mov.w	r3, #80	; 0x50
 8002534:	f383 8811 	msr	BASEPRI, r3
 8002538:	f3bf 8f6f 	isb	sy
 800253c:	f3bf 8f4f 	dsb	sy
 8002540:	623b      	str	r3, [r7, #32]
 8002542:	e7fe      	b.n	8002542 <xTaskCreateStatic+0x26>
		configASSERT( pxTaskBuffer != NULL );
 8002544:	6bbb      	ldr	r3, [r7, #56]	; 0x38
 8002546:	2b00      	cmp	r3, #0
 8002548:	d109      	bne.n	800255e <xTaskCreateStatic+0x42>
 800254a:	f04f 0350 	mov.w	r3, #80	; 0x50
 800254e:	f383 8811 	msr	BASEPRI, r3
 8002552:	f3bf 8f6f 	isb	sy
 8002556:	f3bf 8f4f 	dsb	sy
 800255a:	61fb      	str	r3, [r7, #28]
 800255c:	e7fe      	b.n	800255c <xTaskCreateStatic+0x40>
		#if( configASSERT_DEFINED == 1 )
		{
			/* Sanity check that the size of the structure used to declare a
			variable of type StaticTask_t equals the size of the real task
			structure. */
			volatile size_t xSize = sizeof( StaticTask_t );
 800255e:	235c      	movs	r3, #92	; 0x5c
 8002560:	613b      	str	r3, [r7, #16]
			configASSERT( xSize == sizeof( TCB_t ) );
 8002562:	693b      	ldr	r3, [r7, #16]
 8002564:	2b5c      	cmp	r3, #92	; 0x5c
 8002566:	d009      	beq.n	800257c <xTaskCreateStatic+0x60>
 8002568:	f04f 0350 	mov.w	r3, #80	; 0x50
 800256c:	f383 8811 	msr	BASEPRI, r3
 8002570:	f3bf 8f6f 	isb	sy
 8002574:	f3bf 8f4f 	dsb	sy
 8002578:	61bb      	str	r3, [r7, #24]
 800257a:	e7fe      	b.n	800257a <xTaskCreateStatic+0x5e>
		}
		#endif /* configASSERT_DEFINED */


		if( ( pxTaskBuffer != NULL ) && ( puxStackBuffer != NULL ) )
 800257c:	6bbb      	ldr	r3, [r7, #56]	; 0x38
 800257e:	2b00      	cmp	r3, #0
 8002580:	d01e      	beq.n	80025c0 <xTaskCreateStatic+0xa4>
 8002582:	6b7b      	ldr	r3, [r7, #52]	; 0x34
 8002584:	2b00      	cmp	r3, #0
 8002586:	d01b      	beq.n	80025c0 <xTaskCreateStatic+0xa4>
		{
			/* The memory used for the task's TCB and stack are passed into this
			function - use them. */
			pxNewTCB = ( TCB_t * ) pxTaskBuffer; /*lint !e740 Unusual cast is ok as the structures are designed to have the same alignment, and the size is checked by an assert. */
 8002588:	6bbb      	ldr	r3, [r7, #56]	; 0x38
 800258a:	627b      	str	r3, [r7, #36]	; 0x24
			pxNewTCB->pxStack = ( StackType_t * ) puxStackBuffer;
 800258c:	6a7b      	ldr	r3, [r7, #36]	; 0x24
 800258e:	6b7a      	ldr	r2, [r7, #52]	; 0x34
 8002590:	631a      	str	r2, [r3, #48]	; 0x30

			#if( tskSTATIC_AND_DYNAMIC_ALLOCATION_POSSIBLE != 0 ) /*lint !e731 Macro has been consolidated for readability reasons. */
			{
				/* Tasks can be created statically or dynamically, so note this
				task was created statically in case the task is later deleted. */
				pxNewTCB->ucStaticallyAllocated = tskSTATICALLY_ALLOCATED_STACK_AND_TCB;
 8002592:	6a7b      	ldr	r3, [r7, #36]	; 0x24
 8002594:	2202      	movs	r2, #2
 8002596:	f883 2059 	strb.w	r2, [r3, #89]	; 0x59
			}
			#endif /* configSUPPORT_DYNAMIC_ALLOCATION */

			prvInitialiseNewTask( pxTaskCode, pcName, ulStackDepth, pvParameters, uxPriority, &xReturn, pxNewTCB, NULL );
 800259a:	2300      	movs	r3, #0
 800259c:	9303      	str	r3, [sp, #12]
 800259e:	6a7b      	ldr	r3, [r7, #36]	; 0x24
 80025a0:	9302      	str	r3, [sp, #8]
 80025a2:	f107 0314 	add.w	r3, r7, #20
 80025a6:	9301      	str	r3, [sp, #4]
 80025a8:	6b3b      	ldr	r3, [r7, #48]	; 0x30
 80025aa:	9300      	str	r3, [sp, #0]
 80025ac:	683b      	ldr	r3, [r7, #0]
 80025ae:	687a      	ldr	r2, [r7, #4]
 80025b0:	68b9      	ldr	r1, [r7, #8]
 80025b2:	68f8      	ldr	r0, [r7, #12]
 80025b4:	f000 f850 	bl	8002658 <prvInitialiseNewTask>
			prvAddNewTaskToReadyList( pxNewTCB );
 80025b8:	6a78      	ldr	r0, [r7, #36]	; 0x24
 80025ba:	f000 f8d3 	bl	8002764 <prvAddNewTaskToReadyList>
 80025be:	e001      	b.n	80025c4 <xTaskCreateStatic+0xa8>
		}
		else
		{
			xReturn = NULL;
 80025c0:	2300      	movs	r3, #0
 80025c2:	617b      	str	r3, [r7, #20]
		}

		return xReturn;
 80025c4:	697b      	ldr	r3, [r7, #20]
	}
 80025c6:	4618      	mov	r0, r3
 80025c8:	3728      	adds	r7, #40	; 0x28
 80025ca:	46bd      	mov	sp, r7
 80025cc:	bd80      	pop	{r7, pc}

080025ce <xTaskCreate>:
							const char * const pcName,		/*lint !e971 Unqualified char types are allowed for strings and single characters only. */
							const configSTACK_DEPTH_TYPE usStackDepth,
							void * const pvParameters,
							UBaseType_t uxPriority,
							TaskHandle_t * const pxCreatedTask )
	{
 80025ce:	b580      	push	{r7, lr}
 80025d0:	b08c      	sub	sp, #48	; 0x30
 80025d2:	af04      	add	r7, sp, #16
 80025d4:	60f8      	str	r0, [r7, #12]
 80025d6:	60b9      	str	r1, [r7, #8]
 80025d8:	603b      	str	r3, [r7, #0]
 80025da:	4613      	mov	r3, r2
 80025dc:	80fb      	strh	r3, [r7, #6]
		#else /* portSTACK_GROWTH */
		{
		StackType_t *pxStack;

			/* Allocate space for the stack used by the task being created. */
			pxStack = ( StackType_t * ) pvPortMalloc( ( ( ( size_t ) usStackDepth ) * sizeof( StackType_t ) ) ); /*lint !e961 MISRA exception as the casts are only redundant for some ports. */
 80025de:	88fb      	ldrh	r3, [r7, #6]
 80025e0:	009b      	lsls	r3, r3, #2
 80025e2:	4618      	mov	r0, r3
 80025e4:	f001 fb66 	bl	8003cb4 <pvPortMalloc>
 80025e8:	6178      	str	r0, [r7, #20]

			if( pxStack != NULL )
 80025ea:	697b      	ldr	r3, [r7, #20]
 80025ec:	2b00      	cmp	r3, #0
 80025ee:	d00e      	beq.n	800260e <xTaskCreate+0x40>
			{
				/* Allocate space for the TCB. */
				pxNewTCB = ( TCB_t * ) pvPortMalloc( sizeof( TCB_t ) ); /*lint !e961 MISRA exception as the casts are only redundant for some paths. */
 80025f0:	205c      	movs	r0, #92	; 0x5c
 80025f2:	f001 fb5f 	bl	8003cb4 <pvPortMalloc>
 80025f6:	61f8      	str	r0, [r7, #28]

				if( pxNewTCB != NULL )
 80025f8:	69fb      	ldr	r3, [r7, #28]
 80025fa:	2b00      	cmp	r3, #0
 80025fc:	d003      	beq.n	8002606 <xTaskCreate+0x38>
				{
					/* Store the stack location in the TCB. */
					pxNewTCB->pxStack = pxStack;
 80025fe:	69fb      	ldr	r3, [r7, #28]
 8002600:	697a      	ldr	r2, [r7, #20]
 8002602:	631a      	str	r2, [r3, #48]	; 0x30
 8002604:	e005      	b.n	8002612 <xTaskCreate+0x44>
				}
				else
				{
					/* The stack cannot be used as the TCB was not created.  Free
					it again. */
					vPortFree( pxStack );
 8002606:	6978      	ldr	r0, [r7, #20]
 8002608:	f001 fc16 	bl	8003e38 <vPortFree>
 800260c:	e001      	b.n	8002612 <xTaskCreate+0x44>
				}
			}
			else
			{
				pxNewTCB = NULL;
 800260e:	2300      	movs	r3, #0
 8002610:	61fb      	str	r3, [r7, #28]
			}
		}
		#endif /* portSTACK_GROWTH */

		if( pxNewTCB != NULL )
 8002612:	69fb      	ldr	r3, [r7, #28]
 8002614:	2b00      	cmp	r3, #0
 8002616:	d017      	beq.n	8002648 <xTaskCreate+0x7a>
		{
			#if( tskSTATIC_AND_DYNAMIC_ALLOCATION_POSSIBLE != 0 ) /*lint !e731 Macro has been consolidated for readability reasons. */
			{
				/* Tasks can be created statically or dynamically, so note this
				task was created dynamically in case it is later deleted. */
				pxNewTCB->ucStaticallyAllocated = tskDYNAMICALLY_ALLOCATED_STACK_AND_TCB;
 8002618:	69fb      	ldr	r3, [r7, #28]
 800261a:	2200      	movs	r2, #0
 800261c:	f883 2059 	strb.w	r2, [r3, #89]	; 0x59
			}
			#endif /* configSUPPORT_STATIC_ALLOCATION */

			prvInitialiseNewTask( pxTaskCode, pcName, ( uint32_t ) usStackDepth, pvParameters, uxPriority, pxCreatedTask, pxNewTCB, NULL );
 8002620:	88fa      	ldrh	r2, [r7, #6]
 8002622:	2300      	movs	r3, #0
 8002624:	9303      	str	r3, [sp, #12]
 8002626:	69fb      	ldr	r3, [r7, #28]
 8002628:	9302      	str	r3, [sp, #8]
 800262a:	6afb      	ldr	r3, [r7, #44]	; 0x2c
 800262c:	9301      	str	r3, [sp, #4]
 800262e:	6abb      	ldr	r3, [r7, #40]	; 0x28
 8002630:	9300      	str	r3, [sp, #0]
 8002632:	683b      	ldr	r3, [r7, #0]
 8002634:	68b9      	ldr	r1, [r7, #8]
 8002636:	68f8      	ldr	r0, [r7, #12]
 8002638:	f000 f80e 	bl	8002658 <prvInitialiseNewTask>
			prvAddNewTaskToReadyList( pxNewTCB );
 800263c:	69f8      	ldr	r0, [r7, #28]
 800263e:	f000 f891 	bl	8002764 <prvAddNewTaskToReadyList>
			xReturn = pdPASS;
 8002642:	2301      	movs	r3, #1
 8002644:	61bb      	str	r3, [r7, #24]
 8002646:	e002      	b.n	800264e <xTaskCreate+0x80>
		}
		else
		{
			xReturn = errCOULD_NOT_ALLOCATE_REQUIRED_MEMORY;
 8002648:	f04f 33ff 	mov.w	r3, #4294967295
 800264c:	61bb      	str	r3, [r7, #24]
		}

		return xReturn;
 800264e:	69bb      	ldr	r3, [r7, #24]
	}
 8002650:	4618      	mov	r0, r3
 8002652:	3720      	adds	r7, #32
 8002654:	46bd      	mov	sp, r7
 8002656:	bd80      	pop	{r7, pc}

08002658 <prvInitialiseNewTask>:
									void * const pvParameters,
									UBaseType_t uxPriority,
									TaskHandle_t * const pxCreatedTask,
									TCB_t *pxNewTCB,
									const MemoryRegion_t * const xRegions )
{
 8002658:	b580      	push	{r7, lr}
 800265a:	b088      	sub	sp, #32
 800265c:	af00      	add	r7, sp, #0
 800265e:	60f8      	str	r0, [r7, #12]
 8002660:	60b9      	str	r1, [r7, #8]
 8002662:	607a      	str	r2, [r7, #4]
 8002664:	603b      	str	r3, [r7, #0]

	/* Avoid dependency on memset() if it is not required. */
	#if( tskSET_NEW_STACKS_TO_KNOWN_VALUE == 1 )
	{
		/* Fill the stack with a known value to assist debugging. */
		( void ) memset( pxNewTCB->pxStack, ( int ) tskSTACK_FILL_BYTE, ( size_t ) ulStackDepth * sizeof( StackType_t ) );
 8002666:	6b3b      	ldr	r3, [r7, #48]	; 0x30
 8002668:	6b18      	ldr	r0, [r3, #48]	; 0x30
 800266a:	687b      	ldr	r3, [r7, #4]
 800266c:	009b      	lsls	r3, r3, #2
 800266e:	461a      	mov	r2, r3
 8002670:	21a5      	movs	r1, #165	; 0xa5
 8002672:	f001 fd22 	bl	80040ba <memset>
	grows from high memory to low (as per the 80x86) or vice versa.
	portSTACK_GROWTH is used to make the result positive or negative as required
	by the port. */
	#if( portSTACK_GROWTH < 0 )
	{
		pxTopOfStack = pxNewTCB->pxStack + ( ulStackDepth - ( uint32_t ) 1 );
 8002676:	6b3b      	ldr	r3, [r7, #48]	; 0x30
 8002678:	6b1a      	ldr	r2, [r3, #48]	; 0x30
 800267a:	687b      	ldr	r3, [r7, #4]
 800267c:	f103 4380 	add.w	r3, r3, #1073741824	; 0x40000000
 8002680:	3b01      	subs	r3, #1
 8002682:	009b      	lsls	r3, r3, #2
 8002684:	4413      	add	r3, r2
 8002686:	61bb      	str	r3, [r7, #24]
		pxTopOfStack = ( StackType_t * ) ( ( ( portPOINTER_SIZE_TYPE ) pxTopOfStack ) & ( ~( ( portPOINTER_SIZE_TYPE ) portBYTE_ALIGNMENT_MASK ) ) ); /*lint !e923 MISRA exception.  Avoiding casts between pointers and integers is not practical.  Size differences accounted for using portPOINTER_SIZE_TYPE type. */
 8002688:	69bb      	ldr	r3, [r7, #24]
 800268a:	f023 0307 	bic.w	r3, r3, #7
 800268e:	61bb      	str	r3, [r7, #24]

		/* Check the alignment of the calculated top of stack is correct. */
		configASSERT( ( ( ( portPOINTER_SIZE_TYPE ) pxTopOfStack & ( portPOINTER_SIZE_TYPE ) portBYTE_ALIGNMENT_MASK ) == 0UL ) );
 8002690:	69bb      	ldr	r3, [r7, #24]
 8002692:	f003 0307 	and.w	r3, r3, #7
 8002696:	2b00      	cmp	r3, #0
 8002698:	d009      	beq.n	80026ae <prvInitialiseNewTask+0x56>
 800269a:	f04f 0350 	mov.w	r3, #80	; 0x50
 800269e:	f383 8811 	msr	BASEPRI, r3
 80026a2:	f3bf 8f6f 	isb	sy
 80026a6:	f3bf 8f4f 	dsb	sy
 80026aa:	617b      	str	r3, [r7, #20]
 80026ac:	e7fe      	b.n	80026ac <prvInitialiseNewTask+0x54>
		pxNewTCB->pxEndOfStack = pxNewTCB->pxStack + ( ulStackDepth - ( uint32_t ) 1 );
	}
	#endif /* portSTACK_GROWTH */

	/* Store the task name in the TCB. */
	for( x = ( UBaseType_t ) 0; x < ( UBaseType_t ) configMAX_TASK_NAME_LEN; x++ )
 80026ae:	2300      	movs	r3, #0
 80026b0:	61fb      	str	r3, [r7, #28]
 80026b2:	e012      	b.n	80026da <prvInitialiseNewTask+0x82>
	{
		pxNewTCB->pcTaskName[ x ] = pcName[ x ];
 80026b4:	68ba      	ldr	r2, [r7, #8]
 80026b6:	69fb      	ldr	r3, [r7, #28]
 80026b8:	4413      	add	r3, r2
 80026ba:	7819      	ldrb	r1, [r3, #0]
 80026bc:	6b3a      	ldr	r2, [r7, #48]	; 0x30
 80026be:	69fb      	ldr	r3, [r7, #28]
 80026c0:	4413      	add	r3, r2
 80026c2:	3334      	adds	r3, #52	; 0x34
 80026c4:	460a      	mov	r2, r1
 80026c6:	701a      	strb	r2, [r3, #0]

		/* Don't copy all configMAX_TASK_NAME_LEN if the string is shorter than
		configMAX_TASK_NAME_LEN characters just in case the memory after the
		string is not accessible (extremely unlikely). */
		if( pcName[ x ] == 0x00 )
 80026c8:	68ba      	ldr	r2, [r7, #8]
 80026ca:	69fb      	ldr	r3, [r7, #28]
 80026cc:	4413      	add	r3, r2
 80026ce:	781b      	ldrb	r3, [r3, #0]
 80026d0:	2b00      	cmp	r3, #0
 80026d2:	d006      	beq.n	80026e2 <prvInitialiseNewTask+0x8a>
	for( x = ( UBaseType_t ) 0; x < ( UBaseType_t ) configMAX_TASK_NAME_LEN; x++ )
 80026d4:	69fb      	ldr	r3, [r7, #28]
 80026d6:	3301      	adds	r3, #1
 80026d8:	61fb      	str	r3, [r7, #28]
 80026da:	69fb      	ldr	r3, [r7, #28]
 80026dc:	2b0f      	cmp	r3, #15
 80026de:	d9e9      	bls.n	80026b4 <prvInitialiseNewTask+0x5c>
 80026e0:	e000      	b.n	80026e4 <prvInitialiseNewTask+0x8c>
		{
			break;
 80026e2:	bf00      	nop
		}
	}

	/* Ensure the name string is terminated in the case that the string length
	was greater or equal to configMAX_TASK_NAME_LEN. */
	pxNewTCB->pcTaskName[ configMAX_TASK_NAME_LEN - 1 ] = '\0';
 80026e4:	6b3b      	ldr	r3, [r7, #48]	; 0x30
 80026e6:	2200      	movs	r2, #0
 80026e8:	f883 2043 	strb.w	r2, [r3, #67]	; 0x43

	/* This is used as an array index so must ensure it's not too large.  First
	remove the privilege bit if one is present. */
	if( uxPriority >= ( UBaseType_t ) configMAX_PRIORITIES )
 80026ec:	6abb      	ldr	r3, [r7, #40]	; 0x28
 80026ee:	2b37      	cmp	r3, #55	; 0x37
 80026f0:	d901      	bls.n	80026f6 <prvInitialiseNewTask+0x9e>
	{
		uxPriority = ( UBaseType_t ) configMAX_PRIORITIES - ( UBaseType_t ) 1U;
 80026f2:	2337      	movs	r3, #55	; 0x37
 80026f4:	62bb      	str	r3, [r7, #40]	; 0x28
	else
	{
		mtCOVERAGE_TEST_MARKER();
	}

	pxNewTCB->uxPriority = uxPriority;
 80026f6:	6b3b      	ldr	r3, [r7, #48]	; 0x30
 80026f8:	6aba      	ldr	r2, [r7, #40]	; 0x28
 80026fa:	62da      	str	r2, [r3, #44]	; 0x2c
	#if ( configUSE_MUTEXES == 1 )
	{
		pxNewTCB->uxBasePriority = uxPriority;
 80026fc:	6b3b      	ldr	r3, [r7, #48]	; 0x30
 80026fe:	6aba      	ldr	r2, [r7, #40]	; 0x28
 8002700:	64da      	str	r2, [r3, #76]	; 0x4c
		pxNewTCB->uxMutexesHeld = 0;
 8002702:	6b3b      	ldr	r3, [r7, #48]	; 0x30
 8002704:	2200      	movs	r2, #0
 8002706:	651a      	str	r2, [r3, #80]	; 0x50
	}
	#endif /* configUSE_MUTEXES */

	vListInitialiseItem( &( pxNewTCB->xStateListItem ) );
 8002708:	6b3b      	ldr	r3, [r7, #48]	; 0x30
 800270a:	3304      	adds	r3, #4
 800270c:	4618      	mov	r0, r3
 800270e:	f7ff f9a0 	bl	8001a52 <vListInitialiseItem>
	vListInitialiseItem( &( pxNewTCB->xEventListItem ) );
 8002712:	6b3b      	ldr	r3, [r7, #48]	; 0x30
 8002714:	3318      	adds	r3, #24
 8002716:	4618      	mov	r0, r3
 8002718:	f7ff f99b 	bl	8001a52 <vListInitialiseItem>

	/* Set the pxNewTCB as a link back from the ListItem_t.  This is so we can get
	back to	the containing TCB from a generic item in a list. */
	listSET_LIST_ITEM_OWNER( &( pxNewTCB->xStateListItem ), pxNewTCB );
 800271c:	6b3b      	ldr	r3, [r7, #48]	; 0x30
 800271e:	6b3a      	ldr	r2, [r7, #48]	; 0x30
 8002720:	611a      	str	r2, [r3, #16]

	/* Event lists are always in priority order. */
	listSET_LIST_ITEM_VALUE( &( pxNewTCB->xEventListItem ), ( TickType_t ) configMAX_PRIORITIES - ( TickType_t ) uxPriority ); /*lint !e961 MISRA exception as the casts are only redundant for some ports. */
 8002722:	6abb      	ldr	r3, [r7, #40]	; 0x28
 8002724:	f1c3 0238 	rsb	r2, r3, #56	; 0x38
 8002728:	6b3b      	ldr	r3, [r7, #48]	; 0x30
 800272a:	619a      	str	r2, [r3, #24]
	listSET_LIST_ITEM_OWNER( &( pxNewTCB->xEventListItem ), pxNewTCB );
 800272c:	6b3b      	ldr	r3, [r7, #48]	; 0x30
 800272e:	6b3a      	ldr	r2, [r7, #48]	; 0x30
 8002730:	625a      	str	r2, [r3, #36]	; 0x24
	}
	#endif

	#if ( configUSE_TASK_NOTIFICATIONS == 1 )
	{
		pxNewTCB->ulNotifiedValue = 0;
 8002732:	6b3b      	ldr	r3, [r7, #48]	; 0x30
 8002734:	2200      	movs	r2, #0
 8002736:	655a      	str	r2, [r3, #84]	; 0x54
		pxNewTCB->ucNotifyState = taskNOT_WAITING_NOTIFICATION;
 8002738:	6b3b      	ldr	r3, [r7, #48]	; 0x30
 800273a:	2200      	movs	r2, #0
 800273c:	f883 2058 	strb.w	r2, [r3, #88]	; 0x58
	{
		pxNewTCB->pxTopOfStack = pxPortInitialiseStack( pxTopOfStack, pxTaskCode, pvParameters, xRunPrivileged );
	}
	#else /* portUSING_MPU_WRAPPERS */
	{
		pxNewTCB->pxTopOfStack = pxPortInitialiseStack( pxTopOfStack, pxTaskCode, pvParameters );
 8002740:	683a      	ldr	r2, [r7, #0]
 8002742:	68f9      	ldr	r1, [r7, #12]
 8002744:	69b8      	ldr	r0, [r7, #24]
 8002746:	f001 f8d7 	bl	80038f8 <pxPortInitialiseStack>
 800274a:	4602      	mov	r2, r0
 800274c:	6b3b      	ldr	r3, [r7, #48]	; 0x30
 800274e:	601a      	str	r2, [r3, #0]
	}
	#endif /* portUSING_MPU_WRAPPERS */

	if( ( void * ) pxCreatedTask != NULL )
 8002750:	6afb      	ldr	r3, [r7, #44]	; 0x2c
 8002752:	2b00      	cmp	r3, #0
 8002754:	d002      	beq.n	800275c <prvInitialiseNewTask+0x104>
	{
		/* Pass the handle out in an anonymous way.  The handle can be used to
		change the created task's priority, delete the created task, etc.*/
		*pxCreatedTask = ( TaskHandle_t ) pxNewTCB;
 8002756:	6afb      	ldr	r3, [r7, #44]	; 0x2c
 8002758:	6b3a      	ldr	r2, [r7, #48]	; 0x30
 800275a:	601a      	str	r2, [r3, #0]
	}
	else
	{
		mtCOVERAGE_TEST_MARKER();
	}
}
 800275c:	bf00      	nop
 800275e:	3720      	adds	r7, #32
 8002760:	46bd      	mov	sp, r7
 8002762:	bd80      	pop	{r7, pc}

08002764 <prvAddNewTaskToReadyList>:
/*-----------------------------------------------------------*/

static void prvAddNewTaskToReadyList( TCB_t *pxNewTCB )
{
 8002764:	b580      	push	{r7, lr}
 8002766:	b082      	sub	sp, #8
 8002768:	af00      	add	r7, sp, #0
 800276a:	6078      	str	r0, [r7, #4]
	/* Ensure interrupts don't access the task lists while the lists are being
	updated. */
	taskENTER_CRITICAL();
 800276c:	f001 f9ac 	bl	8003ac8 <vPortEnterCritical>
	{
		uxCurrentNumberOfTasks++;
 8002770:	4b2d      	ldr	r3, [pc, #180]	; (8002828 <prvAddNewTaskToReadyList+0xc4>)
 8002772:	681b      	ldr	r3, [r3, #0]
 8002774:	3301      	adds	r3, #1
 8002776:	4a2c      	ldr	r2, [pc, #176]	; (8002828 <prvAddNewTaskToReadyList+0xc4>)
 8002778:	6013      	str	r3, [r2, #0]
		if( pxCurrentTCB == NULL )
 800277a:	4b2c      	ldr	r3, [pc, #176]	; (800282c <prvAddNewTaskToReadyList+0xc8>)
 800277c:	681b      	ldr	r3, [r3, #0]
 800277e:	2b00      	cmp	r3, #0
 8002780:	d109      	bne.n	8002796 <prvAddNewTaskToReadyList+0x32>
		{
			/* There are no other tasks, or all the other tasks are in
			the suspended state - make this the current task. */
			pxCurrentTCB = pxNewTCB;
 8002782:	4a2a      	ldr	r2, [pc, #168]	; (800282c <prvAddNewTaskToReadyList+0xc8>)
 8002784:	687b      	ldr	r3, [r7, #4]
 8002786:	6013      	str	r3, [r2, #0]

			if( uxCurrentNumberOfTasks == ( UBaseType_t ) 1 )
 8002788:	4b27      	ldr	r3, [pc, #156]	; (8002828 <prvAddNewTaskToReadyList+0xc4>)
 800278a:	681b      	ldr	r3, [r3, #0]
 800278c:	2b01      	cmp	r3, #1
 800278e:	d110      	bne.n	80027b2 <prvAddNewTaskToReadyList+0x4e>
			{
				/* This is the first task to be created so do the preliminary
				initialisation required.  We will not recover if this call
				fails, but we will report the failure. */
				prvInitialiseTaskLists();
 8002790:	f000 fc0c 	bl	8002fac <prvInitialiseTaskLists>
 8002794:	e00d      	b.n	80027b2 <prvAddNewTaskToReadyList+0x4e>
		else
		{
			/* If the scheduler is not already running, make this task the
			current task if it is the highest priority task to be created
			so far. */
			if( xSchedulerRunning == pdFALSE )
 8002796:	4b26      	ldr	r3, [pc, #152]	; (8002830 <prvAddNewTaskToReadyList+0xcc>)
 8002798:	681b      	ldr	r3, [r3, #0]
 800279a:	2b00      	cmp	r3, #0
 800279c:	d109      	bne.n	80027b2 <prvAddNewTaskToReadyList+0x4e>
			{
				if( pxCurrentTCB->uxPriority <= pxNewTCB->uxPriority )
 800279e:	4b23      	ldr	r3, [pc, #140]	; (800282c <prvAddNewTaskToReadyList+0xc8>)
 80027a0:	681b      	ldr	r3, [r3, #0]
 80027a2:	6ada      	ldr	r2, [r3, #44]	; 0x2c
 80027a4:	687b      	ldr	r3, [r7, #4]
 80027a6:	6adb      	ldr	r3, [r3, #44]	; 0x2c
 80027a8:	429a      	cmp	r2, r3
 80027aa:	d802      	bhi.n	80027b2 <prvAddNewTaskToReadyList+0x4e>
				{
					pxCurrentTCB = pxNewTCB;
 80027ac:	4a1f      	ldr	r2, [pc, #124]	; (800282c <prvAddNewTaskToReadyList+0xc8>)
 80027ae:	687b      	ldr	r3, [r7, #4]
 80027b0:	6013      	str	r3, [r2, #0]
			{
				mtCOVERAGE_TEST_MARKER();
			}
		}

		uxTaskNumber++;
 80027b2:	4b20      	ldr	r3, [pc, #128]	; (8002834 <prvAddNewTaskToReadyList+0xd0>)
 80027b4:	681b      	ldr	r3, [r3, #0]
 80027b6:	3301      	adds	r3, #1
 80027b8:	4a1e      	ldr	r2, [pc, #120]	; (8002834 <prvAddNewTaskToReadyList+0xd0>)
 80027ba:	6013      	str	r3, [r2, #0]

		#if ( configUSE_TRACE_FACILITY == 1 )
		{
			/* Add a counter into the TCB for tracing only. */
			pxNewTCB->uxTCBNumber = uxTaskNumber;
 80027bc:	4b1d      	ldr	r3, [pc, #116]	; (8002834 <prvAddNewTaskToReadyList+0xd0>)
 80027be:	681a      	ldr	r2, [r3, #0]
 80027c0:	687b      	ldr	r3, [r7, #4]
 80027c2:	645a      	str	r2, [r3, #68]	; 0x44
		}
		#endif /* configUSE_TRACE_FACILITY */
		traceTASK_CREATE( pxNewTCB );

		prvAddTaskToReadyList( pxNewTCB );
 80027c4:	687b      	ldr	r3, [r7, #4]
 80027c6:	6ada      	ldr	r2, [r3, #44]	; 0x2c
 80027c8:	4b1b      	ldr	r3, [pc, #108]	; (8002838 <prvAddNewTaskToReadyList+0xd4>)
 80027ca:	681b      	ldr	r3, [r3, #0]
 80027cc:	429a      	cmp	r2, r3
 80027ce:	d903      	bls.n	80027d8 <prvAddNewTaskToReadyList+0x74>
 80027d0:	687b      	ldr	r3, [r7, #4]
 80027d2:	6adb      	ldr	r3, [r3, #44]	; 0x2c
 80027d4:	4a18      	ldr	r2, [pc, #96]	; (8002838 <prvAddNewTaskToReadyList+0xd4>)
 80027d6:	6013      	str	r3, [r2, #0]
 80027d8:	687b      	ldr	r3, [r7, #4]
 80027da:	6ada      	ldr	r2, [r3, #44]	; 0x2c
 80027dc:	4613      	mov	r3, r2
 80027de:	009b      	lsls	r3, r3, #2
 80027e0:	4413      	add	r3, r2
 80027e2:	009b      	lsls	r3, r3, #2
 80027e4:	4a15      	ldr	r2, [pc, #84]	; (800283c <prvAddNewTaskToReadyList+0xd8>)
 80027e6:	441a      	add	r2, r3
 80027e8:	687b      	ldr	r3, [r7, #4]
 80027ea:	3304      	adds	r3, #4
 80027ec:	4619      	mov	r1, r3
 80027ee:	4610      	mov	r0, r2
 80027f0:	f7ff f93b 	bl	8001a6a <vListInsertEnd>

		portSETUP_TCB( pxNewTCB );
	}
	taskEXIT_CRITICAL();
 80027f4:	f001 f996 	bl	8003b24 <vPortExitCritical>

	if( xSchedulerRunning != pdFALSE )
 80027f8:	4b0d      	ldr	r3, [pc, #52]	; (8002830 <prvAddNewTaskToReadyList+0xcc>)
 80027fa:	681b      	ldr	r3, [r3, #0]
 80027fc:	2b00      	cmp	r3, #0
 80027fe:	d00e      	beq.n	800281e <prvAddNewTaskToReadyList+0xba>
	{
		/* If the created task is of a higher priority than the current task
		then it should run now. */
		if( pxCurrentTCB->uxPriority < pxNewTCB->uxPriority )
 8002800:	4b0a      	ldr	r3, [pc, #40]	; (800282c <prvAddNewTaskToReadyList+0xc8>)
 8002802:	681b      	ldr	r3, [r3, #0]
 8002804:	6ada      	ldr	r2, [r3, #44]	; 0x2c
 8002806:	687b      	ldr	r3, [r7, #4]
 8002808:	6adb      	ldr	r3, [r3, #44]	; 0x2c
 800280a:	429a      	cmp	r2, r3
 800280c:	d207      	bcs.n	800281e <prvAddNewTaskToReadyList+0xba>
		{
			taskYIELD_IF_USING_PREEMPTION();
 800280e:	4b0c      	ldr	r3, [pc, #48]	; (8002840 <prvAddNewTaskToReadyList+0xdc>)
 8002810:	f04f 5280 	mov.w	r2, #268435456	; 0x10000000
 8002814:	601a      	str	r2, [r3, #0]
 8002816:	f3bf 8f4f 	dsb	sy
 800281a:	f3bf 8f6f 	isb	sy
	}
	else
	{
		mtCOVERAGE_TEST_MARKER();
	}
}
 800281e:	bf00      	nop
 8002820:	3708      	adds	r7, #8
 8002822:	46bd      	mov	sp, r7
 8002824:	bd80      	pop	{r7, pc}
 8002826:	bf00      	nop
 8002828:	20000bb8 	.word	0x20000bb8
 800282c:	200006e4 	.word	0x200006e4
 8002830:	20000bc4 	.word	0x20000bc4
 8002834:	20000bd4 	.word	0x20000bd4
 8002838:	20000bc0 	.word	0x20000bc0
 800283c:	200006e8 	.word	0x200006e8
 8002840:	e000ed04 	.word	0xe000ed04

08002844 <vTaskDelay>:
/*-----------------------------------------------------------*/

#if ( INCLUDE_vTaskDelay == 1 )

	void vTaskDelay( const TickType_t xTicksToDelay )
	{
 8002844:	b580      	push	{r7, lr}
 8002846:	b084      	sub	sp, #16
 8002848:	af00      	add	r7, sp, #0
 800284a:	6078      	str	r0, [r7, #4]
	BaseType_t xAlreadyYielded = pdFALSE;
 800284c:	2300      	movs	r3, #0
 800284e:	60fb      	str	r3, [r7, #12]

		/* A delay time of zero just forces a reschedule. */
		if( xTicksToDelay > ( TickType_t ) 0U )
 8002850:	687b      	ldr	r3, [r7, #4]
 8002852:	2b00      	cmp	r3, #0
 8002854:	d016      	beq.n	8002884 <vTaskDelay+0x40>
		{
			configASSERT( uxSchedulerSuspended == 0 );
 8002856:	4b13      	ldr	r3, [pc, #76]	; (80028a4 <vTaskDelay+0x60>)
 8002858:	681b      	ldr	r3, [r3, #0]
 800285a:	2b00      	cmp	r3, #0
 800285c:	d009      	beq.n	8002872 <vTaskDelay+0x2e>
 800285e:	f04f 0350 	mov.w	r3, #80	; 0x50
 8002862:	f383 8811 	msr	BASEPRI, r3
 8002866:	f3bf 8f6f 	isb	sy
 800286a:	f3bf 8f4f 	dsb	sy
 800286e:	60bb      	str	r3, [r7, #8]
 8002870:	e7fe      	b.n	8002870 <vTaskDelay+0x2c>
			vTaskSuspendAll();
 8002872:	f000 f87f 	bl	8002974 <vTaskSuspendAll>
				list or removed from the blocked list until the scheduler
				is resumed.

				This task cannot be in an event list as it is the currently
				executing task. */
				prvAddCurrentTaskToDelayedList( xTicksToDelay, pdFALSE );
 8002876:	2100      	movs	r1, #0
 8002878:	6878      	ldr	r0, [r7, #4]
 800287a:	f000 fcdf 	bl	800323c <prvAddCurrentTaskToDelayedList>
			}
			xAlreadyYielded = xTaskResumeAll();
 800287e:	f000 f887 	bl	8002990 <xTaskResumeAll>
 8002882:	60f8      	str	r0, [r7, #12]
			mtCOVERAGE_TEST_MARKER();
		}

		/* Force a reschedule if xTaskResumeAll has not already done so, we may
		have put ourselves to sleep. */
		if( xAlreadyYielded == pdFALSE )
 8002884:	68fb      	ldr	r3, [r7, #12]
 8002886:	2b00      	cmp	r3, #0
 8002888:	d107      	bne.n	800289a <vTaskDelay+0x56>
		{
			portYIELD_WITHIN_API();
 800288a:	4b07      	ldr	r3, [pc, #28]	; (80028a8 <vTaskDelay+0x64>)
 800288c:	f04f 5280 	mov.w	r2, #268435456	; 0x10000000
 8002890:	601a      	str	r2, [r3, #0]
 8002892:	f3bf 8f4f 	dsb	sy
 8002896:	f3bf 8f6f 	isb	sy
		}
		else
		{
			mtCOVERAGE_TEST_MARKER();
		}
	}
 800289a:	bf00      	nop
 800289c:	3710      	adds	r7, #16
 800289e:	46bd      	mov	sp, r7
 80028a0:	bd80      	pop	{r7, pc}
 80028a2:	bf00      	nop
 80028a4:	20000be0 	.word	0x20000be0
 80028a8:	e000ed04 	.word	0xe000ed04

080028ac <vTaskStartScheduler>:

#endif /* ( ( INCLUDE_xTaskResumeFromISR == 1 ) && ( INCLUDE_vTaskSuspend == 1 ) ) */
/*-----------------------------------------------------------*/

void vTaskStartScheduler( void )
{
 80028ac:	b580      	push	{r7, lr}
 80028ae:	b08a      	sub	sp, #40	; 0x28
 80028b0:	af04      	add	r7, sp, #16
BaseType_t xReturn;

	/* Add the idle task at the lowest priority. */
	#if( configSUPPORT_STATIC_ALLOCATION == 1 )
	{
		StaticTask_t *pxIdleTaskTCBBuffer = NULL;
 80028b2:	2300      	movs	r3, #0
 80028b4:	60bb      	str	r3, [r7, #8]
		StackType_t *pxIdleTaskStackBuffer = NULL;
 80028b6:	2300      	movs	r3, #0
 80028b8:	607b      	str	r3, [r7, #4]
		uint32_t ulIdleTaskStackSize;

		/* The Idle task is created using user provided RAM - obtain the
		address of the RAM then create the idle task. */
		vApplicationGetIdleTaskMemory( &pxIdleTaskTCBBuffer, &pxIdleTaskStackBuffer, &ulIdleTaskStackSize );
 80028ba:	463a      	mov	r2, r7
 80028bc:	1d39      	adds	r1, r7, #4
 80028be:	f107 0308 	add.w	r3, r7, #8
 80028c2:	4618      	mov	r0, r3
 80028c4:	f7ff f874 	bl	80019b0 <vApplicationGetIdleTaskMemory>
		xIdleTaskHandle = xTaskCreateStatic(	prvIdleTask,
 80028c8:	6839      	ldr	r1, [r7, #0]
 80028ca:	687b      	ldr	r3, [r7, #4]
 80028cc:	68ba      	ldr	r2, [r7, #8]
 80028ce:	9202      	str	r2, [sp, #8]
 80028d0:	9301      	str	r3, [sp, #4]
 80028d2:	2300      	movs	r3, #0
 80028d4:	9300      	str	r3, [sp, #0]
 80028d6:	2300      	movs	r3, #0
 80028d8:	460a      	mov	r2, r1
 80028da:	4920      	ldr	r1, [pc, #128]	; (800295c <vTaskStartScheduler+0xb0>)
 80028dc:	4820      	ldr	r0, [pc, #128]	; (8002960 <vTaskStartScheduler+0xb4>)
 80028de:	f7ff fe1d 	bl	800251c <xTaskCreateStatic>
 80028e2:	4602      	mov	r2, r0
 80028e4:	4b1f      	ldr	r3, [pc, #124]	; (8002964 <vTaskStartScheduler+0xb8>)
 80028e6:	601a      	str	r2, [r3, #0]
												( void * ) NULL, /*lint !e961.  The cast is not redundant for all compilers. */
												( tskIDLE_PRIORITY | portPRIVILEGE_BIT ),
												pxIdleTaskStackBuffer,
												pxIdleTaskTCBBuffer ); /*lint !e961 MISRA exception, justified as it is not a redundant explicit cast to all supported compilers. */

		if( xIdleTaskHandle != NULL )
 80028e8:	4b1e      	ldr	r3, [pc, #120]	; (8002964 <vTaskStartScheduler+0xb8>)
 80028ea:	681b      	ldr	r3, [r3, #0]
 80028ec:	2b00      	cmp	r3, #0
 80028ee:	d002      	beq.n	80028f6 <vTaskStartScheduler+0x4a>
		{
			xReturn = pdPASS;
 80028f0:	2301      	movs	r3, #1
 80028f2:	617b      	str	r3, [r7, #20]
 80028f4:	e001      	b.n	80028fa <vTaskStartScheduler+0x4e>
		}
		else
		{
			xReturn = pdFAIL;
 80028f6:	2300      	movs	r3, #0
 80028f8:	617b      	str	r3, [r7, #20]
	}
	#endif /* configSUPPORT_STATIC_ALLOCATION */

	#if ( configUSE_TIMERS == 1 )
	{
		if( xReturn == pdPASS )
 80028fa:	697b      	ldr	r3, [r7, #20]
 80028fc:	2b01      	cmp	r3, #1
 80028fe:	d102      	bne.n	8002906 <vTaskStartScheduler+0x5a>
		{
			xReturn = xTimerCreateTimerTask();
 8002900:	f000 fcf0 	bl	80032e4 <xTimerCreateTimerTask>
 8002904:	6178      	str	r0, [r7, #20]
			mtCOVERAGE_TEST_MARKER();
		}
	}
	#endif /* configUSE_TIMERS */

	if( xReturn == pdPASS )
 8002906:	697b      	ldr	r3, [r7, #20]
 8002908:	2b01      	cmp	r3, #1
 800290a:	d115      	bne.n	8002938 <vTaskStartScheduler+0x8c>
 800290c:	f04f 0350 	mov.w	r3, #80	; 0x50
 8002910:	f383 8811 	msr	BASEPRI, r3
 8002914:	f3bf 8f6f 	isb	sy
 8002918:	f3bf 8f4f 	dsb	sy
 800291c:	613b      	str	r3, [r7, #16]
			structure specific to the task that will run first. */
			_impure_ptr = &( pxCurrentTCB->xNewLib_reent );
		}
		#endif /* configUSE_NEWLIB_REENTRANT */

		xNextTaskUnblockTime = portMAX_DELAY;
 800291e:	4b12      	ldr	r3, [pc, #72]	; (8002968 <vTaskStartScheduler+0xbc>)
 8002920:	f04f 32ff 	mov.w	r2, #4294967295
 8002924:	601a      	str	r2, [r3, #0]
		xSchedulerRunning = pdTRUE;
 8002926:	4b11      	ldr	r3, [pc, #68]	; (800296c <vTaskStartScheduler+0xc0>)
 8002928:	2201      	movs	r2, #1
 800292a:	601a      	str	r2, [r3, #0]
		xTickCount = ( TickType_t ) 0U;
 800292c:	4b10      	ldr	r3, [pc, #64]	; (8002970 <vTaskStartScheduler+0xc4>)
 800292e:	2200      	movs	r2, #0
 8002930:	601a      	str	r2, [r3, #0]
		FreeRTOSConfig.h file. */
		portCONFIGURE_TIMER_FOR_RUN_TIME_STATS();

		/* Setting up the timer tick is hardware specific and thus in the
		portable interface. */
		if( xPortStartScheduler() != pdFALSE )
 8002932:	f001 f859 	bl	80039e8 <xPortStartScheduler>
	}

	/* Prevent compiler warnings if INCLUDE_xTaskGetIdleTaskHandle is set to 0,
	meaning xIdleTaskHandle is not used anywhere else. */
	( void ) xIdleTaskHandle;
}
 8002936:	e00d      	b.n	8002954 <vTaskStartScheduler+0xa8>
		configASSERT( xReturn != errCOULD_NOT_ALLOCATE_REQUIRED_MEMORY );
 8002938:	697b      	ldr	r3, [r7, #20]
 800293a:	f1b3 3fff 	cmp.w	r3, #4294967295
 800293e:	d109      	bne.n	8002954 <vTaskStartScheduler+0xa8>
 8002940:	f04f 0350 	mov.w	r3, #80	; 0x50
 8002944:	f383 8811 	msr	BASEPRI, r3
 8002948:	f3bf 8f6f 	isb	sy
 800294c:	f3bf 8f4f 	dsb	sy
 8002950:	60fb      	str	r3, [r7, #12]
 8002952:	e7fe      	b.n	8002952 <vTaskStartScheduler+0xa6>
}
 8002954:	bf00      	nop
 8002956:	3718      	adds	r7, #24
 8002958:	46bd      	mov	sp, r7
 800295a:	bd80      	pop	{r7, pc}
 800295c:	080040f8 	.word	0x080040f8
 8002960:	08002f7d 	.word	0x08002f7d
 8002964:	20000bdc 	.word	0x20000bdc
 8002968:	20000bd8 	.word	0x20000bd8
 800296c:	20000bc4 	.word	0x20000bc4
 8002970:	20000bbc 	.word	0x20000bbc

08002974 <vTaskSuspendAll>:
	vPortEndScheduler();
}
/*----------------------------------------------------------*/

void vTaskSuspendAll( void )
{
 8002974:	b480      	push	{r7}
 8002976:	af00      	add	r7, sp, #0
	/* A critical section is not required as the variable is of type
	BaseType_t.  Please read Richard Barry's reply in the following link to a
	post in the FreeRTOS support forum before reporting this as a bug! -
	http://goo.gl/wu4acr */
	++uxSchedulerSuspended;
 8002978:	4b04      	ldr	r3, [pc, #16]	; (800298c <vTaskSuspendAll+0x18>)
 800297a:	681b      	ldr	r3, [r3, #0]
 800297c:	3301      	adds	r3, #1
 800297e:	4a03      	ldr	r2, [pc, #12]	; (800298c <vTaskSuspendAll+0x18>)
 8002980:	6013      	str	r3, [r2, #0]
}
 8002982:	bf00      	nop
 8002984:	46bd      	mov	sp, r7
 8002986:	bc80      	pop	{r7}
 8002988:	4770      	bx	lr
 800298a:	bf00      	nop
 800298c:	20000be0 	.word	0x20000be0

08002990 <xTaskResumeAll>:

#endif /* configUSE_TICKLESS_IDLE */
/*----------------------------------------------------------*/

BaseType_t xTaskResumeAll( void )
{
 8002990:	b580      	push	{r7, lr}
 8002992:	b084      	sub	sp, #16
 8002994:	af00      	add	r7, sp, #0
TCB_t *pxTCB = NULL;
 8002996:	2300      	movs	r3, #0
 8002998:	60fb      	str	r3, [r7, #12]
BaseType_t xAlreadyYielded = pdFALSE;
 800299a:	2300      	movs	r3, #0
 800299c:	60bb      	str	r3, [r7, #8]

	/* If uxSchedulerSuspended is zero then this function does not match a
	previous call to vTaskSuspendAll(). */
	configASSERT( uxSchedulerSuspended );
 800299e:	4b41      	ldr	r3, [pc, #260]	; (8002aa4 <xTaskResumeAll+0x114>)
 80029a0:	681b      	ldr	r3, [r3, #0]
 80029a2:	2b00      	cmp	r3, #0
 80029a4:	d109      	bne.n	80029ba <xTaskResumeAll+0x2a>
 80029a6:	f04f 0350 	mov.w	r3, #80	; 0x50
 80029aa:	f383 8811 	msr	BASEPRI, r3
 80029ae:	f3bf 8f6f 	isb	sy
 80029b2:	f3bf 8f4f 	dsb	sy
 80029b6:	603b      	str	r3, [r7, #0]
 80029b8:	e7fe      	b.n	80029b8 <xTaskResumeAll+0x28>
	/* It is possible that an ISR caused a task to be removed from an event
	list while the scheduler was suspended.  If this was the case then the
	removed task will have been added to the xPendingReadyList.  Once the
	scheduler has been resumed it is safe to move all the pending ready
	tasks from this list into their appropriate ready list. */
	taskENTER_CRITICAL();
 80029ba:	f001 f885 	bl	8003ac8 <vPortEnterCritical>
	{
		--uxSchedulerSuspended;
 80029be:	4b39      	ldr	r3, [pc, #228]	; (8002aa4 <xTaskResumeAll+0x114>)
 80029c0:	681b      	ldr	r3, [r3, #0]
 80029c2:	3b01      	subs	r3, #1
 80029c4:	4a37      	ldr	r2, [pc, #220]	; (8002aa4 <xTaskResumeAll+0x114>)
 80029c6:	6013      	str	r3, [r2, #0]

		if( uxSchedulerSuspended == ( UBaseType_t ) pdFALSE )
 80029c8:	4b36      	ldr	r3, [pc, #216]	; (8002aa4 <xTaskResumeAll+0x114>)
 80029ca:	681b      	ldr	r3, [r3, #0]
 80029cc:	2b00      	cmp	r3, #0
 80029ce:	d162      	bne.n	8002a96 <xTaskResumeAll+0x106>
		{
			if( uxCurrentNumberOfTasks > ( UBaseType_t ) 0U )
 80029d0:	4b35      	ldr	r3, [pc, #212]	; (8002aa8 <xTaskResumeAll+0x118>)
 80029d2:	681b      	ldr	r3, [r3, #0]
 80029d4:	2b00      	cmp	r3, #0
 80029d6:	d05e      	beq.n	8002a96 <xTaskResumeAll+0x106>
			{
				/* Move any readied tasks from the pending list into the
				appropriate ready list. */
				while( listLIST_IS_EMPTY( &xPendingReadyList ) == pdFALSE )
 80029d8:	e02f      	b.n	8002a3a <xTaskResumeAll+0xaa>
				{
					pxTCB = ( TCB_t * ) listGET_OWNER_OF_HEAD_ENTRY( ( &xPendingReadyList ) );
 80029da:	4b34      	ldr	r3, [pc, #208]	; (8002aac <xTaskResumeAll+0x11c>)
 80029dc:	68db      	ldr	r3, [r3, #12]
 80029de:	68db      	ldr	r3, [r3, #12]
 80029e0:	60fb      	str	r3, [r7, #12]
					( void ) uxListRemove( &( pxTCB->xEventListItem ) );
 80029e2:	68fb      	ldr	r3, [r7, #12]
 80029e4:	3318      	adds	r3, #24
 80029e6:	4618      	mov	r0, r3
 80029e8:	f7ff f89a 	bl	8001b20 <uxListRemove>
					( void ) uxListRemove( &( pxTCB->xStateListItem ) );
 80029ec:	68fb      	ldr	r3, [r7, #12]
 80029ee:	3304      	adds	r3, #4
 80029f0:	4618      	mov	r0, r3
 80029f2:	f7ff f895 	bl	8001b20 <uxListRemove>
					prvAddTaskToReadyList( pxTCB );
 80029f6:	68fb      	ldr	r3, [r7, #12]
 80029f8:	6ada      	ldr	r2, [r3, #44]	; 0x2c
 80029fa:	4b2d      	ldr	r3, [pc, #180]	; (8002ab0 <xTaskResumeAll+0x120>)
 80029fc:	681b      	ldr	r3, [r3, #0]
 80029fe:	429a      	cmp	r2, r3
 8002a00:	d903      	bls.n	8002a0a <xTaskResumeAll+0x7a>
 8002a02:	68fb      	ldr	r3, [r7, #12]
 8002a04:	6adb      	ldr	r3, [r3, #44]	; 0x2c
 8002a06:	4a2a      	ldr	r2, [pc, #168]	; (8002ab0 <xTaskResumeAll+0x120>)
 8002a08:	6013      	str	r3, [r2, #0]
 8002a0a:	68fb      	ldr	r3, [r7, #12]
 8002a0c:	6ada      	ldr	r2, [r3, #44]	; 0x2c
 8002a0e:	4613      	mov	r3, r2
 8002a10:	009b      	lsls	r3, r3, #2
 8002a12:	4413      	add	r3, r2
 8002a14:	009b      	lsls	r3, r3, #2
 8002a16:	4a27      	ldr	r2, [pc, #156]	; (8002ab4 <xTaskResumeAll+0x124>)
 8002a18:	441a      	add	r2, r3
 8002a1a:	68fb      	ldr	r3, [r7, #12]
 8002a1c:	3304      	adds	r3, #4
 8002a1e:	4619      	mov	r1, r3
 8002a20:	4610      	mov	r0, r2
 8002a22:	f7ff f822 	bl	8001a6a <vListInsertEnd>

					/* If the moved task has a priority higher than the current
					task then a yield must be performed. */
					if( pxTCB->uxPriority >= pxCurrentTCB->uxPriority )
 8002a26:	68fb      	ldr	r3, [r7, #12]
 8002a28:	6ada      	ldr	r2, [r3, #44]	; 0x2c
 8002a2a:	4b23      	ldr	r3, [pc, #140]	; (8002ab8 <xTaskResumeAll+0x128>)
 8002a2c:	681b      	ldr	r3, [r3, #0]
 8002a2e:	6adb      	ldr	r3, [r3, #44]	; 0x2c
 8002a30:	429a      	cmp	r2, r3
 8002a32:	d302      	bcc.n	8002a3a <xTaskResumeAll+0xaa>
					{
						xYieldPending = pdTRUE;
 8002a34:	4b21      	ldr	r3, [pc, #132]	; (8002abc <xTaskResumeAll+0x12c>)
 8002a36:	2201      	movs	r2, #1
 8002a38:	601a      	str	r2, [r3, #0]
				while( listLIST_IS_EMPTY( &xPendingReadyList ) == pdFALSE )
 8002a3a:	4b1c      	ldr	r3, [pc, #112]	; (8002aac <xTaskResumeAll+0x11c>)
 8002a3c:	681b      	ldr	r3, [r3, #0]
 8002a3e:	2b00      	cmp	r3, #0
 8002a40:	d1cb      	bne.n	80029da <xTaskResumeAll+0x4a>
					{
						mtCOVERAGE_TEST_MARKER();
					}
				}

				if( pxTCB != NULL )
 8002a42:	68fb      	ldr	r3, [r7, #12]
 8002a44:	2b00      	cmp	r3, #0
 8002a46:	d001      	beq.n	8002a4c <xTaskResumeAll+0xbc>
					which may have prevented the next unblock time from being
					re-calculated, in which case re-calculate it now.  Mainly
					important for low power tickless implementations, where
					this can prevent an unnecessary exit from low power
					state. */
					prvResetNextTaskUnblockTime();
 8002a48:	f000 fb4a 	bl	80030e0 <prvResetNextTaskUnblockTime>
				/* If any ticks occurred while the scheduler was suspended then
				they should be processed now.  This ensures the tick count does
				not	slip, and that any delayed tasks are resumed at the correct
				time. */
				{
					UBaseType_t uxPendedCounts = uxPendedTicks; /* Non-volatile copy. */
 8002a4c:	4b1c      	ldr	r3, [pc, #112]	; (8002ac0 <xTaskResumeAll+0x130>)
 8002a4e:	681b      	ldr	r3, [r3, #0]
 8002a50:	607b      	str	r3, [r7, #4]

					if( uxPendedCounts > ( UBaseType_t ) 0U )
 8002a52:	687b      	ldr	r3, [r7, #4]
 8002a54:	2b00      	cmp	r3, #0
 8002a56:	d010      	beq.n	8002a7a <xTaskResumeAll+0xea>
					{
						do
						{
							if( xTaskIncrementTick() != pdFALSE )
 8002a58:	f000 f844 	bl	8002ae4 <xTaskIncrementTick>
 8002a5c:	4603      	mov	r3, r0
 8002a5e:	2b00      	cmp	r3, #0
 8002a60:	d002      	beq.n	8002a68 <xTaskResumeAll+0xd8>
							{
								xYieldPending = pdTRUE;
 8002a62:	4b16      	ldr	r3, [pc, #88]	; (8002abc <xTaskResumeAll+0x12c>)
 8002a64:	2201      	movs	r2, #1
 8002a66:	601a      	str	r2, [r3, #0]
							}
							else
							{
								mtCOVERAGE_TEST_MARKER();
							}
							--uxPendedCounts;
 8002a68:	687b      	ldr	r3, [r7, #4]
 8002a6a:	3b01      	subs	r3, #1
 8002a6c:	607b      	str	r3, [r7, #4]
						} while( uxPendedCounts > ( UBaseType_t ) 0U );
 8002a6e:	687b      	ldr	r3, [r7, #4]
 8002a70:	2b00      	cmp	r3, #0
 8002a72:	d1f1      	bne.n	8002a58 <xTaskResumeAll+0xc8>

						uxPendedTicks = 0;
 8002a74:	4b12      	ldr	r3, [pc, #72]	; (8002ac0 <xTaskResumeAll+0x130>)
 8002a76:	2200      	movs	r2, #0
 8002a78:	601a      	str	r2, [r3, #0]
					{
						mtCOVERAGE_TEST_MARKER();
					}
				}

				if( xYieldPending != pdFALSE )
 8002a7a:	4b10      	ldr	r3, [pc, #64]	; (8002abc <xTaskResumeAll+0x12c>)
 8002a7c:	681b      	ldr	r3, [r3, #0]
 8002a7e:	2b00      	cmp	r3, #0
 8002a80:	d009      	beq.n	8002a96 <xTaskResumeAll+0x106>
				{
					#if( configUSE_PREEMPTION != 0 )
					{
						xAlreadyYielded = pdTRUE;
 8002a82:	2301      	movs	r3, #1
 8002a84:	60bb      	str	r3, [r7, #8]
					}
					#endif
					taskYIELD_IF_USING_PREEMPTION();
 8002a86:	4b0f      	ldr	r3, [pc, #60]	; (8002ac4 <xTaskResumeAll+0x134>)
 8002a88:	f04f 5280 	mov.w	r2, #268435456	; 0x10000000
 8002a8c:	601a      	str	r2, [r3, #0]
 8002a8e:	f3bf 8f4f 	dsb	sy
 8002a92:	f3bf 8f6f 	isb	sy
		else
		{
			mtCOVERAGE_TEST_MARKER();
		}
	}
	taskEXIT_CRITICAL();
 8002a96:	f001 f845 	bl	8003b24 <vPortExitCritical>

	return xAlreadyYielded;
 8002a9a:	68bb      	ldr	r3, [r7, #8]
}
 8002a9c:	4618      	mov	r0, r3
 8002a9e:	3710      	adds	r7, #16
 8002aa0:	46bd      	mov	sp, r7
 8002aa2:	bd80      	pop	{r7, pc}
 8002aa4:	20000be0 	.word	0x20000be0
 8002aa8:	20000bb8 	.word	0x20000bb8
 8002aac:	20000b78 	.word	0x20000b78
 8002ab0:	20000bc0 	.word	0x20000bc0
 8002ab4:	200006e8 	.word	0x200006e8
 8002ab8:	200006e4 	.word	0x200006e4
 8002abc:	20000bcc 	.word	0x20000bcc
 8002ac0:	20000bc8 	.word	0x20000bc8
 8002ac4:	e000ed04 	.word	0xe000ed04

08002ac8 <xTaskGetTickCount>:
/*-----------------------------------------------------------*/

TickType_t xTaskGetTickCount( void )
{
 8002ac8:	b480      	push	{r7}
 8002aca:	b083      	sub	sp, #12
 8002acc:	af00      	add	r7, sp, #0
TickType_t xTicks;

	/* Critical section required if running on a 16 bit processor. */
	portTICK_TYPE_ENTER_CRITICAL();
	{
		xTicks = xTickCount;
 8002ace:	4b04      	ldr	r3, [pc, #16]	; (8002ae0 <xTaskGetTickCount+0x18>)
 8002ad0:	681b      	ldr	r3, [r3, #0]
 8002ad2:	607b      	str	r3, [r7, #4]
	}
	portTICK_TYPE_EXIT_CRITICAL();

	return xTicks;
 8002ad4:	687b      	ldr	r3, [r7, #4]
}
 8002ad6:	4618      	mov	r0, r3
 8002ad8:	370c      	adds	r7, #12
 8002ada:	46bd      	mov	sp, r7
 8002adc:	bc80      	pop	{r7}
 8002ade:	4770      	bx	lr
 8002ae0:	20000bbc 	.word	0x20000bbc

08002ae4 <xTaskIncrementTick>:

#endif /* INCLUDE_xTaskAbortDelay */
/*----------------------------------------------------------*/

BaseType_t xTaskIncrementTick( void )
{
 8002ae4:	b580      	push	{r7, lr}
 8002ae6:	b086      	sub	sp, #24
 8002ae8:	af00      	add	r7, sp, #0
TCB_t * pxTCB;
TickType_t xItemValue;
BaseType_t xSwitchRequired = pdFALSE;
 8002aea:	2300      	movs	r3, #0
 8002aec:	617b      	str	r3, [r7, #20]

	/* Called by the portable layer each time a tick interrupt occurs.
	Increments the tick then checks to see if the new tick value will cause any
	tasks to be unblocked. */
	traceTASK_INCREMENT_TICK( xTickCount );
	if( uxSchedulerSuspended == ( UBaseType_t ) pdFALSE )
 8002aee:	4b51      	ldr	r3, [pc, #324]	; (8002c34 <xTaskIncrementTick+0x150>)
 8002af0:	681b      	ldr	r3, [r3, #0]
 8002af2:	2b00      	cmp	r3, #0
 8002af4:	f040 808d 	bne.w	8002c12 <xTaskIncrementTick+0x12e>
	{
		/* Minor optimisation.  The tick count cannot change in this
		block. */
		const TickType_t xConstTickCount = xTickCount + ( TickType_t ) 1;
 8002af8:	4b4f      	ldr	r3, [pc, #316]	; (8002c38 <xTaskIncrementTick+0x154>)
 8002afa:	681b      	ldr	r3, [r3, #0]
 8002afc:	3301      	adds	r3, #1
 8002afe:	613b      	str	r3, [r7, #16]

		/* Increment the RTOS tick, switching the delayed and overflowed
		delayed lists if it wraps to 0. */
		xTickCount = xConstTickCount;
 8002b00:	4a4d      	ldr	r2, [pc, #308]	; (8002c38 <xTaskIncrementTick+0x154>)
 8002b02:	693b      	ldr	r3, [r7, #16]
 8002b04:	6013      	str	r3, [r2, #0]

		if( xConstTickCount == ( TickType_t ) 0U ) /*lint !e774 'if' does not always evaluate to false as it is looking for an overflow. */
 8002b06:	693b      	ldr	r3, [r7, #16]
 8002b08:	2b00      	cmp	r3, #0
 8002b0a:	d11f      	bne.n	8002b4c <xTaskIncrementTick+0x68>
		{
			taskSWITCH_DELAYED_LISTS();
 8002b0c:	4b4b      	ldr	r3, [pc, #300]	; (8002c3c <xTaskIncrementTick+0x158>)
 8002b0e:	681b      	ldr	r3, [r3, #0]
 8002b10:	681b      	ldr	r3, [r3, #0]
 8002b12:	2b00      	cmp	r3, #0
 8002b14:	d009      	beq.n	8002b2a <xTaskIncrementTick+0x46>
 8002b16:	f04f 0350 	mov.w	r3, #80	; 0x50
 8002b1a:	f383 8811 	msr	BASEPRI, r3
 8002b1e:	f3bf 8f6f 	isb	sy
 8002b22:	f3bf 8f4f 	dsb	sy
 8002b26:	603b      	str	r3, [r7, #0]
 8002b28:	e7fe      	b.n	8002b28 <xTaskIncrementTick+0x44>
 8002b2a:	4b44      	ldr	r3, [pc, #272]	; (8002c3c <xTaskIncrementTick+0x158>)
 8002b2c:	681b      	ldr	r3, [r3, #0]
 8002b2e:	60fb      	str	r3, [r7, #12]
 8002b30:	4b43      	ldr	r3, [pc, #268]	; (8002c40 <xTaskIncrementTick+0x15c>)
 8002b32:	681b      	ldr	r3, [r3, #0]
 8002b34:	4a41      	ldr	r2, [pc, #260]	; (8002c3c <xTaskIncrementTick+0x158>)
 8002b36:	6013      	str	r3, [r2, #0]
 8002b38:	4a41      	ldr	r2, [pc, #260]	; (8002c40 <xTaskIncrementTick+0x15c>)
 8002b3a:	68fb      	ldr	r3, [r7, #12]
 8002b3c:	6013      	str	r3, [r2, #0]
 8002b3e:	4b41      	ldr	r3, [pc, #260]	; (8002c44 <xTaskIncrementTick+0x160>)
 8002b40:	681b      	ldr	r3, [r3, #0]
 8002b42:	3301      	adds	r3, #1
 8002b44:	4a3f      	ldr	r2, [pc, #252]	; (8002c44 <xTaskIncrementTick+0x160>)
 8002b46:	6013      	str	r3, [r2, #0]
 8002b48:	f000 faca 	bl	80030e0 <prvResetNextTaskUnblockTime>

		/* See if this tick has made a timeout expire.  Tasks are stored in
		the	queue in the order of their wake time - meaning once one task
		has been found whose block time has not expired there is no need to
		look any further down the list. */
		if( xConstTickCount >= xNextTaskUnblockTime )
 8002b4c:	4b3e      	ldr	r3, [pc, #248]	; (8002c48 <xTaskIncrementTick+0x164>)
 8002b4e:	681b      	ldr	r3, [r3, #0]
 8002b50:	693a      	ldr	r2, [r7, #16]
 8002b52:	429a      	cmp	r2, r3
 8002b54:	d34e      	bcc.n	8002bf4 <xTaskIncrementTick+0x110>
		{
			for( ;; )
			{
				if( listLIST_IS_EMPTY( pxDelayedTaskList ) != pdFALSE )
 8002b56:	4b39      	ldr	r3, [pc, #228]	; (8002c3c <xTaskIncrementTick+0x158>)
 8002b58:	681b      	ldr	r3, [r3, #0]
 8002b5a:	681b      	ldr	r3, [r3, #0]
 8002b5c:	2b00      	cmp	r3, #0
 8002b5e:	d101      	bne.n	8002b64 <xTaskIncrementTick+0x80>
 8002b60:	2301      	movs	r3, #1
 8002b62:	e000      	b.n	8002b66 <xTaskIncrementTick+0x82>
 8002b64:	2300      	movs	r3, #0
 8002b66:	2b00      	cmp	r3, #0
 8002b68:	d004      	beq.n	8002b74 <xTaskIncrementTick+0x90>
					/* The delayed list is empty.  Set xNextTaskUnblockTime
					to the maximum possible value so it is extremely
					unlikely that the
					if( xTickCount >= xNextTaskUnblockTime ) test will pass
					next time through. */
					xNextTaskUnblockTime = portMAX_DELAY; /*lint !e961 MISRA exception as the casts are only redundant for some ports. */
 8002b6a:	4b37      	ldr	r3, [pc, #220]	; (8002c48 <xTaskIncrementTick+0x164>)
 8002b6c:	f04f 32ff 	mov.w	r2, #4294967295
 8002b70:	601a      	str	r2, [r3, #0]
					break;
 8002b72:	e03f      	b.n	8002bf4 <xTaskIncrementTick+0x110>
				{
					/* The delayed list is not empty, get the value of the
					item at the head of the delayed list.  This is the time
					at which the task at the head of the delayed list must
					be removed from the Blocked state. */
					pxTCB = ( TCB_t * ) listGET_OWNER_OF_HEAD_ENTRY( pxDelayedTaskList );
 8002b74:	4b31      	ldr	r3, [pc, #196]	; (8002c3c <xTaskIncrementTick+0x158>)
 8002b76:	681b      	ldr	r3, [r3, #0]
 8002b78:	68db      	ldr	r3, [r3, #12]
 8002b7a:	68db      	ldr	r3, [r3, #12]
 8002b7c:	60bb      	str	r3, [r7, #8]
					xItemValue = listGET_LIST_ITEM_VALUE( &( pxTCB->xStateListItem ) );
 8002b7e:	68bb      	ldr	r3, [r7, #8]
 8002b80:	685b      	ldr	r3, [r3, #4]
 8002b82:	607b      	str	r3, [r7, #4]

					if( xConstTickCount < xItemValue )
 8002b84:	693a      	ldr	r2, [r7, #16]
 8002b86:	687b      	ldr	r3, [r7, #4]
 8002b88:	429a      	cmp	r2, r3
 8002b8a:	d203      	bcs.n	8002b94 <xTaskIncrementTick+0xb0>
						/* It is not time to unblock this item yet, but the
						item value is the time at which the task at the head
						of the blocked list must be removed from the Blocked
						state -	so record the item value in
						xNextTaskUnblockTime. */
						xNextTaskUnblockTime = xItemValue;
 8002b8c:	4a2e      	ldr	r2, [pc, #184]	; (8002c48 <xTaskIncrementTick+0x164>)
 8002b8e:	687b      	ldr	r3, [r7, #4]
 8002b90:	6013      	str	r3, [r2, #0]
						break;
 8002b92:	e02f      	b.n	8002bf4 <xTaskIncrementTick+0x110>
					{
						mtCOVERAGE_TEST_MARKER();
					}

					/* It is time to remove the item from the Blocked state. */
					( void ) uxListRemove( &( pxTCB->xStateListItem ) );
 8002b94:	68bb      	ldr	r3, [r7, #8]
 8002b96:	3304      	adds	r3, #4
 8002b98:	4618      	mov	r0, r3
 8002b9a:	f7fe ffc1 	bl	8001b20 <uxListRemove>

					/* Is the task waiting on an event also?  If so remove
					it from the event list. */
					if( listLIST_ITEM_CONTAINER( &( pxTCB->xEventListItem ) ) != NULL )
 8002b9e:	68bb      	ldr	r3, [r7, #8]
 8002ba0:	6a9b      	ldr	r3, [r3, #40]	; 0x28
 8002ba2:	2b00      	cmp	r3, #0
 8002ba4:	d004      	beq.n	8002bb0 <xTaskIncrementTick+0xcc>
					{
						( void ) uxListRemove( &( pxTCB->xEventListItem ) );
 8002ba6:	68bb      	ldr	r3, [r7, #8]
 8002ba8:	3318      	adds	r3, #24
 8002baa:	4618      	mov	r0, r3
 8002bac:	f7fe ffb8 	bl	8001b20 <uxListRemove>
						mtCOVERAGE_TEST_MARKER();
					}

					/* Place the unblocked task into the appropriate ready
					list. */
					prvAddTaskToReadyList( pxTCB );
 8002bb0:	68bb      	ldr	r3, [r7, #8]
 8002bb2:	6ada      	ldr	r2, [r3, #44]	; 0x2c
 8002bb4:	4b25      	ldr	r3, [pc, #148]	; (8002c4c <xTaskIncrementTick+0x168>)
 8002bb6:	681b      	ldr	r3, [r3, #0]
 8002bb8:	429a      	cmp	r2, r3
 8002bba:	d903      	bls.n	8002bc4 <xTaskIncrementTick+0xe0>
 8002bbc:	68bb      	ldr	r3, [r7, #8]
 8002bbe:	6adb      	ldr	r3, [r3, #44]	; 0x2c
 8002bc0:	4a22      	ldr	r2, [pc, #136]	; (8002c4c <xTaskIncrementTick+0x168>)
 8002bc2:	6013      	str	r3, [r2, #0]
 8002bc4:	68bb      	ldr	r3, [r7, #8]
 8002bc6:	6ada      	ldr	r2, [r3, #44]	; 0x2c
 8002bc8:	4613      	mov	r3, r2
 8002bca:	009b      	lsls	r3, r3, #2
 8002bcc:	4413      	add	r3, r2
 8002bce:	009b      	lsls	r3, r3, #2
 8002bd0:	4a1f      	ldr	r2, [pc, #124]	; (8002c50 <xTaskIncrementTick+0x16c>)
 8002bd2:	441a      	add	r2, r3
 8002bd4:	68bb      	ldr	r3, [r7, #8]
 8002bd6:	3304      	adds	r3, #4
 8002bd8:	4619      	mov	r1, r3
 8002bda:	4610      	mov	r0, r2
 8002bdc:	f7fe ff45 	bl	8001a6a <vListInsertEnd>
					{
						/* Preemption is on, but a context switch should
						only be performed if the unblocked task has a
						priority that is equal to or higher than the
						currently executing task. */
						if( pxTCB->uxPriority >= pxCurrentTCB->uxPriority )
 8002be0:	68bb      	ldr	r3, [r7, #8]
 8002be2:	6ada      	ldr	r2, [r3, #44]	; 0x2c
 8002be4:	4b1b      	ldr	r3, [pc, #108]	; (8002c54 <xTaskIncrementTick+0x170>)
 8002be6:	681b      	ldr	r3, [r3, #0]
 8002be8:	6adb      	ldr	r3, [r3, #44]	; 0x2c
 8002bea:	429a      	cmp	r2, r3
 8002bec:	d3b3      	bcc.n	8002b56 <xTaskIncrementTick+0x72>
						{
							xSwitchRequired = pdTRUE;
 8002bee:	2301      	movs	r3, #1
 8002bf0:	617b      	str	r3, [r7, #20]
				if( listLIST_IS_EMPTY( pxDelayedTaskList ) != pdFALSE )
 8002bf2:	e7b0      	b.n	8002b56 <xTaskIncrementTick+0x72>
		/* Tasks of equal priority to the currently running task will share
		processing time (time slice) if preemption is on, and the application
		writer has not explicitly turned time slicing off. */
		#if ( ( configUSE_PREEMPTION == 1 ) && ( configUSE_TIME_SLICING == 1 ) )
		{
			if( listCURRENT_LIST_LENGTH( &( pxReadyTasksLists[ pxCurrentTCB->uxPriority ] ) ) > ( UBaseType_t ) 1 )
 8002bf4:	4b17      	ldr	r3, [pc, #92]	; (8002c54 <xTaskIncrementTick+0x170>)
 8002bf6:	681b      	ldr	r3, [r3, #0]
 8002bf8:	6ada      	ldr	r2, [r3, #44]	; 0x2c
 8002bfa:	4915      	ldr	r1, [pc, #84]	; (8002c50 <xTaskIncrementTick+0x16c>)
 8002bfc:	4613      	mov	r3, r2
 8002bfe:	009b      	lsls	r3, r3, #2
 8002c00:	4413      	add	r3, r2
 8002c02:	009b      	lsls	r3, r3, #2
 8002c04:	440b      	add	r3, r1
 8002c06:	681b      	ldr	r3, [r3, #0]
 8002c08:	2b01      	cmp	r3, #1
 8002c0a:	d907      	bls.n	8002c1c <xTaskIncrementTick+0x138>
			{
				xSwitchRequired = pdTRUE;
 8002c0c:	2301      	movs	r3, #1
 8002c0e:	617b      	str	r3, [r7, #20]
 8002c10:	e004      	b.n	8002c1c <xTaskIncrementTick+0x138>
		}
		#endif /* configUSE_TICK_HOOK */
	}
	else
	{
		++uxPendedTicks;
 8002c12:	4b11      	ldr	r3, [pc, #68]	; (8002c58 <xTaskIncrementTick+0x174>)
 8002c14:	681b      	ldr	r3, [r3, #0]
 8002c16:	3301      	adds	r3, #1
 8002c18:	4a0f      	ldr	r2, [pc, #60]	; (8002c58 <xTaskIncrementTick+0x174>)
 8002c1a:	6013      	str	r3, [r2, #0]
		#endif
	}

	#if ( configUSE_PREEMPTION == 1 )
	{
		if( xYieldPending != pdFALSE )
 8002c1c:	4b0f      	ldr	r3, [pc, #60]	; (8002c5c <xTaskIncrementTick+0x178>)
 8002c1e:	681b      	ldr	r3, [r3, #0]
 8002c20:	2b00      	cmp	r3, #0
 8002c22:	d001      	beq.n	8002c28 <xTaskIncrementTick+0x144>
		{
			xSwitchRequired = pdTRUE;
 8002c24:	2301      	movs	r3, #1
 8002c26:	617b      	str	r3, [r7, #20]
			mtCOVERAGE_TEST_MARKER();
		}
	}
	#endif /* configUSE_PREEMPTION */

	return xSwitchRequired;
 8002c28:	697b      	ldr	r3, [r7, #20]
}
 8002c2a:	4618      	mov	r0, r3
 8002c2c:	3718      	adds	r7, #24
 8002c2e:	46bd      	mov	sp, r7
 8002c30:	bd80      	pop	{r7, pc}
 8002c32:	bf00      	nop
 8002c34:	20000be0 	.word	0x20000be0
 8002c38:	20000bbc 	.word	0x20000bbc
 8002c3c:	20000b70 	.word	0x20000b70
 8002c40:	20000b74 	.word	0x20000b74
 8002c44:	20000bd0 	.word	0x20000bd0
 8002c48:	20000bd8 	.word	0x20000bd8
 8002c4c:	20000bc0 	.word	0x20000bc0
 8002c50:	200006e8 	.word	0x200006e8
 8002c54:	200006e4 	.word	0x200006e4
 8002c58:	20000bc8 	.word	0x20000bc8
 8002c5c:	20000bcc 	.word	0x20000bcc

08002c60 <vTaskSwitchContext>:

#endif /* configUSE_APPLICATION_TASK_TAG */
/*-----------------------------------------------------------*/

void vTaskSwitchContext( void )
{
 8002c60:	b480      	push	{r7}
 8002c62:	b085      	sub	sp, #20
 8002c64:	af00      	add	r7, sp, #0
	if( uxSchedulerSuspended != ( UBaseType_t ) pdFALSE )
 8002c66:	4b27      	ldr	r3, [pc, #156]	; (8002d04 <vTaskSwitchContext+0xa4>)
 8002c68:	681b      	ldr	r3, [r3, #0]
 8002c6a:	2b00      	cmp	r3, #0
 8002c6c:	d003      	beq.n	8002c76 <vTaskSwitchContext+0x16>
	{
		/* The scheduler is currently suspended - do not allow a context
		switch. */
		xYieldPending = pdTRUE;
 8002c6e:	4b26      	ldr	r3, [pc, #152]	; (8002d08 <vTaskSwitchContext+0xa8>)
 8002c70:	2201      	movs	r2, #1
 8002c72:	601a      	str	r2, [r3, #0]
			structure specific to this task. */
			_impure_ptr = &( pxCurrentTCB->xNewLib_reent );
		}
		#endif /* configUSE_NEWLIB_REENTRANT */
	}
}
 8002c74:	e040      	b.n	8002cf8 <vTaskSwitchContext+0x98>
		xYieldPending = pdFALSE;
 8002c76:	4b24      	ldr	r3, [pc, #144]	; (8002d08 <vTaskSwitchContext+0xa8>)
 8002c78:	2200      	movs	r2, #0
 8002c7a:	601a      	str	r2, [r3, #0]
		taskSELECT_HIGHEST_PRIORITY_TASK();
 8002c7c:	4b23      	ldr	r3, [pc, #140]	; (8002d0c <vTaskSwitchContext+0xac>)
 8002c7e:	681b      	ldr	r3, [r3, #0]
 8002c80:	60fb      	str	r3, [r7, #12]
 8002c82:	e00f      	b.n	8002ca4 <vTaskSwitchContext+0x44>
 8002c84:	68fb      	ldr	r3, [r7, #12]
 8002c86:	2b00      	cmp	r3, #0
 8002c88:	d109      	bne.n	8002c9e <vTaskSwitchContext+0x3e>
 8002c8a:	f04f 0350 	mov.w	r3, #80	; 0x50
 8002c8e:	f383 8811 	msr	BASEPRI, r3
 8002c92:	f3bf 8f6f 	isb	sy
 8002c96:	f3bf 8f4f 	dsb	sy
 8002c9a:	607b      	str	r3, [r7, #4]
 8002c9c:	e7fe      	b.n	8002c9c <vTaskSwitchContext+0x3c>
 8002c9e:	68fb      	ldr	r3, [r7, #12]
 8002ca0:	3b01      	subs	r3, #1
 8002ca2:	60fb      	str	r3, [r7, #12]
 8002ca4:	491a      	ldr	r1, [pc, #104]	; (8002d10 <vTaskSwitchContext+0xb0>)
 8002ca6:	68fa      	ldr	r2, [r7, #12]
 8002ca8:	4613      	mov	r3, r2
 8002caa:	009b      	lsls	r3, r3, #2
 8002cac:	4413      	add	r3, r2
 8002cae:	009b      	lsls	r3, r3, #2
 8002cb0:	440b      	add	r3, r1
 8002cb2:	681b      	ldr	r3, [r3, #0]
 8002cb4:	2b00      	cmp	r3, #0
 8002cb6:	d0e5      	beq.n	8002c84 <vTaskSwitchContext+0x24>
 8002cb8:	68fa      	ldr	r2, [r7, #12]
 8002cba:	4613      	mov	r3, r2
 8002cbc:	009b      	lsls	r3, r3, #2
 8002cbe:	4413      	add	r3, r2
 8002cc0:	009b      	lsls	r3, r3, #2
 8002cc2:	4a13      	ldr	r2, [pc, #76]	; (8002d10 <vTaskSwitchContext+0xb0>)
 8002cc4:	4413      	add	r3, r2
 8002cc6:	60bb      	str	r3, [r7, #8]
 8002cc8:	68bb      	ldr	r3, [r7, #8]
 8002cca:	685b      	ldr	r3, [r3, #4]
 8002ccc:	685a      	ldr	r2, [r3, #4]
 8002cce:	68bb      	ldr	r3, [r7, #8]
 8002cd0:	605a      	str	r2, [r3, #4]
 8002cd2:	68bb      	ldr	r3, [r7, #8]
 8002cd4:	685a      	ldr	r2, [r3, #4]
 8002cd6:	68bb      	ldr	r3, [r7, #8]
 8002cd8:	3308      	adds	r3, #8
 8002cda:	429a      	cmp	r2, r3
 8002cdc:	d104      	bne.n	8002ce8 <vTaskSwitchContext+0x88>
 8002cde:	68bb      	ldr	r3, [r7, #8]
 8002ce0:	685b      	ldr	r3, [r3, #4]
 8002ce2:	685a      	ldr	r2, [r3, #4]
 8002ce4:	68bb      	ldr	r3, [r7, #8]
 8002ce6:	605a      	str	r2, [r3, #4]
 8002ce8:	68bb      	ldr	r3, [r7, #8]
 8002cea:	685b      	ldr	r3, [r3, #4]
 8002cec:	68db      	ldr	r3, [r3, #12]
 8002cee:	4a09      	ldr	r2, [pc, #36]	; (8002d14 <vTaskSwitchContext+0xb4>)
 8002cf0:	6013      	str	r3, [r2, #0]
 8002cf2:	4a06      	ldr	r2, [pc, #24]	; (8002d0c <vTaskSwitchContext+0xac>)
 8002cf4:	68fb      	ldr	r3, [r7, #12]
 8002cf6:	6013      	str	r3, [r2, #0]
}
 8002cf8:	bf00      	nop
 8002cfa:	3714      	adds	r7, #20
 8002cfc:	46bd      	mov	sp, r7
 8002cfe:	bc80      	pop	{r7}
 8002d00:	4770      	bx	lr
 8002d02:	bf00      	nop
 8002d04:	20000be0 	.word	0x20000be0
 8002d08:	20000bcc 	.word	0x20000bcc
 8002d0c:	20000bc0 	.word	0x20000bc0
 8002d10:	200006e8 	.word	0x200006e8
 8002d14:	200006e4 	.word	0x200006e4

08002d18 <vTaskPlaceOnEventList>:
/*-----------------------------------------------------------*/

void vTaskPlaceOnEventList( List_t * const pxEventList, const TickType_t xTicksToWait )
{
 8002d18:	b580      	push	{r7, lr}
 8002d1a:	b084      	sub	sp, #16
 8002d1c:	af00      	add	r7, sp, #0
 8002d1e:	6078      	str	r0, [r7, #4]
 8002d20:	6039      	str	r1, [r7, #0]
	configASSERT( pxEventList );
 8002d22:	687b      	ldr	r3, [r7, #4]
 8002d24:	2b00      	cmp	r3, #0
 8002d26:	d109      	bne.n	8002d3c <vTaskPlaceOnEventList+0x24>
 8002d28:	f04f 0350 	mov.w	r3, #80	; 0x50
 8002d2c:	f383 8811 	msr	BASEPRI, r3
 8002d30:	f3bf 8f6f 	isb	sy
 8002d34:	f3bf 8f4f 	dsb	sy
 8002d38:	60fb      	str	r3, [r7, #12]
 8002d3a:	e7fe      	b.n	8002d3a <vTaskPlaceOnEventList+0x22>

	/* Place the event list item of the TCB in the appropriate event list.
	This is placed in the list in priority order so the highest priority task
	is the first to be woken by the event.  The queue that contains the event
	list is locked, preventing simultaneous access from interrupts. */
	vListInsert( pxEventList, &( pxCurrentTCB->xEventListItem ) );
 8002d3c:	4b07      	ldr	r3, [pc, #28]	; (8002d5c <vTaskPlaceOnEventList+0x44>)
 8002d3e:	681b      	ldr	r3, [r3, #0]
 8002d40:	3318      	adds	r3, #24
 8002d42:	4619      	mov	r1, r3
 8002d44:	6878      	ldr	r0, [r7, #4]
 8002d46:	f7fe feb3 	bl	8001ab0 <vListInsert>

	prvAddCurrentTaskToDelayedList( xTicksToWait, pdTRUE );
 8002d4a:	2101      	movs	r1, #1
 8002d4c:	6838      	ldr	r0, [r7, #0]
 8002d4e:	f000 fa75 	bl	800323c <prvAddCurrentTaskToDelayedList>
}
 8002d52:	bf00      	nop
 8002d54:	3710      	adds	r7, #16
 8002d56:	46bd      	mov	sp, r7
 8002d58:	bd80      	pop	{r7, pc}
 8002d5a:	bf00      	nop
 8002d5c:	200006e4 	.word	0x200006e4

08002d60 <vTaskPlaceOnEventListRestricted>:
/*-----------------------------------------------------------*/

#if( configUSE_TIMERS == 1 )

	void vTaskPlaceOnEventListRestricted( List_t * const pxEventList, TickType_t xTicksToWait, const BaseType_t xWaitIndefinitely )
	{
 8002d60:	b580      	push	{r7, lr}
 8002d62:	b086      	sub	sp, #24
 8002d64:	af00      	add	r7, sp, #0
 8002d66:	60f8      	str	r0, [r7, #12]
 8002d68:	60b9      	str	r1, [r7, #8]
 8002d6a:	607a      	str	r2, [r7, #4]
		configASSERT( pxEventList );
 8002d6c:	68fb      	ldr	r3, [r7, #12]
 8002d6e:	2b00      	cmp	r3, #0
 8002d70:	d109      	bne.n	8002d86 <vTaskPlaceOnEventListRestricted+0x26>
 8002d72:	f04f 0350 	mov.w	r3, #80	; 0x50
 8002d76:	f383 8811 	msr	BASEPRI, r3
 8002d7a:	f3bf 8f6f 	isb	sy
 8002d7e:	f3bf 8f4f 	dsb	sy
 8002d82:	617b      	str	r3, [r7, #20]
 8002d84:	e7fe      	b.n	8002d84 <vTaskPlaceOnEventListRestricted+0x24>

		/* Place the event list item of the TCB in the appropriate event list.
		In this case it is assume that this is the only task that is going to
		be waiting on this event list, so the faster vListInsertEnd() function
		can be used in place of vListInsert. */
		vListInsertEnd( pxEventList, &( pxCurrentTCB->xEventListItem ) );
 8002d86:	4b0a      	ldr	r3, [pc, #40]	; (8002db0 <vTaskPlaceOnEventListRestricted+0x50>)
 8002d88:	681b      	ldr	r3, [r3, #0]
 8002d8a:	3318      	adds	r3, #24
 8002d8c:	4619      	mov	r1, r3
 8002d8e:	68f8      	ldr	r0, [r7, #12]
 8002d90:	f7fe fe6b 	bl	8001a6a <vListInsertEnd>

		/* If the task should block indefinitely then set the block time to a
		value that will be recognised as an indefinite delay inside the
		prvAddCurrentTaskToDelayedList() function. */
		if( xWaitIndefinitely != pdFALSE )
 8002d94:	687b      	ldr	r3, [r7, #4]
 8002d96:	2b00      	cmp	r3, #0
 8002d98:	d002      	beq.n	8002da0 <vTaskPlaceOnEventListRestricted+0x40>
		{
			xTicksToWait = portMAX_DELAY;
 8002d9a:	f04f 33ff 	mov.w	r3, #4294967295
 8002d9e:	60bb      	str	r3, [r7, #8]
		}

		traceTASK_DELAY_UNTIL( ( xTickCount + xTicksToWait ) );
		prvAddCurrentTaskToDelayedList( xTicksToWait, xWaitIndefinitely );
 8002da0:	6879      	ldr	r1, [r7, #4]
 8002da2:	68b8      	ldr	r0, [r7, #8]
 8002da4:	f000 fa4a 	bl	800323c <prvAddCurrentTaskToDelayedList>
	}
 8002da8:	bf00      	nop
 8002daa:	3718      	adds	r7, #24
 8002dac:	46bd      	mov	sp, r7
 8002dae:	bd80      	pop	{r7, pc}
 8002db0:	200006e4 	.word	0x200006e4

08002db4 <xTaskRemoveFromEventList>:

#endif /* configUSE_TIMERS */
/*-----------------------------------------------------------*/

BaseType_t xTaskRemoveFromEventList( const List_t * const pxEventList )
{
 8002db4:	b580      	push	{r7, lr}
 8002db6:	b086      	sub	sp, #24
 8002db8:	af00      	add	r7, sp, #0
 8002dba:	6078      	str	r0, [r7, #4]
	get called - the lock count on the queue will get modified instead.  This
	means exclusive access to the event list is guaranteed here.

	This function assumes that a check has already been made to ensure that
	pxEventList is not empty. */
	pxUnblockedTCB = ( TCB_t * ) listGET_OWNER_OF_HEAD_ENTRY( pxEventList );
 8002dbc:	687b      	ldr	r3, [r7, #4]
 8002dbe:	68db      	ldr	r3, [r3, #12]
 8002dc0:	68db      	ldr	r3, [r3, #12]
 8002dc2:	613b      	str	r3, [r7, #16]
	configASSERT( pxUnblockedTCB );
 8002dc4:	693b      	ldr	r3, [r7, #16]
 8002dc6:	2b00      	cmp	r3, #0
 8002dc8:	d109      	bne.n	8002dde <xTaskRemoveFromEventList+0x2a>
 8002dca:	f04f 0350 	mov.w	r3, #80	; 0x50
 8002dce:	f383 8811 	msr	BASEPRI, r3
 8002dd2:	f3bf 8f6f 	isb	sy
 8002dd6:	f3bf 8f4f 	dsb	sy
 8002dda:	60fb      	str	r3, [r7, #12]
 8002ddc:	e7fe      	b.n	8002ddc <xTaskRemoveFromEventList+0x28>
	( void ) uxListRemove( &( pxUnblockedTCB->xEventListItem ) );
 8002dde:	693b      	ldr	r3, [r7, #16]
 8002de0:	3318      	adds	r3, #24
 8002de2:	4618      	mov	r0, r3
 8002de4:	f7fe fe9c 	bl	8001b20 <uxListRemove>

	if( uxSchedulerSuspended == ( UBaseType_t ) pdFALSE )
 8002de8:	4b1d      	ldr	r3, [pc, #116]	; (8002e60 <xTaskRemoveFromEventList+0xac>)
 8002dea:	681b      	ldr	r3, [r3, #0]
 8002dec:	2b00      	cmp	r3, #0
 8002dee:	d11d      	bne.n	8002e2c <xTaskRemoveFromEventList+0x78>
	{
		( void ) uxListRemove( &( pxUnblockedTCB->xStateListItem ) );
 8002df0:	693b      	ldr	r3, [r7, #16]
 8002df2:	3304      	adds	r3, #4
 8002df4:	4618      	mov	r0, r3
 8002df6:	f7fe fe93 	bl	8001b20 <uxListRemove>
		prvAddTaskToReadyList( pxUnblockedTCB );
 8002dfa:	693b      	ldr	r3, [r7, #16]
 8002dfc:	6ada      	ldr	r2, [r3, #44]	; 0x2c
 8002dfe:	4b19      	ldr	r3, [pc, #100]	; (8002e64 <xTaskRemoveFromEventList+0xb0>)
 8002e00:	681b      	ldr	r3, [r3, #0]
 8002e02:	429a      	cmp	r2, r3
 8002e04:	d903      	bls.n	8002e0e <xTaskRemoveFromEventList+0x5a>
 8002e06:	693b      	ldr	r3, [r7, #16]
 8002e08:	6adb      	ldr	r3, [r3, #44]	; 0x2c
 8002e0a:	4a16      	ldr	r2, [pc, #88]	; (8002e64 <xTaskRemoveFromEventList+0xb0>)
 8002e0c:	6013      	str	r3, [r2, #0]
 8002e0e:	693b      	ldr	r3, [r7, #16]
 8002e10:	6ada      	ldr	r2, [r3, #44]	; 0x2c
 8002e12:	4613      	mov	r3, r2
 8002e14:	009b      	lsls	r3, r3, #2
 8002e16:	4413      	add	r3, r2
 8002e18:	009b      	lsls	r3, r3, #2
 8002e1a:	4a13      	ldr	r2, [pc, #76]	; (8002e68 <xTaskRemoveFromEventList+0xb4>)
 8002e1c:	441a      	add	r2, r3
 8002e1e:	693b      	ldr	r3, [r7, #16]
 8002e20:	3304      	adds	r3, #4
 8002e22:	4619      	mov	r1, r3
 8002e24:	4610      	mov	r0, r2
 8002e26:	f7fe fe20 	bl	8001a6a <vListInsertEnd>
 8002e2a:	e005      	b.n	8002e38 <xTaskRemoveFromEventList+0x84>
	}
	else
	{
		/* The delayed and ready lists cannot be accessed, so hold this task
		pending until the scheduler is resumed. */
		vListInsertEnd( &( xPendingReadyList ), &( pxUnblockedTCB->xEventListItem ) );
 8002e2c:	693b      	ldr	r3, [r7, #16]
 8002e2e:	3318      	adds	r3, #24
 8002e30:	4619      	mov	r1, r3
 8002e32:	480e      	ldr	r0, [pc, #56]	; (8002e6c <xTaskRemoveFromEventList+0xb8>)
 8002e34:	f7fe fe19 	bl	8001a6a <vListInsertEnd>
	}

	if( pxUnblockedTCB->uxPriority > pxCurrentTCB->uxPriority )
 8002e38:	693b      	ldr	r3, [r7, #16]
 8002e3a:	6ada      	ldr	r2, [r3, #44]	; 0x2c
 8002e3c:	4b0c      	ldr	r3, [pc, #48]	; (8002e70 <xTaskRemoveFromEventList+0xbc>)
 8002e3e:	681b      	ldr	r3, [r3, #0]
 8002e40:	6adb      	ldr	r3, [r3, #44]	; 0x2c
 8002e42:	429a      	cmp	r2, r3
 8002e44:	d905      	bls.n	8002e52 <xTaskRemoveFromEventList+0x9e>
	{
		/* Return true if the task removed from the event list has a higher
		priority than the calling task.  This allows the calling task to know if
		it should force a context switch now. */
		xReturn = pdTRUE;
 8002e46:	2301      	movs	r3, #1
 8002e48:	617b      	str	r3, [r7, #20]

		/* Mark that a yield is pending in case the user is not using the
		"xHigherPriorityTaskWoken" parameter to an ISR safe FreeRTOS function. */
		xYieldPending = pdTRUE;
 8002e4a:	4b0a      	ldr	r3, [pc, #40]	; (8002e74 <xTaskRemoveFromEventList+0xc0>)
 8002e4c:	2201      	movs	r2, #1
 8002e4e:	601a      	str	r2, [r3, #0]
 8002e50:	e001      	b.n	8002e56 <xTaskRemoveFromEventList+0xa2>
	}
	else
	{
		xReturn = pdFALSE;
 8002e52:	2300      	movs	r3, #0
 8002e54:	617b      	str	r3, [r7, #20]
		ensure it is updated at the earliest possible time. */
		prvResetNextTaskUnblockTime();
	}
	#endif

	return xReturn;
 8002e56:	697b      	ldr	r3, [r7, #20]
}
 8002e58:	4618      	mov	r0, r3
 8002e5a:	3718      	adds	r7, #24
 8002e5c:	46bd      	mov	sp, r7
 8002e5e:	bd80      	pop	{r7, pc}
 8002e60:	20000be0 	.word	0x20000be0
 8002e64:	20000bc0 	.word	0x20000bc0
 8002e68:	200006e8 	.word	0x200006e8
 8002e6c:	20000b78 	.word	0x20000b78
 8002e70:	200006e4 	.word	0x200006e4
 8002e74:	20000bcc 	.word	0x20000bcc

08002e78 <vTaskInternalSetTimeOutState>:
	taskEXIT_CRITICAL();
}
/*-----------------------------------------------------------*/

void vTaskInternalSetTimeOutState( TimeOut_t * const pxTimeOut )
{
 8002e78:	b480      	push	{r7}
 8002e7a:	b083      	sub	sp, #12
 8002e7c:	af00      	add	r7, sp, #0
 8002e7e:	6078      	str	r0, [r7, #4]
	/* For internal use only as it does not use a critical section. */
	pxTimeOut->xOverflowCount = xNumOfOverflows;
 8002e80:	4b06      	ldr	r3, [pc, #24]	; (8002e9c <vTaskInternalSetTimeOutState+0x24>)
 8002e82:	681a      	ldr	r2, [r3, #0]
 8002e84:	687b      	ldr	r3, [r7, #4]
 8002e86:	601a      	str	r2, [r3, #0]
	pxTimeOut->xTimeOnEntering = xTickCount;
 8002e88:	4b05      	ldr	r3, [pc, #20]	; (8002ea0 <vTaskInternalSetTimeOutState+0x28>)
 8002e8a:	681a      	ldr	r2, [r3, #0]
 8002e8c:	687b      	ldr	r3, [r7, #4]
 8002e8e:	605a      	str	r2, [r3, #4]
}
 8002e90:	bf00      	nop
 8002e92:	370c      	adds	r7, #12
 8002e94:	46bd      	mov	sp, r7
 8002e96:	bc80      	pop	{r7}
 8002e98:	4770      	bx	lr
 8002e9a:	bf00      	nop
 8002e9c:	20000bd0 	.word	0x20000bd0
 8002ea0:	20000bbc 	.word	0x20000bbc

08002ea4 <xTaskCheckForTimeOut>:
/*-----------------------------------------------------------*/

BaseType_t xTaskCheckForTimeOut( TimeOut_t * const pxTimeOut, TickType_t * const pxTicksToWait )
{
 8002ea4:	b580      	push	{r7, lr}
 8002ea6:	b088      	sub	sp, #32
 8002ea8:	af00      	add	r7, sp, #0
 8002eaa:	6078      	str	r0, [r7, #4]
 8002eac:	6039      	str	r1, [r7, #0]
BaseType_t xReturn;

	configASSERT( pxTimeOut );
 8002eae:	687b      	ldr	r3, [r7, #4]
 8002eb0:	2b00      	cmp	r3, #0
 8002eb2:	d109      	bne.n	8002ec8 <xTaskCheckForTimeOut+0x24>
 8002eb4:	f04f 0350 	mov.w	r3, #80	; 0x50
 8002eb8:	f383 8811 	msr	BASEPRI, r3
 8002ebc:	f3bf 8f6f 	isb	sy
 8002ec0:	f3bf 8f4f 	dsb	sy
 8002ec4:	613b      	str	r3, [r7, #16]
 8002ec6:	e7fe      	b.n	8002ec6 <xTaskCheckForTimeOut+0x22>
	configASSERT( pxTicksToWait );
 8002ec8:	683b      	ldr	r3, [r7, #0]
 8002eca:	2b00      	cmp	r3, #0
 8002ecc:	d109      	bne.n	8002ee2 <xTaskCheckForTimeOut+0x3e>
 8002ece:	f04f 0350 	mov.w	r3, #80	; 0x50
 8002ed2:	f383 8811 	msr	BASEPRI, r3
 8002ed6:	f3bf 8f6f 	isb	sy
 8002eda:	f3bf 8f4f 	dsb	sy
 8002ede:	60fb      	str	r3, [r7, #12]
 8002ee0:	e7fe      	b.n	8002ee0 <xTaskCheckForTimeOut+0x3c>

	taskENTER_CRITICAL();
 8002ee2:	f000 fdf1 	bl	8003ac8 <vPortEnterCritical>
	{
		/* Minor optimisation.  The tick count cannot change in this block. */
		const TickType_t xConstTickCount = xTickCount;
 8002ee6:	4b1d      	ldr	r3, [pc, #116]	; (8002f5c <xTaskCheckForTimeOut+0xb8>)
 8002ee8:	681b      	ldr	r3, [r3, #0]
 8002eea:	61bb      	str	r3, [r7, #24]
		const TickType_t xElapsedTime = xConstTickCount - pxTimeOut->xTimeOnEntering;
 8002eec:	687b      	ldr	r3, [r7, #4]
 8002eee:	685b      	ldr	r3, [r3, #4]
 8002ef0:	69ba      	ldr	r2, [r7, #24]
 8002ef2:	1ad3      	subs	r3, r2, r3
 8002ef4:	617b      	str	r3, [r7, #20]
			}
			else
		#endif

		#if ( INCLUDE_vTaskSuspend == 1 )
			if( *pxTicksToWait == portMAX_DELAY )
 8002ef6:	683b      	ldr	r3, [r7, #0]
 8002ef8:	681b      	ldr	r3, [r3, #0]
 8002efa:	f1b3 3fff 	cmp.w	r3, #4294967295
 8002efe:	d102      	bne.n	8002f06 <xTaskCheckForTimeOut+0x62>
			{
				/* If INCLUDE_vTaskSuspend is set to 1 and the block time
				specified is the maximum block time then the task should block
				indefinitely, and therefore never time out. */
				xReturn = pdFALSE;
 8002f00:	2300      	movs	r3, #0
 8002f02:	61fb      	str	r3, [r7, #28]
 8002f04:	e023      	b.n	8002f4e <xTaskCheckForTimeOut+0xaa>
			}
			else
		#endif

		if( ( xNumOfOverflows != pxTimeOut->xOverflowCount ) && ( xConstTickCount >= pxTimeOut->xTimeOnEntering ) ) /*lint !e525 Indentation preferred as is to make code within pre-processor directives clearer. */
 8002f06:	687b      	ldr	r3, [r7, #4]
 8002f08:	681a      	ldr	r2, [r3, #0]
 8002f0a:	4b15      	ldr	r3, [pc, #84]	; (8002f60 <xTaskCheckForTimeOut+0xbc>)
 8002f0c:	681b      	ldr	r3, [r3, #0]
 8002f0e:	429a      	cmp	r2, r3
 8002f10:	d007      	beq.n	8002f22 <xTaskCheckForTimeOut+0x7e>
 8002f12:	687b      	ldr	r3, [r7, #4]
 8002f14:	685b      	ldr	r3, [r3, #4]
 8002f16:	69ba      	ldr	r2, [r7, #24]
 8002f18:	429a      	cmp	r2, r3
 8002f1a:	d302      	bcc.n	8002f22 <xTaskCheckForTimeOut+0x7e>
			/* The tick count is greater than the time at which
			vTaskSetTimeout() was called, but has also overflowed since
			vTaskSetTimeOut() was called.  It must have wrapped all the way
			around and gone past again. This passed since vTaskSetTimeout()
			was called. */
			xReturn = pdTRUE;
 8002f1c:	2301      	movs	r3, #1
 8002f1e:	61fb      	str	r3, [r7, #28]
 8002f20:	e015      	b.n	8002f4e <xTaskCheckForTimeOut+0xaa>
		}
		else if( xElapsedTime < *pxTicksToWait ) /*lint !e961 Explicit casting is only redundant with some compilers, whereas others require it to prevent integer conversion errors. */
 8002f22:	683b      	ldr	r3, [r7, #0]
 8002f24:	681b      	ldr	r3, [r3, #0]
 8002f26:	697a      	ldr	r2, [r7, #20]
 8002f28:	429a      	cmp	r2, r3
 8002f2a:	d20b      	bcs.n	8002f44 <xTaskCheckForTimeOut+0xa0>
		{
			/* Not a genuine timeout. Adjust parameters for time remaining. */
			*pxTicksToWait -= xElapsedTime;
 8002f2c:	683b      	ldr	r3, [r7, #0]
 8002f2e:	681a      	ldr	r2, [r3, #0]
 8002f30:	697b      	ldr	r3, [r7, #20]
 8002f32:	1ad2      	subs	r2, r2, r3
 8002f34:	683b      	ldr	r3, [r7, #0]
 8002f36:	601a      	str	r2, [r3, #0]
			vTaskInternalSetTimeOutState( pxTimeOut );
 8002f38:	6878      	ldr	r0, [r7, #4]
 8002f3a:	f7ff ff9d 	bl	8002e78 <vTaskInternalSetTimeOutState>
			xReturn = pdFALSE;
 8002f3e:	2300      	movs	r3, #0
 8002f40:	61fb      	str	r3, [r7, #28]
 8002f42:	e004      	b.n	8002f4e <xTaskCheckForTimeOut+0xaa>
		}
		else
		{
			*pxTicksToWait = 0;
 8002f44:	683b      	ldr	r3, [r7, #0]
 8002f46:	2200      	movs	r2, #0
 8002f48:	601a      	str	r2, [r3, #0]
			xReturn = pdTRUE;
 8002f4a:	2301      	movs	r3, #1
 8002f4c:	61fb      	str	r3, [r7, #28]
		}
	}
	taskEXIT_CRITICAL();
 8002f4e:	f000 fde9 	bl	8003b24 <vPortExitCritical>

	return xReturn;
 8002f52:	69fb      	ldr	r3, [r7, #28]
}
 8002f54:	4618      	mov	r0, r3
 8002f56:	3720      	adds	r7, #32
 8002f58:	46bd      	mov	sp, r7
 8002f5a:	bd80      	pop	{r7, pc}
 8002f5c:	20000bbc 	.word	0x20000bbc
 8002f60:	20000bd0 	.word	0x20000bd0

08002f64 <vTaskMissedYield>:
/*-----------------------------------------------------------*/

void vTaskMissedYield( void )
{
 8002f64:	b480      	push	{r7}
 8002f66:	af00      	add	r7, sp, #0
	xYieldPending = pdTRUE;
 8002f68:	4b03      	ldr	r3, [pc, #12]	; (8002f78 <vTaskMissedYield+0x14>)
 8002f6a:	2201      	movs	r2, #1
 8002f6c:	601a      	str	r2, [r3, #0]
}
 8002f6e:	bf00      	nop
 8002f70:	46bd      	mov	sp, r7
 8002f72:	bc80      	pop	{r7}
 8002f74:	4770      	bx	lr
 8002f76:	bf00      	nop
 8002f78:	20000bcc 	.word	0x20000bcc

08002f7c <prvIdleTask>:
 *
 * void prvIdleTask( void *pvParameters );
 *
 */
static portTASK_FUNCTION( prvIdleTask, pvParameters )
{
 8002f7c:	b580      	push	{r7, lr}
 8002f7e:	b082      	sub	sp, #8
 8002f80:	af00      	add	r7, sp, #0
 8002f82:	6078      	str	r0, [r7, #4]

	for( ;; )
	{
		/* See if any tasks have deleted themselves - if so then the idle task
		is responsible for freeing the deleted task's TCB and stack. */
		prvCheckTasksWaitingTermination();
 8002f84:	f000 f852 	bl	800302c <prvCheckTasksWaitingTermination>

			A critical region is not required here as we are just reading from
			the list, and an occasional incorrect value will not matter.  If
			the ready list at the idle priority contains more than one task
			then a task other than the idle task is ready to execute. */
			if( listCURRENT_LIST_LENGTH( &( pxReadyTasksLists[ tskIDLE_PRIORITY ] ) ) > ( UBaseType_t ) 1 )
 8002f88:	4b06      	ldr	r3, [pc, #24]	; (8002fa4 <prvIdleTask+0x28>)
 8002f8a:	681b      	ldr	r3, [r3, #0]
 8002f8c:	2b01      	cmp	r3, #1
 8002f8e:	d9f9      	bls.n	8002f84 <prvIdleTask+0x8>
			{
				taskYIELD();
 8002f90:	4b05      	ldr	r3, [pc, #20]	; (8002fa8 <prvIdleTask+0x2c>)
 8002f92:	f04f 5280 	mov.w	r2, #268435456	; 0x10000000
 8002f96:	601a      	str	r2, [r3, #0]
 8002f98:	f3bf 8f4f 	dsb	sy
 8002f9c:	f3bf 8f6f 	isb	sy
		prvCheckTasksWaitingTermination();
 8002fa0:	e7f0      	b.n	8002f84 <prvIdleTask+0x8>
 8002fa2:	bf00      	nop
 8002fa4:	200006e8 	.word	0x200006e8
 8002fa8:	e000ed04 	.word	0xe000ed04

08002fac <prvInitialiseTaskLists>:

#endif /* portUSING_MPU_WRAPPERS */
/*-----------------------------------------------------------*/

static void prvInitialiseTaskLists( void )
{
 8002fac:	b580      	push	{r7, lr}
 8002fae:	b082      	sub	sp, #8
 8002fb0:	af00      	add	r7, sp, #0
UBaseType_t uxPriority;

	for( uxPriority = ( UBaseType_t ) 0U; uxPriority < ( UBaseType_t ) configMAX_PRIORITIES; uxPriority++ )
 8002fb2:	2300      	movs	r3, #0
 8002fb4:	607b      	str	r3, [r7, #4]
 8002fb6:	e00c      	b.n	8002fd2 <prvInitialiseTaskLists+0x26>
	{
		vListInitialise( &( pxReadyTasksLists[ uxPriority ] ) );
 8002fb8:	687a      	ldr	r2, [r7, #4]
 8002fba:	4613      	mov	r3, r2
 8002fbc:	009b      	lsls	r3, r3, #2
 8002fbe:	4413      	add	r3, r2
 8002fc0:	009b      	lsls	r3, r3, #2
 8002fc2:	4a12      	ldr	r2, [pc, #72]	; (800300c <prvInitialiseTaskLists+0x60>)
 8002fc4:	4413      	add	r3, r2
 8002fc6:	4618      	mov	r0, r3
 8002fc8:	f7fe fd24 	bl	8001a14 <vListInitialise>
	for( uxPriority = ( UBaseType_t ) 0U; uxPriority < ( UBaseType_t ) configMAX_PRIORITIES; uxPriority++ )
 8002fcc:	687b      	ldr	r3, [r7, #4]
 8002fce:	3301      	adds	r3, #1
 8002fd0:	607b      	str	r3, [r7, #4]
 8002fd2:	687b      	ldr	r3, [r7, #4]
 8002fd4:	2b37      	cmp	r3, #55	; 0x37
 8002fd6:	d9ef      	bls.n	8002fb8 <prvInitialiseTaskLists+0xc>
	}

	vListInitialise( &xDelayedTaskList1 );
 8002fd8:	480d      	ldr	r0, [pc, #52]	; (8003010 <prvInitialiseTaskLists+0x64>)
 8002fda:	f7fe fd1b 	bl	8001a14 <vListInitialise>
	vListInitialise( &xDelayedTaskList2 );
 8002fde:	480d      	ldr	r0, [pc, #52]	; (8003014 <prvInitialiseTaskLists+0x68>)
 8002fe0:	f7fe fd18 	bl	8001a14 <vListInitialise>
	vListInitialise( &xPendingReadyList );
 8002fe4:	480c      	ldr	r0, [pc, #48]	; (8003018 <prvInitialiseTaskLists+0x6c>)
 8002fe6:	f7fe fd15 	bl	8001a14 <vListInitialise>

	#if ( INCLUDE_vTaskDelete == 1 )
	{
		vListInitialise( &xTasksWaitingTermination );
 8002fea:	480c      	ldr	r0, [pc, #48]	; (800301c <prvInitialiseTaskLists+0x70>)
 8002fec:	f7fe fd12 	bl	8001a14 <vListInitialise>
	}
	#endif /* INCLUDE_vTaskDelete */

	#if ( INCLUDE_vTaskSuspend == 1 )
	{
		vListInitialise( &xSuspendedTaskList );
 8002ff0:	480b      	ldr	r0, [pc, #44]	; (8003020 <prvInitialiseTaskLists+0x74>)
 8002ff2:	f7fe fd0f 	bl	8001a14 <vListInitialise>
	}
	#endif /* INCLUDE_vTaskSuspend */

	/* Start with pxDelayedTaskList using list1 and the pxOverflowDelayedTaskList
	using list2. */
	pxDelayedTaskList = &xDelayedTaskList1;
 8002ff6:	4b0b      	ldr	r3, [pc, #44]	; (8003024 <prvInitialiseTaskLists+0x78>)
 8002ff8:	4a05      	ldr	r2, [pc, #20]	; (8003010 <prvInitialiseTaskLists+0x64>)
 8002ffa:	601a      	str	r2, [r3, #0]
	pxOverflowDelayedTaskList = &xDelayedTaskList2;
 8002ffc:	4b0a      	ldr	r3, [pc, #40]	; (8003028 <prvInitialiseTaskLists+0x7c>)
 8002ffe:	4a05      	ldr	r2, [pc, #20]	; (8003014 <prvInitialiseTaskLists+0x68>)
 8003000:	601a      	str	r2, [r3, #0]
}
 8003002:	bf00      	nop
 8003004:	3708      	adds	r7, #8
 8003006:	46bd      	mov	sp, r7
 8003008:	bd80      	pop	{r7, pc}
 800300a:	bf00      	nop
 800300c:	200006e8 	.word	0x200006e8
 8003010:	20000b48 	.word	0x20000b48
 8003014:	20000b5c 	.word	0x20000b5c
 8003018:	20000b78 	.word	0x20000b78
 800301c:	20000b8c 	.word	0x20000b8c
 8003020:	20000ba4 	.word	0x20000ba4
 8003024:	20000b70 	.word	0x20000b70
 8003028:	20000b74 	.word	0x20000b74

0800302c <prvCheckTasksWaitingTermination>:
/*-----------------------------------------------------------*/

static void prvCheckTasksWaitingTermination( void )
{
 800302c:	b580      	push	{r7, lr}
 800302e:	b082      	sub	sp, #8
 8003030:	af00      	add	r7, sp, #0
	{
		TCB_t *pxTCB;

		/* uxDeletedTasksWaitingCleanUp is used to prevent vTaskSuspendAll()
		being called too often in the idle task. */
		while( uxDeletedTasksWaitingCleanUp > ( UBaseType_t ) 0U )
 8003032:	e019      	b.n	8003068 <prvCheckTasksWaitingTermination+0x3c>
		{
			taskENTER_CRITICAL();
 8003034:	f000 fd48 	bl	8003ac8 <vPortEnterCritical>
			{
				pxTCB = ( TCB_t * ) listGET_OWNER_OF_HEAD_ENTRY( ( &xTasksWaitingTermination ) );
 8003038:	4b0f      	ldr	r3, [pc, #60]	; (8003078 <prvCheckTasksWaitingTermination+0x4c>)
 800303a:	68db      	ldr	r3, [r3, #12]
 800303c:	68db      	ldr	r3, [r3, #12]
 800303e:	607b      	str	r3, [r7, #4]
				( void ) uxListRemove( &( pxTCB->xStateListItem ) );
 8003040:	687b      	ldr	r3, [r7, #4]
 8003042:	3304      	adds	r3, #4
 8003044:	4618      	mov	r0, r3
 8003046:	f7fe fd6b 	bl	8001b20 <uxListRemove>
				--uxCurrentNumberOfTasks;
 800304a:	4b0c      	ldr	r3, [pc, #48]	; (800307c <prvCheckTasksWaitingTermination+0x50>)
 800304c:	681b      	ldr	r3, [r3, #0]
 800304e:	3b01      	subs	r3, #1
 8003050:	4a0a      	ldr	r2, [pc, #40]	; (800307c <prvCheckTasksWaitingTermination+0x50>)
 8003052:	6013      	str	r3, [r2, #0]
				--uxDeletedTasksWaitingCleanUp;
 8003054:	4b0a      	ldr	r3, [pc, #40]	; (8003080 <prvCheckTasksWaitingTermination+0x54>)
 8003056:	681b      	ldr	r3, [r3, #0]
 8003058:	3b01      	subs	r3, #1
 800305a:	4a09      	ldr	r2, [pc, #36]	; (8003080 <prvCheckTasksWaitingTermination+0x54>)
 800305c:	6013      	str	r3, [r2, #0]
			}
			taskEXIT_CRITICAL();
 800305e:	f000 fd61 	bl	8003b24 <vPortExitCritical>

			prvDeleteTCB( pxTCB );
 8003062:	6878      	ldr	r0, [r7, #4]
 8003064:	f000 f80e 	bl	8003084 <prvDeleteTCB>
		while( uxDeletedTasksWaitingCleanUp > ( UBaseType_t ) 0U )
 8003068:	4b05      	ldr	r3, [pc, #20]	; (8003080 <prvCheckTasksWaitingTermination+0x54>)
 800306a:	681b      	ldr	r3, [r3, #0]
 800306c:	2b00      	cmp	r3, #0
 800306e:	d1e1      	bne.n	8003034 <prvCheckTasksWaitingTermination+0x8>
		}
	}
	#endif /* INCLUDE_vTaskDelete */
}
 8003070:	bf00      	nop
 8003072:	3708      	adds	r7, #8
 8003074:	46bd      	mov	sp, r7
 8003076:	bd80      	pop	{r7, pc}
 8003078:	20000b8c 	.word	0x20000b8c
 800307c:	20000bb8 	.word	0x20000bb8
 8003080:	20000ba0 	.word	0x20000ba0

08003084 <prvDeleteTCB>:
/*-----------------------------------------------------------*/

#if ( INCLUDE_vTaskDelete == 1 )

	static void prvDeleteTCB( TCB_t *pxTCB )
	{
 8003084:	b580      	push	{r7, lr}
 8003086:	b084      	sub	sp, #16
 8003088:	af00      	add	r7, sp, #0
 800308a:	6078      	str	r0, [r7, #4]
		#elif( tskSTATIC_AND_DYNAMIC_ALLOCATION_POSSIBLE != 0 ) /*lint !e731 Macro has been consolidated for readability reasons. */
		{
			/* The task could have been allocated statically or dynamically, so
			check what was statically allocated before trying to free the
			memory. */
			if( pxTCB->ucStaticallyAllocated == tskDYNAMICALLY_ALLOCATED_STACK_AND_TCB )
 800308c:	687b      	ldr	r3, [r7, #4]
 800308e:	f893 3059 	ldrb.w	r3, [r3, #89]	; 0x59
 8003092:	2b00      	cmp	r3, #0
 8003094:	d108      	bne.n	80030a8 <prvDeleteTCB+0x24>
			{
				/* Both the stack and TCB were allocated dynamically, so both
				must be freed. */
				vPortFree( pxTCB->pxStack );
 8003096:	687b      	ldr	r3, [r7, #4]
 8003098:	6b1b      	ldr	r3, [r3, #48]	; 0x30
 800309a:	4618      	mov	r0, r3
 800309c:	f000 fecc 	bl	8003e38 <vPortFree>
				vPortFree( pxTCB );
 80030a0:	6878      	ldr	r0, [r7, #4]
 80030a2:	f000 fec9 	bl	8003e38 <vPortFree>
				configASSERT( pxTCB->ucStaticallyAllocated == tskSTATICALLY_ALLOCATED_STACK_AND_TCB	);
				mtCOVERAGE_TEST_MARKER();
			}
		}
		#endif /* configSUPPORT_DYNAMIC_ALLOCATION */
	}
 80030a6:	e017      	b.n	80030d8 <prvDeleteTCB+0x54>
			else if( pxTCB->ucStaticallyAllocated == tskSTATICALLY_ALLOCATED_STACK_ONLY )
 80030a8:	687b      	ldr	r3, [r7, #4]
 80030aa:	f893 3059 	ldrb.w	r3, [r3, #89]	; 0x59
 80030ae:	2b01      	cmp	r3, #1
 80030b0:	d103      	bne.n	80030ba <prvDeleteTCB+0x36>
				vPortFree( pxTCB );
 80030b2:	6878      	ldr	r0, [r7, #4]
 80030b4:	f000 fec0 	bl	8003e38 <vPortFree>
	}
 80030b8:	e00e      	b.n	80030d8 <prvDeleteTCB+0x54>
				configASSERT( pxTCB->ucStaticallyAllocated == tskSTATICALLY_ALLOCATED_STACK_AND_TCB	);
 80030ba:	687b      	ldr	r3, [r7, #4]
 80030bc:	f893 3059 	ldrb.w	r3, [r3, #89]	; 0x59
 80030c0:	2b02      	cmp	r3, #2
 80030c2:	d009      	beq.n	80030d8 <prvDeleteTCB+0x54>
 80030c4:	f04f 0350 	mov.w	r3, #80	; 0x50
 80030c8:	f383 8811 	msr	BASEPRI, r3
 80030cc:	f3bf 8f6f 	isb	sy
 80030d0:	f3bf 8f4f 	dsb	sy
 80030d4:	60fb      	str	r3, [r7, #12]
 80030d6:	e7fe      	b.n	80030d6 <prvDeleteTCB+0x52>
	}
 80030d8:	bf00      	nop
 80030da:	3710      	adds	r7, #16
 80030dc:	46bd      	mov	sp, r7
 80030de:	bd80      	pop	{r7, pc}

080030e0 <prvResetNextTaskUnblockTime>:

#endif /* INCLUDE_vTaskDelete */
/*-----------------------------------------------------------*/

static void prvResetNextTaskUnblockTime( void )
{
 80030e0:	b480      	push	{r7}
 80030e2:	b083      	sub	sp, #12
 80030e4:	af00      	add	r7, sp, #0
TCB_t *pxTCB;

	if( listLIST_IS_EMPTY( pxDelayedTaskList ) != pdFALSE )
 80030e6:	4b0e      	ldr	r3, [pc, #56]	; (8003120 <prvResetNextTaskUnblockTime+0x40>)
 80030e8:	681b      	ldr	r3, [r3, #0]
 80030ea:	681b      	ldr	r3, [r3, #0]
 80030ec:	2b00      	cmp	r3, #0
 80030ee:	d101      	bne.n	80030f4 <prvResetNextTaskUnblockTime+0x14>
 80030f0:	2301      	movs	r3, #1
 80030f2:	e000      	b.n	80030f6 <prvResetNextTaskUnblockTime+0x16>
 80030f4:	2300      	movs	r3, #0
 80030f6:	2b00      	cmp	r3, #0
 80030f8:	d004      	beq.n	8003104 <prvResetNextTaskUnblockTime+0x24>
	{
		/* The new current delayed list is empty.  Set xNextTaskUnblockTime to
		the maximum possible value so it is	extremely unlikely that the
		if( xTickCount >= xNextTaskUnblockTime ) test will pass until
		there is an item in the delayed list. */
		xNextTaskUnblockTime = portMAX_DELAY;
 80030fa:	4b0a      	ldr	r3, [pc, #40]	; (8003124 <prvResetNextTaskUnblockTime+0x44>)
 80030fc:	f04f 32ff 	mov.w	r2, #4294967295
 8003100:	601a      	str	r2, [r3, #0]
		which the task at the head of the delayed list should be removed
		from the Blocked state. */
		( pxTCB ) = ( TCB_t * ) listGET_OWNER_OF_HEAD_ENTRY( pxDelayedTaskList );
		xNextTaskUnblockTime = listGET_LIST_ITEM_VALUE( &( ( pxTCB )->xStateListItem ) );
	}
}
 8003102:	e008      	b.n	8003116 <prvResetNextTaskUnblockTime+0x36>
		( pxTCB ) = ( TCB_t * ) listGET_OWNER_OF_HEAD_ENTRY( pxDelayedTaskList );
 8003104:	4b06      	ldr	r3, [pc, #24]	; (8003120 <prvResetNextTaskUnblockTime+0x40>)
 8003106:	681b      	ldr	r3, [r3, #0]
 8003108:	68db      	ldr	r3, [r3, #12]
 800310a:	68db      	ldr	r3, [r3, #12]
 800310c:	607b      	str	r3, [r7, #4]
		xNextTaskUnblockTime = listGET_LIST_ITEM_VALUE( &( ( pxTCB )->xStateListItem ) );
 800310e:	687b      	ldr	r3, [r7, #4]
 8003110:	685b      	ldr	r3, [r3, #4]
 8003112:	4a04      	ldr	r2, [pc, #16]	; (8003124 <prvResetNextTaskUnblockTime+0x44>)
 8003114:	6013      	str	r3, [r2, #0]
}
 8003116:	bf00      	nop
 8003118:	370c      	adds	r7, #12
 800311a:	46bd      	mov	sp, r7
 800311c:	bc80      	pop	{r7}
 800311e:	4770      	bx	lr
 8003120:	20000b70 	.word	0x20000b70
 8003124:	20000bd8 	.word	0x20000bd8

08003128 <xTaskGetSchedulerState>:
/*-----------------------------------------------------------*/

#if ( ( INCLUDE_xTaskGetSchedulerState == 1 ) || ( configUSE_TIMERS == 1 ) )

	BaseType_t xTaskGetSchedulerState( void )
	{
 8003128:	b480      	push	{r7}
 800312a:	b083      	sub	sp, #12
 800312c:	af00      	add	r7, sp, #0
	BaseType_t xReturn;

		if( xSchedulerRunning == pdFALSE )
 800312e:	4b0b      	ldr	r3, [pc, #44]	; (800315c <xTaskGetSchedulerState+0x34>)
 8003130:	681b      	ldr	r3, [r3, #0]
 8003132:	2b00      	cmp	r3, #0
 8003134:	d102      	bne.n	800313c <xTaskGetSchedulerState+0x14>
		{
			xReturn = taskSCHEDULER_NOT_STARTED;
 8003136:	2301      	movs	r3, #1
 8003138:	607b      	str	r3, [r7, #4]
 800313a:	e008      	b.n	800314e <xTaskGetSchedulerState+0x26>
		}
		else
		{
			if( uxSchedulerSuspended == ( UBaseType_t ) pdFALSE )
 800313c:	4b08      	ldr	r3, [pc, #32]	; (8003160 <xTaskGetSchedulerState+0x38>)
 800313e:	681b      	ldr	r3, [r3, #0]
 8003140:	2b00      	cmp	r3, #0
 8003142:	d102      	bne.n	800314a <xTaskGetSchedulerState+0x22>
			{
				xReturn = taskSCHEDULER_RUNNING;
 8003144:	2302      	movs	r3, #2
 8003146:	607b      	str	r3, [r7, #4]
 8003148:	e001      	b.n	800314e <xTaskGetSchedulerState+0x26>
			}
			else
			{
				xReturn = taskSCHEDULER_SUSPENDED;
 800314a:	2300      	movs	r3, #0
 800314c:	607b      	str	r3, [r7, #4]
			}
		}

		return xReturn;
 800314e:	687b      	ldr	r3, [r7, #4]
	}
 8003150:	4618      	mov	r0, r3
 8003152:	370c      	adds	r7, #12
 8003154:	46bd      	mov	sp, r7
 8003156:	bc80      	pop	{r7}
 8003158:	4770      	bx	lr
 800315a:	bf00      	nop
 800315c:	20000bc4 	.word	0x20000bc4
 8003160:	20000be0 	.word	0x20000be0

08003164 <xTaskPriorityDisinherit>:
/*-----------------------------------------------------------*/

#if ( configUSE_MUTEXES == 1 )

	BaseType_t xTaskPriorityDisinherit( TaskHandle_t const pxMutexHolder )
	{
 8003164:	b580      	push	{r7, lr}
 8003166:	b086      	sub	sp, #24
 8003168:	af00      	add	r7, sp, #0
 800316a:	6078      	str	r0, [r7, #4]
	TCB_t * const pxTCB = ( TCB_t * ) pxMutexHolder;
 800316c:	687b      	ldr	r3, [r7, #4]
 800316e:	613b      	str	r3, [r7, #16]
	BaseType_t xReturn = pdFALSE;
 8003170:	2300      	movs	r3, #0
 8003172:	617b      	str	r3, [r7, #20]

		if( pxMutexHolder != NULL )
 8003174:	687b      	ldr	r3, [r7, #4]
 8003176:	2b00      	cmp	r3, #0
 8003178:	d054      	beq.n	8003224 <xTaskPriorityDisinherit+0xc0>
		{
			/* A task can only have an inherited priority if it holds the mutex.
			If the mutex is held by a task then it cannot be given from an
			interrupt, and if a mutex is given by the holding task then it must
			be the running state task. */
			configASSERT( pxTCB == pxCurrentTCB );
 800317a:	4b2d      	ldr	r3, [pc, #180]	; (8003230 <xTaskPriorityDisinherit+0xcc>)
 800317c:	681b      	ldr	r3, [r3, #0]
 800317e:	693a      	ldr	r2, [r7, #16]
 8003180:	429a      	cmp	r2, r3
 8003182:	d009      	beq.n	8003198 <xTaskPriorityDisinherit+0x34>
 8003184:	f04f 0350 	mov.w	r3, #80	; 0x50
 8003188:	f383 8811 	msr	BASEPRI, r3
 800318c:	f3bf 8f6f 	isb	sy
 8003190:	f3bf 8f4f 	dsb	sy
 8003194:	60fb      	str	r3, [r7, #12]
 8003196:	e7fe      	b.n	8003196 <xTaskPriorityDisinherit+0x32>
			configASSERT( pxTCB->uxMutexesHeld );
 8003198:	693b      	ldr	r3, [r7, #16]
 800319a:	6d1b      	ldr	r3, [r3, #80]	; 0x50
 800319c:	2b00      	cmp	r3, #0
 800319e:	d109      	bne.n	80031b4 <xTaskPriorityDisinherit+0x50>
 80031a0:	f04f 0350 	mov.w	r3, #80	; 0x50
 80031a4:	f383 8811 	msr	BASEPRI, r3
 80031a8:	f3bf 8f6f 	isb	sy
 80031ac:	f3bf 8f4f 	dsb	sy
 80031b0:	60bb      	str	r3, [r7, #8]
 80031b2:	e7fe      	b.n	80031b2 <xTaskPriorityDisinherit+0x4e>
			( pxTCB->uxMutexesHeld )--;
 80031b4:	693b      	ldr	r3, [r7, #16]
 80031b6:	6d1b      	ldr	r3, [r3, #80]	; 0x50
 80031b8:	1e5a      	subs	r2, r3, #1
 80031ba:	693b      	ldr	r3, [r7, #16]
 80031bc:	651a      	str	r2, [r3, #80]	; 0x50

			/* Has the holder of the mutex inherited the priority of another
			task? */
			if( pxTCB->uxPriority != pxTCB->uxBasePriority )
 80031be:	693b      	ldr	r3, [r7, #16]
 80031c0:	6ada      	ldr	r2, [r3, #44]	; 0x2c
 80031c2:	693b      	ldr	r3, [r7, #16]
 80031c4:	6cdb      	ldr	r3, [r3, #76]	; 0x4c
 80031c6:	429a      	cmp	r2, r3
 80031c8:	d02c      	beq.n	8003224 <xTaskPriorityDisinherit+0xc0>
			{
				/* Only disinherit if no other mutexes are held. */
				if( pxTCB->uxMutexesHeld == ( UBaseType_t ) 0 )
 80031ca:	693b      	ldr	r3, [r7, #16]
 80031cc:	6d1b      	ldr	r3, [r3, #80]	; 0x50
 80031ce:	2b00      	cmp	r3, #0
 80031d0:	d128      	bne.n	8003224 <xTaskPriorityDisinherit+0xc0>
					/* A task can only have an inherited priority if it holds
					the mutex.  If the mutex is held by a task then it cannot be
					given from an interrupt, and if a mutex is given by the
					holding task then it must be the running state task.  Remove
					the holding task from the ready list. */
					if( uxListRemove( &( pxTCB->xStateListItem ) ) == ( UBaseType_t ) 0 )
 80031d2:	693b      	ldr	r3, [r7, #16]
 80031d4:	3304      	adds	r3, #4
 80031d6:	4618      	mov	r0, r3
 80031d8:	f7fe fca2 	bl	8001b20 <uxListRemove>
					}

					/* Disinherit the priority before adding the task into the
					new	ready list. */
					traceTASK_PRIORITY_DISINHERIT( pxTCB, pxTCB->uxBasePriority );
					pxTCB->uxPriority = pxTCB->uxBasePriority;
 80031dc:	693b      	ldr	r3, [r7, #16]
 80031de:	6cda      	ldr	r2, [r3, #76]	; 0x4c
 80031e0:	693b      	ldr	r3, [r7, #16]
 80031e2:	62da      	str	r2, [r3, #44]	; 0x2c

					/* Reset the event list item value.  It cannot be in use for
					any other purpose if this task is running, and it must be
					running to give back the mutex. */
					listSET_LIST_ITEM_VALUE( &( pxTCB->xEventListItem ), ( TickType_t ) configMAX_PRIORITIES - ( TickType_t ) pxTCB->uxPriority ); /*lint !e961 MISRA exception as the casts are only redundant for some ports. */
 80031e4:	693b      	ldr	r3, [r7, #16]
 80031e6:	6adb      	ldr	r3, [r3, #44]	; 0x2c
 80031e8:	f1c3 0238 	rsb	r2, r3, #56	; 0x38
 80031ec:	693b      	ldr	r3, [r7, #16]
 80031ee:	619a      	str	r2, [r3, #24]
					prvAddTaskToReadyList( pxTCB );
 80031f0:	693b      	ldr	r3, [r7, #16]
 80031f2:	6ada      	ldr	r2, [r3, #44]	; 0x2c
 80031f4:	4b0f      	ldr	r3, [pc, #60]	; (8003234 <xTaskPriorityDisinherit+0xd0>)
 80031f6:	681b      	ldr	r3, [r3, #0]
 80031f8:	429a      	cmp	r2, r3
 80031fa:	d903      	bls.n	8003204 <xTaskPriorityDisinherit+0xa0>
 80031fc:	693b      	ldr	r3, [r7, #16]
 80031fe:	6adb      	ldr	r3, [r3, #44]	; 0x2c
 8003200:	4a0c      	ldr	r2, [pc, #48]	; (8003234 <xTaskPriorityDisinherit+0xd0>)
 8003202:	6013      	str	r3, [r2, #0]
 8003204:	693b      	ldr	r3, [r7, #16]
 8003206:	6ada      	ldr	r2, [r3, #44]	; 0x2c
 8003208:	4613      	mov	r3, r2
 800320a:	009b      	lsls	r3, r3, #2
 800320c:	4413      	add	r3, r2
 800320e:	009b      	lsls	r3, r3, #2
 8003210:	4a09      	ldr	r2, [pc, #36]	; (8003238 <xTaskPriorityDisinherit+0xd4>)
 8003212:	441a      	add	r2, r3
 8003214:	693b      	ldr	r3, [r7, #16]
 8003216:	3304      	adds	r3, #4
 8003218:	4619      	mov	r1, r3
 800321a:	4610      	mov	r0, r2
 800321c:	f7fe fc25 	bl	8001a6a <vListInsertEnd>
					in an order different to that in which they were taken.
					If a context switch did not occur when the first mutex was
					returned, even if a task was waiting on it, then a context
					switch should occur when the last mutex is returned whether
					a task is waiting on it or not. */
					xReturn = pdTRUE;
 8003220:	2301      	movs	r3, #1
 8003222:	617b      	str	r3, [r7, #20]
		else
		{
			mtCOVERAGE_TEST_MARKER();
		}

		return xReturn;
 8003224:	697b      	ldr	r3, [r7, #20]
	}
 8003226:	4618      	mov	r0, r3
 8003228:	3718      	adds	r7, #24
 800322a:	46bd      	mov	sp, r7
 800322c:	bd80      	pop	{r7, pc}
 800322e:	bf00      	nop
 8003230:	200006e4 	.word	0x200006e4
 8003234:	20000bc0 	.word	0x20000bc0
 8003238:	200006e8 	.word	0x200006e8

0800323c <prvAddCurrentTaskToDelayedList>:
#endif /* configUSE_TASK_NOTIFICATIONS */
/*-----------------------------------------------------------*/


static void prvAddCurrentTaskToDelayedList( TickType_t xTicksToWait, const BaseType_t xCanBlockIndefinitely )
{
 800323c:	b580      	push	{r7, lr}
 800323e:	b084      	sub	sp, #16
 8003240:	af00      	add	r7, sp, #0
 8003242:	6078      	str	r0, [r7, #4]
 8003244:	6039      	str	r1, [r7, #0]
TickType_t xTimeToWake;
const TickType_t xConstTickCount = xTickCount;
 8003246:	4b21      	ldr	r3, [pc, #132]	; (80032cc <prvAddCurrentTaskToDelayedList+0x90>)
 8003248:	681b      	ldr	r3, [r3, #0]
 800324a:	60fb      	str	r3, [r7, #12]
	}
	#endif

	/* Remove the task from the ready list before adding it to the blocked list
	as the same list item is used for both lists. */
	if( uxListRemove( &( pxCurrentTCB->xStateListItem ) ) == ( UBaseType_t ) 0 )
 800324c:	4b20      	ldr	r3, [pc, #128]	; (80032d0 <prvAddCurrentTaskToDelayedList+0x94>)
 800324e:	681b      	ldr	r3, [r3, #0]
 8003250:	3304      	adds	r3, #4
 8003252:	4618      	mov	r0, r3
 8003254:	f7fe fc64 	bl	8001b20 <uxListRemove>
		mtCOVERAGE_TEST_MARKER();
	}

	#if ( INCLUDE_vTaskSuspend == 1 )
	{
		if( ( xTicksToWait == portMAX_DELAY ) && ( xCanBlockIndefinitely != pdFALSE ) )
 8003258:	687b      	ldr	r3, [r7, #4]
 800325a:	f1b3 3fff 	cmp.w	r3, #4294967295
 800325e:	d10a      	bne.n	8003276 <prvAddCurrentTaskToDelayedList+0x3a>
 8003260:	683b      	ldr	r3, [r7, #0]
 8003262:	2b00      	cmp	r3, #0
 8003264:	d007      	beq.n	8003276 <prvAddCurrentTaskToDelayedList+0x3a>
		{
			/* Add the task to the suspended task list instead of a delayed task
			list to ensure it is not woken by a timing event.  It will block
			indefinitely. */
			vListInsertEnd( &xSuspendedTaskList, &( pxCurrentTCB->xStateListItem ) );
 8003266:	4b1a      	ldr	r3, [pc, #104]	; (80032d0 <prvAddCurrentTaskToDelayedList+0x94>)
 8003268:	681b      	ldr	r3, [r3, #0]
 800326a:	3304      	adds	r3, #4
 800326c:	4619      	mov	r1, r3
 800326e:	4819      	ldr	r0, [pc, #100]	; (80032d4 <prvAddCurrentTaskToDelayedList+0x98>)
 8003270:	f7fe fbfb 	bl	8001a6a <vListInsertEnd>

		/* Avoid compiler warning when INCLUDE_vTaskSuspend is not 1. */
		( void ) xCanBlockIndefinitely;
	}
	#endif /* INCLUDE_vTaskSuspend */
}
 8003274:	e026      	b.n	80032c4 <prvAddCurrentTaskToDelayedList+0x88>
			xTimeToWake = xConstTickCount + xTicksToWait;
 8003276:	68fa      	ldr	r2, [r7, #12]
 8003278:	687b      	ldr	r3, [r7, #4]
 800327a:	4413      	add	r3, r2
 800327c:	60bb      	str	r3, [r7, #8]
			listSET_LIST_ITEM_VALUE( &( pxCurrentTCB->xStateListItem ), xTimeToWake );
 800327e:	4b14      	ldr	r3, [pc, #80]	; (80032d0 <prvAddCurrentTaskToDelayedList+0x94>)
 8003280:	681b      	ldr	r3, [r3, #0]
 8003282:	68ba      	ldr	r2, [r7, #8]
 8003284:	605a      	str	r2, [r3, #4]
			if( xTimeToWake < xConstTickCount )
 8003286:	68ba      	ldr	r2, [r7, #8]
 8003288:	68fb      	ldr	r3, [r7, #12]
 800328a:	429a      	cmp	r2, r3
 800328c:	d209      	bcs.n	80032a2 <prvAddCurrentTaskToDelayedList+0x66>
				vListInsert( pxOverflowDelayedTaskList, &( pxCurrentTCB->xStateListItem ) );
 800328e:	4b12      	ldr	r3, [pc, #72]	; (80032d8 <prvAddCurrentTaskToDelayedList+0x9c>)
 8003290:	681a      	ldr	r2, [r3, #0]
 8003292:	4b0f      	ldr	r3, [pc, #60]	; (80032d0 <prvAddCurrentTaskToDelayedList+0x94>)
 8003294:	681b      	ldr	r3, [r3, #0]
 8003296:	3304      	adds	r3, #4
 8003298:	4619      	mov	r1, r3
 800329a:	4610      	mov	r0, r2
 800329c:	f7fe fc08 	bl	8001ab0 <vListInsert>
}
 80032a0:	e010      	b.n	80032c4 <prvAddCurrentTaskToDelayedList+0x88>
				vListInsert( pxDelayedTaskList, &( pxCurrentTCB->xStateListItem ) );
 80032a2:	4b0e      	ldr	r3, [pc, #56]	; (80032dc <prvAddCurrentTaskToDelayedList+0xa0>)
 80032a4:	681a      	ldr	r2, [r3, #0]
 80032a6:	4b0a      	ldr	r3, [pc, #40]	; (80032d0 <prvAddCurrentTaskToDelayedList+0x94>)
 80032a8:	681b      	ldr	r3, [r3, #0]
 80032aa:	3304      	adds	r3, #4
 80032ac:	4619      	mov	r1, r3
 80032ae:	4610      	mov	r0, r2
 80032b0:	f7fe fbfe 	bl	8001ab0 <vListInsert>
				if( xTimeToWake < xNextTaskUnblockTime )
 80032b4:	4b0a      	ldr	r3, [pc, #40]	; (80032e0 <prvAddCurrentTaskToDelayedList+0xa4>)
 80032b6:	681b      	ldr	r3, [r3, #0]
 80032b8:	68ba      	ldr	r2, [r7, #8]
 80032ba:	429a      	cmp	r2, r3
 80032bc:	d202      	bcs.n	80032c4 <prvAddCurrentTaskToDelayedList+0x88>
					xNextTaskUnblockTime = xTimeToWake;
 80032be:	4a08      	ldr	r2, [pc, #32]	; (80032e0 <prvAddCurrentTaskToDelayedList+0xa4>)
 80032c0:	68bb      	ldr	r3, [r7, #8]
 80032c2:	6013      	str	r3, [r2, #0]
}
 80032c4:	bf00      	nop
 80032c6:	3710      	adds	r7, #16
 80032c8:	46bd      	mov	sp, r7
 80032ca:	bd80      	pop	{r7, pc}
 80032cc:	20000bbc 	.word	0x20000bbc
 80032d0:	200006e4 	.word	0x200006e4
 80032d4:	20000ba4 	.word	0x20000ba4
 80032d8:	20000b74 	.word	0x20000b74
 80032dc:	20000b70 	.word	0x20000b70
 80032e0:	20000bd8 	.word	0x20000bd8

080032e4 <xTimerCreateTimerTask>:
									TimerCallbackFunction_t pxCallbackFunction,
									Timer_t *pxNewTimer ) PRIVILEGED_FUNCTION;
/*-----------------------------------------------------------*/

BaseType_t xTimerCreateTimerTask( void )
{
 80032e4:	b580      	push	{r7, lr}
 80032e6:	b08a      	sub	sp, #40	; 0x28
 80032e8:	af04      	add	r7, sp, #16
BaseType_t xReturn = pdFAIL;
 80032ea:	2300      	movs	r3, #0
 80032ec:	617b      	str	r3, [r7, #20]

	/* This function is called when the scheduler is started if
	configUSE_TIMERS is set to 1.  Check that the infrastructure used by the
	timer service task has been created/initialised.  If timers have already
	been created then the initialisation will already have been performed. */
	prvCheckForValidListAndQueue();
 80032ee:	f000 fac3 	bl	8003878 <prvCheckForValidListAndQueue>

	if( xTimerQueue != NULL )
 80032f2:	4b1c      	ldr	r3, [pc, #112]	; (8003364 <xTimerCreateTimerTask+0x80>)
 80032f4:	681b      	ldr	r3, [r3, #0]
 80032f6:	2b00      	cmp	r3, #0
 80032f8:	d021      	beq.n	800333e <xTimerCreateTimerTask+0x5a>
	{
		#if( configSUPPORT_STATIC_ALLOCATION == 1 )
		{
			StaticTask_t *pxTimerTaskTCBBuffer = NULL;
 80032fa:	2300      	movs	r3, #0
 80032fc:	60fb      	str	r3, [r7, #12]
			StackType_t *pxTimerTaskStackBuffer = NULL;
 80032fe:	2300      	movs	r3, #0
 8003300:	60bb      	str	r3, [r7, #8]
			uint32_t ulTimerTaskStackSize;

			vApplicationGetTimerTaskMemory( &pxTimerTaskTCBBuffer, &pxTimerTaskStackBuffer, &ulTimerTaskStackSize );
 8003302:	1d3a      	adds	r2, r7, #4
 8003304:	f107 0108 	add.w	r1, r7, #8
 8003308:	f107 030c 	add.w	r3, r7, #12
 800330c:	4618      	mov	r0, r3
 800330e:	f7fe fb67 	bl	80019e0 <vApplicationGetTimerTaskMemory>
			xTimerTaskHandle = xTaskCreateStatic(	prvTimerTask,
 8003312:	6879      	ldr	r1, [r7, #4]
 8003314:	68bb      	ldr	r3, [r7, #8]
 8003316:	68fa      	ldr	r2, [r7, #12]
 8003318:	9202      	str	r2, [sp, #8]
 800331a:	9301      	str	r3, [sp, #4]
 800331c:	2302      	movs	r3, #2
 800331e:	9300      	str	r3, [sp, #0]
 8003320:	2300      	movs	r3, #0
 8003322:	460a      	mov	r2, r1
 8003324:	4910      	ldr	r1, [pc, #64]	; (8003368 <xTimerCreateTimerTask+0x84>)
 8003326:	4811      	ldr	r0, [pc, #68]	; (800336c <xTimerCreateTimerTask+0x88>)
 8003328:	f7ff f8f8 	bl	800251c <xTaskCreateStatic>
 800332c:	4602      	mov	r2, r0
 800332e:	4b10      	ldr	r3, [pc, #64]	; (8003370 <xTimerCreateTimerTask+0x8c>)
 8003330:	601a      	str	r2, [r3, #0]
													NULL,
													( ( UBaseType_t ) configTIMER_TASK_PRIORITY ) | portPRIVILEGE_BIT,
													pxTimerTaskStackBuffer,
													pxTimerTaskTCBBuffer );

			if( xTimerTaskHandle != NULL )
 8003332:	4b0f      	ldr	r3, [pc, #60]	; (8003370 <xTimerCreateTimerTask+0x8c>)
 8003334:	681b      	ldr	r3, [r3, #0]
 8003336:	2b00      	cmp	r3, #0
 8003338:	d001      	beq.n	800333e <xTimerCreateTimerTask+0x5a>
			{
				xReturn = pdPASS;
 800333a:	2301      	movs	r3, #1
 800333c:	617b      	str	r3, [r7, #20]
	else
	{
		mtCOVERAGE_TEST_MARKER();
	}

	configASSERT( xReturn );
 800333e:	697b      	ldr	r3, [r7, #20]
 8003340:	2b00      	cmp	r3, #0
 8003342:	d109      	bne.n	8003358 <xTimerCreateTimerTask+0x74>
 8003344:	f04f 0350 	mov.w	r3, #80	; 0x50
 8003348:	f383 8811 	msr	BASEPRI, r3
 800334c:	f3bf 8f6f 	isb	sy
 8003350:	f3bf 8f4f 	dsb	sy
 8003354:	613b      	str	r3, [r7, #16]
 8003356:	e7fe      	b.n	8003356 <xTimerCreateTimerTask+0x72>
	return xReturn;
 8003358:	697b      	ldr	r3, [r7, #20]
}
 800335a:	4618      	mov	r0, r3
 800335c:	3718      	adds	r7, #24
 800335e:	46bd      	mov	sp, r7
 8003360:	bd80      	pop	{r7, pc}
 8003362:	bf00      	nop
 8003364:	20000c14 	.word	0x20000c14
 8003368:	08004100 	.word	0x08004100
 800336c:	0800348d 	.word	0x0800348d
 8003370:	20000c18 	.word	0x20000c18

08003374 <xTimerGenericCommand>:
	}
}
/*-----------------------------------------------------------*/

BaseType_t xTimerGenericCommand( TimerHandle_t xTimer, const BaseType_t xCommandID, const TickType_t xOptionalValue, BaseType_t * const pxHigherPriorityTaskWoken, const TickType_t xTicksToWait )
{
 8003374:	b580      	push	{r7, lr}
 8003376:	b08a      	sub	sp, #40	; 0x28
 8003378:	af00      	add	r7, sp, #0
 800337a:	60f8      	str	r0, [r7, #12]
 800337c:	60b9      	str	r1, [r7, #8]
 800337e:	607a      	str	r2, [r7, #4]
 8003380:	603b      	str	r3, [r7, #0]
BaseType_t xReturn = pdFAIL;
 8003382:	2300      	movs	r3, #0
 8003384:	627b      	str	r3, [r7, #36]	; 0x24
DaemonTaskMessage_t xMessage;

	configASSERT( xTimer );
 8003386:	68fb      	ldr	r3, [r7, #12]
 8003388:	2b00      	cmp	r3, #0
 800338a:	d109      	bne.n	80033a0 <xTimerGenericCommand+0x2c>
 800338c:	f04f 0350 	mov.w	r3, #80	; 0x50
 8003390:	f383 8811 	msr	BASEPRI, r3
 8003394:	f3bf 8f6f 	isb	sy
 8003398:	f3bf 8f4f 	dsb	sy
 800339c:	623b      	str	r3, [r7, #32]
 800339e:	e7fe      	b.n	800339e <xTimerGenericCommand+0x2a>

	/* Send a message to the timer service task to perform a particular action
	on a particular timer definition. */
	if( xTimerQueue != NULL )
 80033a0:	4b19      	ldr	r3, [pc, #100]	; (8003408 <xTimerGenericCommand+0x94>)
 80033a2:	681b      	ldr	r3, [r3, #0]
 80033a4:	2b00      	cmp	r3, #0
 80033a6:	d02a      	beq.n	80033fe <xTimerGenericCommand+0x8a>
	{
		/* Send a command to the timer service task to start the xTimer timer. */
		xMessage.xMessageID = xCommandID;
 80033a8:	68bb      	ldr	r3, [r7, #8]
 80033aa:	613b      	str	r3, [r7, #16]
		xMessage.u.xTimerParameters.xMessageValue = xOptionalValue;
 80033ac:	687b      	ldr	r3, [r7, #4]
 80033ae:	617b      	str	r3, [r7, #20]
		xMessage.u.xTimerParameters.pxTimer = ( Timer_t * ) xTimer;
 80033b0:	68fb      	ldr	r3, [r7, #12]
 80033b2:	61bb      	str	r3, [r7, #24]

		if( xCommandID < tmrFIRST_FROM_ISR_COMMAND )
 80033b4:	68bb      	ldr	r3, [r7, #8]
 80033b6:	2b05      	cmp	r3, #5
 80033b8:	dc18      	bgt.n	80033ec <xTimerGenericCommand+0x78>
		{
			if( xTaskGetSchedulerState() == taskSCHEDULER_RUNNING )
 80033ba:	f7ff feb5 	bl	8003128 <xTaskGetSchedulerState>
 80033be:	4603      	mov	r3, r0
 80033c0:	2b02      	cmp	r3, #2
 80033c2:	d109      	bne.n	80033d8 <xTimerGenericCommand+0x64>
			{
				xReturn = xQueueSendToBack( xTimerQueue, &xMessage, xTicksToWait );
 80033c4:	4b10      	ldr	r3, [pc, #64]	; (8003408 <xTimerGenericCommand+0x94>)
 80033c6:	6818      	ldr	r0, [r3, #0]
 80033c8:	f107 0110 	add.w	r1, r7, #16
 80033cc:	2300      	movs	r3, #0
 80033ce:	6b3a      	ldr	r2, [r7, #48]	; 0x30
 80033d0:	f7fe fcce 	bl	8001d70 <xQueueGenericSend>
 80033d4:	6278      	str	r0, [r7, #36]	; 0x24
 80033d6:	e012      	b.n	80033fe <xTimerGenericCommand+0x8a>
			}
			else
			{
				xReturn = xQueueSendToBack( xTimerQueue, &xMessage, tmrNO_DELAY );
 80033d8:	4b0b      	ldr	r3, [pc, #44]	; (8003408 <xTimerGenericCommand+0x94>)
 80033da:	6818      	ldr	r0, [r3, #0]
 80033dc:	f107 0110 	add.w	r1, r7, #16
 80033e0:	2300      	movs	r3, #0
 80033e2:	2200      	movs	r2, #0
 80033e4:	f7fe fcc4 	bl	8001d70 <xQueueGenericSend>
 80033e8:	6278      	str	r0, [r7, #36]	; 0x24
 80033ea:	e008      	b.n	80033fe <xTimerGenericCommand+0x8a>
			}
		}
		else
		{
			xReturn = xQueueSendToBackFromISR( xTimerQueue, &xMessage, pxHigherPriorityTaskWoken );
 80033ec:	4b06      	ldr	r3, [pc, #24]	; (8003408 <xTimerGenericCommand+0x94>)
 80033ee:	6818      	ldr	r0, [r3, #0]
 80033f0:	f107 0110 	add.w	r1, r7, #16
 80033f4:	2300      	movs	r3, #0
 80033f6:	683a      	ldr	r2, [r7, #0]
 80033f8:	f7fe fdb4 	bl	8001f64 <xQueueGenericSendFromISR>
 80033fc:	6278      	str	r0, [r7, #36]	; 0x24
	else
	{
		mtCOVERAGE_TEST_MARKER();
	}

	return xReturn;
 80033fe:	6a7b      	ldr	r3, [r7, #36]	; 0x24
}
 8003400:	4618      	mov	r0, r3
 8003402:	3728      	adds	r7, #40	; 0x28
 8003404:	46bd      	mov	sp, r7
 8003406:	bd80      	pop	{r7, pc}
 8003408:	20000c14 	.word	0x20000c14

0800340c <prvProcessExpiredTimer>:
	return pxTimer->pcTimerName;
}
/*-----------------------------------------------------------*/

static void prvProcessExpiredTimer( const TickType_t xNextExpireTime, const TickType_t xTimeNow )
{
 800340c:	b580      	push	{r7, lr}
 800340e:	b088      	sub	sp, #32
 8003410:	af02      	add	r7, sp, #8
 8003412:	6078      	str	r0, [r7, #4]
 8003414:	6039      	str	r1, [r7, #0]
BaseType_t xResult;
Timer_t * const pxTimer = ( Timer_t * ) listGET_OWNER_OF_HEAD_ENTRY( pxCurrentTimerList );
 8003416:	4b1c      	ldr	r3, [pc, #112]	; (8003488 <prvProcessExpiredTimer+0x7c>)
 8003418:	681b      	ldr	r3, [r3, #0]
 800341a:	68db      	ldr	r3, [r3, #12]
 800341c:	68db      	ldr	r3, [r3, #12]
 800341e:	617b      	str	r3, [r7, #20]

	/* Remove the timer from the list of active timers.  A check has already
	been performed to ensure the list is not empty. */
	( void ) uxListRemove( &( pxTimer->xTimerListItem ) );
 8003420:	697b      	ldr	r3, [r7, #20]
 8003422:	3304      	adds	r3, #4
 8003424:	4618      	mov	r0, r3
 8003426:	f7fe fb7b 	bl	8001b20 <uxListRemove>
	traceTIMER_EXPIRED( pxTimer );

	/* If the timer is an auto reload timer then calculate the next
	expiry time and re-insert the timer in the list of active timers. */
	if( pxTimer->uxAutoReload == ( UBaseType_t ) pdTRUE )
 800342a:	697b      	ldr	r3, [r7, #20]
 800342c:	69db      	ldr	r3, [r3, #28]
 800342e:	2b01      	cmp	r3, #1
 8003430:	d121      	bne.n	8003476 <prvProcessExpiredTimer+0x6a>
	{
		/* The timer is inserted into a list using a time relative to anything
		other than the current time.  It will therefore be inserted into the
		correct list relative to the time this task thinks it is now. */
		if( prvInsertTimerInActiveList( pxTimer, ( xNextExpireTime + pxTimer->xTimerPeriodInTicks ), xTimeNow, xNextExpireTime ) != pdFALSE )
 8003432:	697b      	ldr	r3, [r7, #20]
 8003434:	699a      	ldr	r2, [r3, #24]
 8003436:	687b      	ldr	r3, [r7, #4]
 8003438:	18d1      	adds	r1, r2, r3
 800343a:	687b      	ldr	r3, [r7, #4]
 800343c:	683a      	ldr	r2, [r7, #0]
 800343e:	6978      	ldr	r0, [r7, #20]
 8003440:	f000 f8c8 	bl	80035d4 <prvInsertTimerInActiveList>
 8003444:	4603      	mov	r3, r0
 8003446:	2b00      	cmp	r3, #0
 8003448:	d015      	beq.n	8003476 <prvProcessExpiredTimer+0x6a>
		{
			/* The timer expired before it was added to the active timer
			list.  Reload it now.  */
			xResult = xTimerGenericCommand( pxTimer, tmrCOMMAND_START_DONT_TRACE, xNextExpireTime, NULL, tmrNO_DELAY );
 800344a:	2300      	movs	r3, #0
 800344c:	9300      	str	r3, [sp, #0]
 800344e:	2300      	movs	r3, #0
 8003450:	687a      	ldr	r2, [r7, #4]
 8003452:	2100      	movs	r1, #0
 8003454:	6978      	ldr	r0, [r7, #20]
 8003456:	f7ff ff8d 	bl	8003374 <xTimerGenericCommand>
 800345a:	6138      	str	r0, [r7, #16]
			configASSERT( xResult );
 800345c:	693b      	ldr	r3, [r7, #16]
 800345e:	2b00      	cmp	r3, #0
 8003460:	d109      	bne.n	8003476 <prvProcessExpiredTimer+0x6a>
 8003462:	f04f 0350 	mov.w	r3, #80	; 0x50
 8003466:	f383 8811 	msr	BASEPRI, r3
 800346a:	f3bf 8f6f 	isb	sy
 800346e:	f3bf 8f4f 	dsb	sy
 8003472:	60fb      	str	r3, [r7, #12]
 8003474:	e7fe      	b.n	8003474 <prvProcessExpiredTimer+0x68>
	{
		mtCOVERAGE_TEST_MARKER();
	}

	/* Call the timer callback. */
	pxTimer->pxCallbackFunction( ( TimerHandle_t ) pxTimer );
 8003476:	697b      	ldr	r3, [r7, #20]
 8003478:	6a5b      	ldr	r3, [r3, #36]	; 0x24
 800347a:	6978      	ldr	r0, [r7, #20]
 800347c:	4798      	blx	r3
}
 800347e:	bf00      	nop
 8003480:	3718      	adds	r7, #24
 8003482:	46bd      	mov	sp, r7
 8003484:	bd80      	pop	{r7, pc}
 8003486:	bf00      	nop
 8003488:	20000c0c 	.word	0x20000c0c

0800348c <prvTimerTask>:
/*-----------------------------------------------------------*/

static void prvTimerTask( void *pvParameters )
{
 800348c:	b580      	push	{r7, lr}
 800348e:	b084      	sub	sp, #16
 8003490:	af00      	add	r7, sp, #0
 8003492:	6078      	str	r0, [r7, #4]

	for( ;; )
	{
		/* Query the timers list to see if it contains any timers, and if so,
		obtain the time at which the next timer will expire. */
		xNextExpireTime = prvGetNextExpireTime( &xListWasEmpty );
 8003494:	f107 0308 	add.w	r3, r7, #8
 8003498:	4618      	mov	r0, r3
 800349a:	f000 f857 	bl	800354c <prvGetNextExpireTime>
 800349e:	60f8      	str	r0, [r7, #12]

		/* If a timer has expired, process it.  Otherwise, block this task
		until either a timer does expire, or a command is received. */
		prvProcessTimerOrBlockTask( xNextExpireTime, xListWasEmpty );
 80034a0:	68bb      	ldr	r3, [r7, #8]
 80034a2:	4619      	mov	r1, r3
 80034a4:	68f8      	ldr	r0, [r7, #12]
 80034a6:	f000 f803 	bl	80034b0 <prvProcessTimerOrBlockTask>

		/* Empty the command queue. */
		prvProcessReceivedCommands();
 80034aa:	f000 f8d5 	bl	8003658 <prvProcessReceivedCommands>
		xNextExpireTime = prvGetNextExpireTime( &xListWasEmpty );
 80034ae:	e7f1      	b.n	8003494 <prvTimerTask+0x8>

080034b0 <prvProcessTimerOrBlockTask>:
	}
}
/*-----------------------------------------------------------*/

static void prvProcessTimerOrBlockTask( const TickType_t xNextExpireTime, BaseType_t xListWasEmpty )
{
 80034b0:	b580      	push	{r7, lr}
 80034b2:	b084      	sub	sp, #16
 80034b4:	af00      	add	r7, sp, #0
 80034b6:	6078      	str	r0, [r7, #4]
 80034b8:	6039      	str	r1, [r7, #0]
TickType_t xTimeNow;
BaseType_t xTimerListsWereSwitched;

	vTaskSuspendAll();
 80034ba:	f7ff fa5b 	bl	8002974 <vTaskSuspendAll>
		/* Obtain the time now to make an assessment as to whether the timer
		has expired or not.  If obtaining the time causes the lists to switch
		then don't process this timer as any timers that remained in the list
		when the lists were switched will have been processed within the
		prvSampleTimeNow() function. */
		xTimeNow = prvSampleTimeNow( &xTimerListsWereSwitched );
 80034be:	f107 0308 	add.w	r3, r7, #8
 80034c2:	4618      	mov	r0, r3
 80034c4:	f000 f866 	bl	8003594 <prvSampleTimeNow>
 80034c8:	60f8      	str	r0, [r7, #12]
		if( xTimerListsWereSwitched == pdFALSE )
 80034ca:	68bb      	ldr	r3, [r7, #8]
 80034cc:	2b00      	cmp	r3, #0
 80034ce:	d130      	bne.n	8003532 <prvProcessTimerOrBlockTask+0x82>
		{
			/* The tick count has not overflowed, has the timer expired? */
			if( ( xListWasEmpty == pdFALSE ) && ( xNextExpireTime <= xTimeNow ) )
 80034d0:	683b      	ldr	r3, [r7, #0]
 80034d2:	2b00      	cmp	r3, #0
 80034d4:	d10a      	bne.n	80034ec <prvProcessTimerOrBlockTask+0x3c>
 80034d6:	687a      	ldr	r2, [r7, #4]
 80034d8:	68fb      	ldr	r3, [r7, #12]
 80034da:	429a      	cmp	r2, r3
 80034dc:	d806      	bhi.n	80034ec <prvProcessTimerOrBlockTask+0x3c>
			{
				( void ) xTaskResumeAll();
 80034de:	f7ff fa57 	bl	8002990 <xTaskResumeAll>
				prvProcessExpiredTimer( xNextExpireTime, xTimeNow );
 80034e2:	68f9      	ldr	r1, [r7, #12]
 80034e4:	6878      	ldr	r0, [r7, #4]
 80034e6:	f7ff ff91 	bl	800340c <prvProcessExpiredTimer>
		else
		{
			( void ) xTaskResumeAll();
		}
	}
}
 80034ea:	e024      	b.n	8003536 <prvProcessTimerOrBlockTask+0x86>
				if( xListWasEmpty != pdFALSE )
 80034ec:	683b      	ldr	r3, [r7, #0]
 80034ee:	2b00      	cmp	r3, #0
 80034f0:	d008      	beq.n	8003504 <prvProcessTimerOrBlockTask+0x54>
					xListWasEmpty = listLIST_IS_EMPTY( pxOverflowTimerList );
 80034f2:	4b13      	ldr	r3, [pc, #76]	; (8003540 <prvProcessTimerOrBlockTask+0x90>)
 80034f4:	681b      	ldr	r3, [r3, #0]
 80034f6:	681b      	ldr	r3, [r3, #0]
 80034f8:	2b00      	cmp	r3, #0
 80034fa:	bf0c      	ite	eq
 80034fc:	2301      	moveq	r3, #1
 80034fe:	2300      	movne	r3, #0
 8003500:	b2db      	uxtb	r3, r3
 8003502:	603b      	str	r3, [r7, #0]
				vQueueWaitForMessageRestricted( xTimerQueue, ( xNextExpireTime - xTimeNow ), xListWasEmpty );
 8003504:	4b0f      	ldr	r3, [pc, #60]	; (8003544 <prvProcessTimerOrBlockTask+0x94>)
 8003506:	6818      	ldr	r0, [r3, #0]
 8003508:	687a      	ldr	r2, [r7, #4]
 800350a:	68fb      	ldr	r3, [r7, #12]
 800350c:	1ad3      	subs	r3, r2, r3
 800350e:	683a      	ldr	r2, [r7, #0]
 8003510:	4619      	mov	r1, r3
 8003512:	f7fe ffcf 	bl	80024b4 <vQueueWaitForMessageRestricted>
				if( xTaskResumeAll() == pdFALSE )
 8003516:	f7ff fa3b 	bl	8002990 <xTaskResumeAll>
 800351a:	4603      	mov	r3, r0
 800351c:	2b00      	cmp	r3, #0
 800351e:	d10a      	bne.n	8003536 <prvProcessTimerOrBlockTask+0x86>
					portYIELD_WITHIN_API();
 8003520:	4b09      	ldr	r3, [pc, #36]	; (8003548 <prvProcessTimerOrBlockTask+0x98>)
 8003522:	f04f 5280 	mov.w	r2, #268435456	; 0x10000000
 8003526:	601a      	str	r2, [r3, #0]
 8003528:	f3bf 8f4f 	dsb	sy
 800352c:	f3bf 8f6f 	isb	sy
}
 8003530:	e001      	b.n	8003536 <prvProcessTimerOrBlockTask+0x86>
			( void ) xTaskResumeAll();
 8003532:	f7ff fa2d 	bl	8002990 <xTaskResumeAll>
}
 8003536:	bf00      	nop
 8003538:	3710      	adds	r7, #16
 800353a:	46bd      	mov	sp, r7
 800353c:	bd80      	pop	{r7, pc}
 800353e:	bf00      	nop
 8003540:	20000c10 	.word	0x20000c10
 8003544:	20000c14 	.word	0x20000c14
 8003548:	e000ed04 	.word	0xe000ed04

0800354c <prvGetNextExpireTime>:
/*-----------------------------------------------------------*/

static TickType_t prvGetNextExpireTime( BaseType_t * const pxListWasEmpty )
{
 800354c:	b480      	push	{r7}
 800354e:	b085      	sub	sp, #20
 8003550:	af00      	add	r7, sp, #0
 8003552:	6078      	str	r0, [r7, #4]
	the timer with the nearest expiry time will expire.  If there are no
	active timers then just set the next expire time to 0.  That will cause
	this task to unblock when the tick count overflows, at which point the
	timer lists will be switched and the next expiry time can be
	re-assessed.  */
	*pxListWasEmpty = listLIST_IS_EMPTY( pxCurrentTimerList );
 8003554:	4b0e      	ldr	r3, [pc, #56]	; (8003590 <prvGetNextExpireTime+0x44>)
 8003556:	681b      	ldr	r3, [r3, #0]
 8003558:	681b      	ldr	r3, [r3, #0]
 800355a:	2b00      	cmp	r3, #0
 800355c:	bf0c      	ite	eq
 800355e:	2301      	moveq	r3, #1
 8003560:	2300      	movne	r3, #0
 8003562:	b2db      	uxtb	r3, r3
 8003564:	461a      	mov	r2, r3
 8003566:	687b      	ldr	r3, [r7, #4]
 8003568:	601a      	str	r2, [r3, #0]
	if( *pxListWasEmpty == pdFALSE )
 800356a:	687b      	ldr	r3, [r7, #4]
 800356c:	681b      	ldr	r3, [r3, #0]
 800356e:	2b00      	cmp	r3, #0
 8003570:	d105      	bne.n	800357e <prvGetNextExpireTime+0x32>
	{
		xNextExpireTime = listGET_ITEM_VALUE_OF_HEAD_ENTRY( pxCurrentTimerList );
 8003572:	4b07      	ldr	r3, [pc, #28]	; (8003590 <prvGetNextExpireTime+0x44>)
 8003574:	681b      	ldr	r3, [r3, #0]
 8003576:	68db      	ldr	r3, [r3, #12]
 8003578:	681b      	ldr	r3, [r3, #0]
 800357a:	60fb      	str	r3, [r7, #12]
 800357c:	e001      	b.n	8003582 <prvGetNextExpireTime+0x36>
	}
	else
	{
		/* Ensure the task unblocks when the tick count rolls over. */
		xNextExpireTime = ( TickType_t ) 0U;
 800357e:	2300      	movs	r3, #0
 8003580:	60fb      	str	r3, [r7, #12]
	}

	return xNextExpireTime;
 8003582:	68fb      	ldr	r3, [r7, #12]
}
 8003584:	4618      	mov	r0, r3
 8003586:	3714      	adds	r7, #20
 8003588:	46bd      	mov	sp, r7
 800358a:	bc80      	pop	{r7}
 800358c:	4770      	bx	lr
 800358e:	bf00      	nop
 8003590:	20000c0c 	.word	0x20000c0c

08003594 <prvSampleTimeNow>:
/*-----------------------------------------------------------*/

static TickType_t prvSampleTimeNow( BaseType_t * const pxTimerListsWereSwitched )
{
 8003594:	b580      	push	{r7, lr}
 8003596:	b084      	sub	sp, #16
 8003598:	af00      	add	r7, sp, #0
 800359a:	6078      	str	r0, [r7, #4]
TickType_t xTimeNow;
PRIVILEGED_DATA static TickType_t xLastTime = ( TickType_t ) 0U; /*lint !e956 Variable is only accessible to one task. */

	xTimeNow = xTaskGetTickCount();
 800359c:	f7ff fa94 	bl	8002ac8 <xTaskGetTickCount>
 80035a0:	60f8      	str	r0, [r7, #12]

	if( xTimeNow < xLastTime )
 80035a2:	4b0b      	ldr	r3, [pc, #44]	; (80035d0 <prvSampleTimeNow+0x3c>)
 80035a4:	681b      	ldr	r3, [r3, #0]
 80035a6:	68fa      	ldr	r2, [r7, #12]
 80035a8:	429a      	cmp	r2, r3
 80035aa:	d205      	bcs.n	80035b8 <prvSampleTimeNow+0x24>
	{
		prvSwitchTimerLists();
 80035ac:	f000 f904 	bl	80037b8 <prvSwitchTimerLists>
		*pxTimerListsWereSwitched = pdTRUE;
 80035b0:	687b      	ldr	r3, [r7, #4]
 80035b2:	2201      	movs	r2, #1
 80035b4:	601a      	str	r2, [r3, #0]
 80035b6:	e002      	b.n	80035be <prvSampleTimeNow+0x2a>
	}
	else
	{
		*pxTimerListsWereSwitched = pdFALSE;
 80035b8:	687b      	ldr	r3, [r7, #4]
 80035ba:	2200      	movs	r2, #0
 80035bc:	601a      	str	r2, [r3, #0]
	}

	xLastTime = xTimeNow;
 80035be:	4a04      	ldr	r2, [pc, #16]	; (80035d0 <prvSampleTimeNow+0x3c>)
 80035c0:	68fb      	ldr	r3, [r7, #12]
 80035c2:	6013      	str	r3, [r2, #0]

	return xTimeNow;
 80035c4:	68fb      	ldr	r3, [r7, #12]
}
 80035c6:	4618      	mov	r0, r3
 80035c8:	3710      	adds	r7, #16
 80035ca:	46bd      	mov	sp, r7
 80035cc:	bd80      	pop	{r7, pc}
 80035ce:	bf00      	nop
 80035d0:	20000c1c 	.word	0x20000c1c

080035d4 <prvInsertTimerInActiveList>:
/*-----------------------------------------------------------*/

static BaseType_t prvInsertTimerInActiveList( Timer_t * const pxTimer, const TickType_t xNextExpiryTime, const TickType_t xTimeNow, const TickType_t xCommandTime )
{
 80035d4:	b580      	push	{r7, lr}
 80035d6:	b086      	sub	sp, #24
 80035d8:	af00      	add	r7, sp, #0
 80035da:	60f8      	str	r0, [r7, #12]
 80035dc:	60b9      	str	r1, [r7, #8]
 80035de:	607a      	str	r2, [r7, #4]
 80035e0:	603b      	str	r3, [r7, #0]
BaseType_t xProcessTimerNow = pdFALSE;
 80035e2:	2300      	movs	r3, #0
 80035e4:	617b      	str	r3, [r7, #20]

	listSET_LIST_ITEM_VALUE( &( pxTimer->xTimerListItem ), xNextExpiryTime );
 80035e6:	68fb      	ldr	r3, [r7, #12]
 80035e8:	68ba      	ldr	r2, [r7, #8]
 80035ea:	605a      	str	r2, [r3, #4]
	listSET_LIST_ITEM_OWNER( &( pxTimer->xTimerListItem ), pxTimer );
 80035ec:	68fb      	ldr	r3, [r7, #12]
 80035ee:	68fa      	ldr	r2, [r7, #12]
 80035f0:	611a      	str	r2, [r3, #16]

	if( xNextExpiryTime <= xTimeNow )
 80035f2:	68ba      	ldr	r2, [r7, #8]
 80035f4:	687b      	ldr	r3, [r7, #4]
 80035f6:	429a      	cmp	r2, r3
 80035f8:	d812      	bhi.n	8003620 <prvInsertTimerInActiveList+0x4c>
	{
		/* Has the expiry time elapsed between the command to start/reset a
		timer was issued, and the time the command was processed? */
		if( ( ( TickType_t ) ( xTimeNow - xCommandTime ) ) >= pxTimer->xTimerPeriodInTicks ) /*lint !e961 MISRA exception as the casts are only redundant for some ports. */
 80035fa:	687a      	ldr	r2, [r7, #4]
 80035fc:	683b      	ldr	r3, [r7, #0]
 80035fe:	1ad2      	subs	r2, r2, r3
 8003600:	68fb      	ldr	r3, [r7, #12]
 8003602:	699b      	ldr	r3, [r3, #24]
 8003604:	429a      	cmp	r2, r3
 8003606:	d302      	bcc.n	800360e <prvInsertTimerInActiveList+0x3a>
		{
			/* The time between a command being issued and the command being
			processed actually exceeds the timers period.  */
			xProcessTimerNow = pdTRUE;
 8003608:	2301      	movs	r3, #1
 800360a:	617b      	str	r3, [r7, #20]
 800360c:	e01b      	b.n	8003646 <prvInsertTimerInActiveList+0x72>
		}
		else
		{
			vListInsert( pxOverflowTimerList, &( pxTimer->xTimerListItem ) );
 800360e:	4b10      	ldr	r3, [pc, #64]	; (8003650 <prvInsertTimerInActiveList+0x7c>)
 8003610:	681a      	ldr	r2, [r3, #0]
 8003612:	68fb      	ldr	r3, [r7, #12]
 8003614:	3304      	adds	r3, #4
 8003616:	4619      	mov	r1, r3
 8003618:	4610      	mov	r0, r2
 800361a:	f7fe fa49 	bl	8001ab0 <vListInsert>
 800361e:	e012      	b.n	8003646 <prvInsertTimerInActiveList+0x72>
		}
	}
	else
	{
		if( ( xTimeNow < xCommandTime ) && ( xNextExpiryTime >= xCommandTime ) )
 8003620:	687a      	ldr	r2, [r7, #4]
 8003622:	683b      	ldr	r3, [r7, #0]
 8003624:	429a      	cmp	r2, r3
 8003626:	d206      	bcs.n	8003636 <prvInsertTimerInActiveList+0x62>
 8003628:	68ba      	ldr	r2, [r7, #8]
 800362a:	683b      	ldr	r3, [r7, #0]
 800362c:	429a      	cmp	r2, r3
 800362e:	d302      	bcc.n	8003636 <prvInsertTimerInActiveList+0x62>
		{
			/* If, since the command was issued, the tick count has overflowed
			but the expiry time has not, then the timer must have already passed
			its expiry time and should be processed immediately. */
			xProcessTimerNow = pdTRUE;
 8003630:	2301      	movs	r3, #1
 8003632:	617b      	str	r3, [r7, #20]
 8003634:	e007      	b.n	8003646 <prvInsertTimerInActiveList+0x72>
		}
		else
		{
			vListInsert( pxCurrentTimerList, &( pxTimer->xTimerListItem ) );
 8003636:	4b07      	ldr	r3, [pc, #28]	; (8003654 <prvInsertTimerInActiveList+0x80>)
 8003638:	681a      	ldr	r2, [r3, #0]
 800363a:	68fb      	ldr	r3, [r7, #12]
 800363c:	3304      	adds	r3, #4
 800363e:	4619      	mov	r1, r3
 8003640:	4610      	mov	r0, r2
 8003642:	f7fe fa35 	bl	8001ab0 <vListInsert>
		}
	}

	return xProcessTimerNow;
 8003646:	697b      	ldr	r3, [r7, #20]
}
 8003648:	4618      	mov	r0, r3
 800364a:	3718      	adds	r7, #24
 800364c:	46bd      	mov	sp, r7
 800364e:	bd80      	pop	{r7, pc}
 8003650:	20000c10 	.word	0x20000c10
 8003654:	20000c0c 	.word	0x20000c0c

08003658 <prvProcessReceivedCommands>:
/*-----------------------------------------------------------*/

static void	prvProcessReceivedCommands( void )
{
 8003658:	b580      	push	{r7, lr}
 800365a:	b08e      	sub	sp, #56	; 0x38
 800365c:	af02      	add	r7, sp, #8
DaemonTaskMessage_t xMessage;
Timer_t *pxTimer;
BaseType_t xTimerListsWereSwitched, xResult;
TickType_t xTimeNow;

	while( xQueueReceive( xTimerQueue, &xMessage, tmrNO_DELAY ) != pdFAIL ) /*lint !e603 xMessage does not have to be initialised as it is passed out, not in, and it is not used unless xQueueReceive() returns pdTRUE. */
 800365e:	e099      	b.n	8003794 <prvProcessReceivedCommands+0x13c>
	{
		#if ( INCLUDE_xTimerPendFunctionCall == 1 )
		{
			/* Negative commands are pended function calls rather than timer
			commands. */
			if( xMessage.xMessageID < ( BaseType_t ) 0 )
 8003660:	687b      	ldr	r3, [r7, #4]
 8003662:	2b00      	cmp	r3, #0
 8003664:	da17      	bge.n	8003696 <prvProcessReceivedCommands+0x3e>
			{
				const CallbackParameters_t * const pxCallback = &( xMessage.u.xCallbackParameters );
 8003666:	1d3b      	adds	r3, r7, #4
 8003668:	3304      	adds	r3, #4
 800366a:	62fb      	str	r3, [r7, #44]	; 0x2c

				/* The timer uses the xCallbackParameters member to request a
				callback be executed.  Check the callback is not NULL. */
				configASSERT( pxCallback );
 800366c:	6afb      	ldr	r3, [r7, #44]	; 0x2c
 800366e:	2b00      	cmp	r3, #0
 8003670:	d109      	bne.n	8003686 <prvProcessReceivedCommands+0x2e>
 8003672:	f04f 0350 	mov.w	r3, #80	; 0x50
 8003676:	f383 8811 	msr	BASEPRI, r3
 800367a:	f3bf 8f6f 	isb	sy
 800367e:	f3bf 8f4f 	dsb	sy
 8003682:	61fb      	str	r3, [r7, #28]
 8003684:	e7fe      	b.n	8003684 <prvProcessReceivedCommands+0x2c>

				/* Call the function. */
				pxCallback->pxCallbackFunction( pxCallback->pvParameter1, pxCallback->ulParameter2 );
 8003686:	6afb      	ldr	r3, [r7, #44]	; 0x2c
 8003688:	681b      	ldr	r3, [r3, #0]
 800368a:	6afa      	ldr	r2, [r7, #44]	; 0x2c
 800368c:	6850      	ldr	r0, [r2, #4]
 800368e:	6afa      	ldr	r2, [r7, #44]	; 0x2c
 8003690:	6892      	ldr	r2, [r2, #8]
 8003692:	4611      	mov	r1, r2
 8003694:	4798      	blx	r3
		}
		#endif /* INCLUDE_xTimerPendFunctionCall */

		/* Commands that are positive are timer commands rather than pended
		function calls. */
		if( xMessage.xMessageID >= ( BaseType_t ) 0 )
 8003696:	687b      	ldr	r3, [r7, #4]
 8003698:	2b00      	cmp	r3, #0
 800369a:	db7a      	blt.n	8003792 <prvProcessReceivedCommands+0x13a>
		{
			/* The messages uses the xTimerParameters member to work on a
			software timer. */
			pxTimer = xMessage.u.xTimerParameters.pxTimer;
 800369c:	68fb      	ldr	r3, [r7, #12]
 800369e:	62bb      	str	r3, [r7, #40]	; 0x28

			if( listIS_CONTAINED_WITHIN( NULL, &( pxTimer->xTimerListItem ) ) == pdFALSE ) /*lint !e961. The cast is only redundant when NULL is passed into the macro. */
 80036a0:	6abb      	ldr	r3, [r7, #40]	; 0x28
 80036a2:	695b      	ldr	r3, [r3, #20]
 80036a4:	2b00      	cmp	r3, #0
 80036a6:	d004      	beq.n	80036b2 <prvProcessReceivedCommands+0x5a>
			{
				/* The timer is in a list, remove it. */
				( void ) uxListRemove( &( pxTimer->xTimerListItem ) );
 80036a8:	6abb      	ldr	r3, [r7, #40]	; 0x28
 80036aa:	3304      	adds	r3, #4
 80036ac:	4618      	mov	r0, r3
 80036ae:	f7fe fa37 	bl	8001b20 <uxListRemove>
			it must be present in the function call.  prvSampleTimeNow() must be
			called after the message is received from xTimerQueue so there is no
			possibility of a higher priority task adding a message to the message
			queue with a time that is ahead of the timer daemon task (because it
			pre-empted the timer daemon task after the xTimeNow value was set). */
			xTimeNow = prvSampleTimeNow( &xTimerListsWereSwitched );
 80036b2:	463b      	mov	r3, r7
 80036b4:	4618      	mov	r0, r3
 80036b6:	f7ff ff6d 	bl	8003594 <prvSampleTimeNow>
 80036ba:	6278      	str	r0, [r7, #36]	; 0x24

			switch( xMessage.xMessageID )
 80036bc:	687b      	ldr	r3, [r7, #4]
 80036be:	2b09      	cmp	r3, #9
 80036c0:	d868      	bhi.n	8003794 <prvProcessReceivedCommands+0x13c>
 80036c2:	a201      	add	r2, pc, #4	; (adr r2, 80036c8 <prvProcessReceivedCommands+0x70>)
 80036c4:	f852 f023 	ldr.w	pc, [r2, r3, lsl #2]
 80036c8:	080036f1 	.word	0x080036f1
 80036cc:	080036f1 	.word	0x080036f1
 80036d0:	080036f1 	.word	0x080036f1
 80036d4:	08003795 	.word	0x08003795
 80036d8:	0800374b 	.word	0x0800374b
 80036dc:	08003781 	.word	0x08003781
 80036e0:	080036f1 	.word	0x080036f1
 80036e4:	080036f1 	.word	0x080036f1
 80036e8:	08003795 	.word	0x08003795
 80036ec:	0800374b 	.word	0x0800374b
			    case tmrCOMMAND_START_FROM_ISR :
			    case tmrCOMMAND_RESET :
			    case tmrCOMMAND_RESET_FROM_ISR :
				case tmrCOMMAND_START_DONT_TRACE :
					/* Start or restart a timer. */
					if( prvInsertTimerInActiveList( pxTimer,  xMessage.u.xTimerParameters.xMessageValue + pxTimer->xTimerPeriodInTicks, xTimeNow, xMessage.u.xTimerParameters.xMessageValue ) != pdFALSE )
 80036f0:	68ba      	ldr	r2, [r7, #8]
 80036f2:	6abb      	ldr	r3, [r7, #40]	; 0x28
 80036f4:	699b      	ldr	r3, [r3, #24]
 80036f6:	18d1      	adds	r1, r2, r3
 80036f8:	68bb      	ldr	r3, [r7, #8]
 80036fa:	6a7a      	ldr	r2, [r7, #36]	; 0x24
 80036fc:	6ab8      	ldr	r0, [r7, #40]	; 0x28
 80036fe:	f7ff ff69 	bl	80035d4 <prvInsertTimerInActiveList>
 8003702:	4603      	mov	r3, r0
 8003704:	2b00      	cmp	r3, #0
 8003706:	d045      	beq.n	8003794 <prvProcessReceivedCommands+0x13c>
					{
						/* The timer expired before it was added to the active
						timer list.  Process it now. */
						pxTimer->pxCallbackFunction( ( TimerHandle_t ) pxTimer );
 8003708:	6abb      	ldr	r3, [r7, #40]	; 0x28
 800370a:	6a5b      	ldr	r3, [r3, #36]	; 0x24
 800370c:	6ab8      	ldr	r0, [r7, #40]	; 0x28
 800370e:	4798      	blx	r3
						traceTIMER_EXPIRED( pxTimer );

						if( pxTimer->uxAutoReload == ( UBaseType_t ) pdTRUE )
 8003710:	6abb      	ldr	r3, [r7, #40]	; 0x28
 8003712:	69db      	ldr	r3, [r3, #28]
 8003714:	2b01      	cmp	r3, #1
 8003716:	d13d      	bne.n	8003794 <prvProcessReceivedCommands+0x13c>
						{
							xResult = xTimerGenericCommand( pxTimer, tmrCOMMAND_START_DONT_TRACE, xMessage.u.xTimerParameters.xMessageValue + pxTimer->xTimerPeriodInTicks, NULL, tmrNO_DELAY );
 8003718:	68ba      	ldr	r2, [r7, #8]
 800371a:	6abb      	ldr	r3, [r7, #40]	; 0x28
 800371c:	699b      	ldr	r3, [r3, #24]
 800371e:	441a      	add	r2, r3
 8003720:	2300      	movs	r3, #0
 8003722:	9300      	str	r3, [sp, #0]
 8003724:	2300      	movs	r3, #0
 8003726:	2100      	movs	r1, #0
 8003728:	6ab8      	ldr	r0, [r7, #40]	; 0x28
 800372a:	f7ff fe23 	bl	8003374 <xTimerGenericCommand>
 800372e:	6238      	str	r0, [r7, #32]
							configASSERT( xResult );
 8003730:	6a3b      	ldr	r3, [r7, #32]
 8003732:	2b00      	cmp	r3, #0
 8003734:	d12e      	bne.n	8003794 <prvProcessReceivedCommands+0x13c>
 8003736:	f04f 0350 	mov.w	r3, #80	; 0x50
 800373a:	f383 8811 	msr	BASEPRI, r3
 800373e:	f3bf 8f6f 	isb	sy
 8003742:	f3bf 8f4f 	dsb	sy
 8003746:	61bb      	str	r3, [r7, #24]
 8003748:	e7fe      	b.n	8003748 <prvProcessReceivedCommands+0xf0>
					There is nothing to do here. */
					break;

				case tmrCOMMAND_CHANGE_PERIOD :
				case tmrCOMMAND_CHANGE_PERIOD_FROM_ISR :
					pxTimer->xTimerPeriodInTicks = xMessage.u.xTimerParameters.xMessageValue;
 800374a:	68ba      	ldr	r2, [r7, #8]
 800374c:	6abb      	ldr	r3, [r7, #40]	; 0x28
 800374e:	619a      	str	r2, [r3, #24]
					configASSERT( ( pxTimer->xTimerPeriodInTicks > 0 ) );
 8003750:	6abb      	ldr	r3, [r7, #40]	; 0x28
 8003752:	699b      	ldr	r3, [r3, #24]
 8003754:	2b00      	cmp	r3, #0
 8003756:	d109      	bne.n	800376c <prvProcessReceivedCommands+0x114>
 8003758:	f04f 0350 	mov.w	r3, #80	; 0x50
 800375c:	f383 8811 	msr	BASEPRI, r3
 8003760:	f3bf 8f6f 	isb	sy
 8003764:	f3bf 8f4f 	dsb	sy
 8003768:	617b      	str	r3, [r7, #20]
 800376a:	e7fe      	b.n	800376a <prvProcessReceivedCommands+0x112>
					be longer or shorter than the old one.  The command time is
					therefore set to the current time, and as the period cannot
					be zero the next expiry time can only be in the future,
					meaning (unlike for the xTimerStart() case above) there is
					no fail case that needs to be handled here. */
					( void ) prvInsertTimerInActiveList( pxTimer, ( xTimeNow + pxTimer->xTimerPeriodInTicks ), xTimeNow, xTimeNow );
 800376c:	6abb      	ldr	r3, [r7, #40]	; 0x28
 800376e:	699a      	ldr	r2, [r3, #24]
 8003770:	6a7b      	ldr	r3, [r7, #36]	; 0x24
 8003772:	18d1      	adds	r1, r2, r3
 8003774:	6a7b      	ldr	r3, [r7, #36]	; 0x24
 8003776:	6a7a      	ldr	r2, [r7, #36]	; 0x24
 8003778:	6ab8      	ldr	r0, [r7, #40]	; 0x28
 800377a:	f7ff ff2b 	bl	80035d4 <prvInsertTimerInActiveList>
					break;
 800377e:	e009      	b.n	8003794 <prvProcessReceivedCommands+0x13c>
					#elif( ( configSUPPORT_DYNAMIC_ALLOCATION == 1 ) && ( configSUPPORT_STATIC_ALLOCATION == 1 ) )
					{
						/* The timer could have been allocated statically or
						dynamically, so check before attempting to free the
						memory. */
						if( pxTimer->ucStaticallyAllocated == ( uint8_t ) pdFALSE )
 8003780:	6abb      	ldr	r3, [r7, #40]	; 0x28
 8003782:	f893 302c 	ldrb.w	r3, [r3, #44]	; 0x2c
 8003786:	2b00      	cmp	r3, #0
 8003788:	d104      	bne.n	8003794 <prvProcessReceivedCommands+0x13c>
						{
							vPortFree( pxTimer );
 800378a:	6ab8      	ldr	r0, [r7, #40]	; 0x28
 800378c:	f000 fb54 	bl	8003e38 <vPortFree>
						{
							mtCOVERAGE_TEST_MARKER();
						}
					}
					#endif /* configSUPPORT_DYNAMIC_ALLOCATION */
					break;
 8003790:	e000      	b.n	8003794 <prvProcessReceivedCommands+0x13c>

				default	:
					/* Don't expect to get here. */
					break;
			}
		}
 8003792:	bf00      	nop
	while( xQueueReceive( xTimerQueue, &xMessage, tmrNO_DELAY ) != pdFAIL ) /*lint !e603 xMessage does not have to be initialised as it is passed out, not in, and it is not used unless xQueueReceive() returns pdTRUE. */
 8003794:	4b07      	ldr	r3, [pc, #28]	; (80037b4 <prvProcessReceivedCommands+0x15c>)
 8003796:	681b      	ldr	r3, [r3, #0]
 8003798:	1d39      	adds	r1, r7, #4
 800379a:	2200      	movs	r2, #0
 800379c:	4618      	mov	r0, r3
 800379e:	f7fe fc75 	bl	800208c <xQueueReceive>
 80037a2:	4603      	mov	r3, r0
 80037a4:	2b00      	cmp	r3, #0
 80037a6:	f47f af5b 	bne.w	8003660 <prvProcessReceivedCommands+0x8>
	}
}
 80037aa:	bf00      	nop
 80037ac:	3730      	adds	r7, #48	; 0x30
 80037ae:	46bd      	mov	sp, r7
 80037b0:	bd80      	pop	{r7, pc}
 80037b2:	bf00      	nop
 80037b4:	20000c14 	.word	0x20000c14

080037b8 <prvSwitchTimerLists>:
/*-----------------------------------------------------------*/

static void prvSwitchTimerLists( void )
{
 80037b8:	b580      	push	{r7, lr}
 80037ba:	b088      	sub	sp, #32
 80037bc:	af02      	add	r7, sp, #8

	/* The tick count has overflowed.  The timer lists must be switched.
	If there are any timers still referenced from the current timer list
	then they must have expired and should be processed before the lists
	are switched. */
	while( listLIST_IS_EMPTY( pxCurrentTimerList ) == pdFALSE )
 80037be:	e044      	b.n	800384a <prvSwitchTimerLists+0x92>
	{
		xNextExpireTime = listGET_ITEM_VALUE_OF_HEAD_ENTRY( pxCurrentTimerList );
 80037c0:	4b2b      	ldr	r3, [pc, #172]	; (8003870 <prvSwitchTimerLists+0xb8>)
 80037c2:	681b      	ldr	r3, [r3, #0]
 80037c4:	68db      	ldr	r3, [r3, #12]
 80037c6:	681b      	ldr	r3, [r3, #0]
 80037c8:	613b      	str	r3, [r7, #16]

		/* Remove the timer from the list. */
		pxTimer = ( Timer_t * ) listGET_OWNER_OF_HEAD_ENTRY( pxCurrentTimerList );
 80037ca:	4b29      	ldr	r3, [pc, #164]	; (8003870 <prvSwitchTimerLists+0xb8>)
 80037cc:	681b      	ldr	r3, [r3, #0]
 80037ce:	68db      	ldr	r3, [r3, #12]
 80037d0:	68db      	ldr	r3, [r3, #12]
 80037d2:	60fb      	str	r3, [r7, #12]
		( void ) uxListRemove( &( pxTimer->xTimerListItem ) );
 80037d4:	68fb      	ldr	r3, [r7, #12]
 80037d6:	3304      	adds	r3, #4
 80037d8:	4618      	mov	r0, r3
 80037da:	f7fe f9a1 	bl	8001b20 <uxListRemove>
		traceTIMER_EXPIRED( pxTimer );

		/* Execute its callback, then send a command to restart the timer if
		it is an auto-reload timer.  It cannot be restarted here as the lists
		have not yet been switched. */
		pxTimer->pxCallbackFunction( ( TimerHandle_t ) pxTimer );
 80037de:	68fb      	ldr	r3, [r7, #12]
 80037e0:	6a5b      	ldr	r3, [r3, #36]	; 0x24
 80037e2:	68f8      	ldr	r0, [r7, #12]
 80037e4:	4798      	blx	r3

		if( pxTimer->uxAutoReload == ( UBaseType_t ) pdTRUE )
 80037e6:	68fb      	ldr	r3, [r7, #12]
 80037e8:	69db      	ldr	r3, [r3, #28]
 80037ea:	2b01      	cmp	r3, #1
 80037ec:	d12d      	bne.n	800384a <prvSwitchTimerLists+0x92>
			the timer going into the same timer list then it has already expired
			and the timer should be re-inserted into the current list so it is
			processed again within this loop.  Otherwise a command should be sent
			to restart the timer to ensure it is only inserted into a list after
			the lists have been swapped. */
			xReloadTime = ( xNextExpireTime + pxTimer->xTimerPeriodInTicks );
 80037ee:	68fb      	ldr	r3, [r7, #12]
 80037f0:	699b      	ldr	r3, [r3, #24]
 80037f2:	693a      	ldr	r2, [r7, #16]
 80037f4:	4413      	add	r3, r2
 80037f6:	60bb      	str	r3, [r7, #8]
			if( xReloadTime > xNextExpireTime )
 80037f8:	68ba      	ldr	r2, [r7, #8]
 80037fa:	693b      	ldr	r3, [r7, #16]
 80037fc:	429a      	cmp	r2, r3
 80037fe:	d90e      	bls.n	800381e <prvSwitchTimerLists+0x66>
			{
				listSET_LIST_ITEM_VALUE( &( pxTimer->xTimerListItem ), xReloadTime );
 8003800:	68fb      	ldr	r3, [r7, #12]
 8003802:	68ba      	ldr	r2, [r7, #8]
 8003804:	605a      	str	r2, [r3, #4]
				listSET_LIST_ITEM_OWNER( &( pxTimer->xTimerListItem ), pxTimer );
 8003806:	68fb      	ldr	r3, [r7, #12]
 8003808:	68fa      	ldr	r2, [r7, #12]
 800380a:	611a      	str	r2, [r3, #16]
				vListInsert( pxCurrentTimerList, &( pxTimer->xTimerListItem ) );
 800380c:	4b18      	ldr	r3, [pc, #96]	; (8003870 <prvSwitchTimerLists+0xb8>)
 800380e:	681a      	ldr	r2, [r3, #0]
 8003810:	68fb      	ldr	r3, [r7, #12]
 8003812:	3304      	adds	r3, #4
 8003814:	4619      	mov	r1, r3
 8003816:	4610      	mov	r0, r2
 8003818:	f7fe f94a 	bl	8001ab0 <vListInsert>
 800381c:	e015      	b.n	800384a <prvSwitchTimerLists+0x92>
			}
			else
			{
				xResult = xTimerGenericCommand( pxTimer, tmrCOMMAND_START_DONT_TRACE, xNextExpireTime, NULL, tmrNO_DELAY );
 800381e:	2300      	movs	r3, #0
 8003820:	9300      	str	r3, [sp, #0]
 8003822:	2300      	movs	r3, #0
 8003824:	693a      	ldr	r2, [r7, #16]
 8003826:	2100      	movs	r1, #0
 8003828:	68f8      	ldr	r0, [r7, #12]
 800382a:	f7ff fda3 	bl	8003374 <xTimerGenericCommand>
 800382e:	6078      	str	r0, [r7, #4]
				configASSERT( xResult );
 8003830:	687b      	ldr	r3, [r7, #4]
 8003832:	2b00      	cmp	r3, #0
 8003834:	d109      	bne.n	800384a <prvSwitchTimerLists+0x92>
 8003836:	f04f 0350 	mov.w	r3, #80	; 0x50
 800383a:	f383 8811 	msr	BASEPRI, r3
 800383e:	f3bf 8f6f 	isb	sy
 8003842:	f3bf 8f4f 	dsb	sy
 8003846:	603b      	str	r3, [r7, #0]
 8003848:	e7fe      	b.n	8003848 <prvSwitchTimerLists+0x90>
	while( listLIST_IS_EMPTY( pxCurrentTimerList ) == pdFALSE )
 800384a:	4b09      	ldr	r3, [pc, #36]	; (8003870 <prvSwitchTimerLists+0xb8>)
 800384c:	681b      	ldr	r3, [r3, #0]
 800384e:	681b      	ldr	r3, [r3, #0]
 8003850:	2b00      	cmp	r3, #0
 8003852:	d1b5      	bne.n	80037c0 <prvSwitchTimerLists+0x8>
		{
			mtCOVERAGE_TEST_MARKER();
		}
	}

	pxTemp = pxCurrentTimerList;
 8003854:	4b06      	ldr	r3, [pc, #24]	; (8003870 <prvSwitchTimerLists+0xb8>)
 8003856:	681b      	ldr	r3, [r3, #0]
 8003858:	617b      	str	r3, [r7, #20]
	pxCurrentTimerList = pxOverflowTimerList;
 800385a:	4b06      	ldr	r3, [pc, #24]	; (8003874 <prvSwitchTimerLists+0xbc>)
 800385c:	681b      	ldr	r3, [r3, #0]
 800385e:	4a04      	ldr	r2, [pc, #16]	; (8003870 <prvSwitchTimerLists+0xb8>)
 8003860:	6013      	str	r3, [r2, #0]
	pxOverflowTimerList = pxTemp;
 8003862:	4a04      	ldr	r2, [pc, #16]	; (8003874 <prvSwitchTimerLists+0xbc>)
 8003864:	697b      	ldr	r3, [r7, #20]
 8003866:	6013      	str	r3, [r2, #0]
}
 8003868:	bf00      	nop
 800386a:	3718      	adds	r7, #24
 800386c:	46bd      	mov	sp, r7
 800386e:	bd80      	pop	{r7, pc}
 8003870:	20000c0c 	.word	0x20000c0c
 8003874:	20000c10 	.word	0x20000c10

08003878 <prvCheckForValidListAndQueue>:
/*-----------------------------------------------------------*/

static void prvCheckForValidListAndQueue( void )
{
 8003878:	b580      	push	{r7, lr}
 800387a:	b082      	sub	sp, #8
 800387c:	af02      	add	r7, sp, #8
	/* Check that the list from which active timers are referenced, and the
	queue used to communicate with the timer service, have been
	initialised. */
	taskENTER_CRITICAL();
 800387e:	f000 f923 	bl	8003ac8 <vPortEnterCritical>
	{
		if( xTimerQueue == NULL )
 8003882:	4b15      	ldr	r3, [pc, #84]	; (80038d8 <prvCheckForValidListAndQueue+0x60>)
 8003884:	681b      	ldr	r3, [r3, #0]
 8003886:	2b00      	cmp	r3, #0
 8003888:	d120      	bne.n	80038cc <prvCheckForValidListAndQueue+0x54>
		{
			vListInitialise( &xActiveTimerList1 );
 800388a:	4814      	ldr	r0, [pc, #80]	; (80038dc <prvCheckForValidListAndQueue+0x64>)
 800388c:	f7fe f8c2 	bl	8001a14 <vListInitialise>
			vListInitialise( &xActiveTimerList2 );
 8003890:	4813      	ldr	r0, [pc, #76]	; (80038e0 <prvCheckForValidListAndQueue+0x68>)
 8003892:	f7fe f8bf 	bl	8001a14 <vListInitialise>
			pxCurrentTimerList = &xActiveTimerList1;
 8003896:	4b13      	ldr	r3, [pc, #76]	; (80038e4 <prvCheckForValidListAndQueue+0x6c>)
 8003898:	4a10      	ldr	r2, [pc, #64]	; (80038dc <prvCheckForValidListAndQueue+0x64>)
 800389a:	601a      	str	r2, [r3, #0]
			pxOverflowTimerList = &xActiveTimerList2;
 800389c:	4b12      	ldr	r3, [pc, #72]	; (80038e8 <prvCheckForValidListAndQueue+0x70>)
 800389e:	4a10      	ldr	r2, [pc, #64]	; (80038e0 <prvCheckForValidListAndQueue+0x68>)
 80038a0:	601a      	str	r2, [r3, #0]
				/* The timer queue is allocated statically in case
				configSUPPORT_DYNAMIC_ALLOCATION is 0. */
				static StaticQueue_t xStaticTimerQueue; /*lint !e956 Ok to declare in this manner to prevent additional conditional compilation guards in other locations. */
				static uint8_t ucStaticTimerQueueStorage[ ( size_t ) configTIMER_QUEUE_LENGTH * sizeof( DaemonTaskMessage_t ) ]; /*lint !e956 Ok to declare in this manner to prevent additional conditional compilation guards in other locations. */

				xTimerQueue = xQueueCreateStatic( ( UBaseType_t ) configTIMER_QUEUE_LENGTH, ( UBaseType_t ) sizeof( DaemonTaskMessage_t ), &( ucStaticTimerQueueStorage[ 0 ] ), &xStaticTimerQueue );
 80038a2:	2300      	movs	r3, #0
 80038a4:	9300      	str	r3, [sp, #0]
 80038a6:	4b11      	ldr	r3, [pc, #68]	; (80038ec <prvCheckForValidListAndQueue+0x74>)
 80038a8:	4a11      	ldr	r2, [pc, #68]	; (80038f0 <prvCheckForValidListAndQueue+0x78>)
 80038aa:	2110      	movs	r1, #16
 80038ac:	200a      	movs	r0, #10
 80038ae:	f7fe f9c9 	bl	8001c44 <xQueueGenericCreateStatic>
 80038b2:	4602      	mov	r2, r0
 80038b4:	4b08      	ldr	r3, [pc, #32]	; (80038d8 <prvCheckForValidListAndQueue+0x60>)
 80038b6:	601a      	str	r2, [r3, #0]
			}
			#endif

			#if ( configQUEUE_REGISTRY_SIZE > 0 )
			{
				if( xTimerQueue != NULL )
 80038b8:	4b07      	ldr	r3, [pc, #28]	; (80038d8 <prvCheckForValidListAndQueue+0x60>)
 80038ba:	681b      	ldr	r3, [r3, #0]
 80038bc:	2b00      	cmp	r3, #0
 80038be:	d005      	beq.n	80038cc <prvCheckForValidListAndQueue+0x54>
				{
					vQueueAddToRegistry( xTimerQueue, "TmrQ" );
 80038c0:	4b05      	ldr	r3, [pc, #20]	; (80038d8 <prvCheckForValidListAndQueue+0x60>)
 80038c2:	681b      	ldr	r3, [r3, #0]
 80038c4:	490b      	ldr	r1, [pc, #44]	; (80038f4 <prvCheckForValidListAndQueue+0x7c>)
 80038c6:	4618      	mov	r0, r3
 80038c8:	f7fe fdcc 	bl	8002464 <vQueueAddToRegistry>
		else
		{
			mtCOVERAGE_TEST_MARKER();
		}
	}
	taskEXIT_CRITICAL();
 80038cc:	f000 f92a 	bl	8003b24 <vPortExitCritical>
}
 80038d0:	bf00      	nop
 80038d2:	46bd      	mov	sp, r7
 80038d4:	bd80      	pop	{r7, pc}
 80038d6:	bf00      	nop
 80038d8:	20000c14 	.word	0x20000c14
 80038dc:	20000be4 	.word	0x20000be4
 80038e0:	20000bf8 	.word	0x20000bf8
 80038e4:	20000c0c 	.word	0x20000c0c
 80038e8:	20000c10 	.word	0x20000c10
 80038ec:	20000cc0 	.word	0x20000cc0
 80038f0:	20000c20 	.word	0x20000c20
 80038f4:	08004108 	.word	0x08004108

080038f8 <pxPortInitialiseStack>:

/*
 * See header file for description.
 */
StackType_t *pxPortInitialiseStack( StackType_t *pxTopOfStack, TaskFunction_t pxCode, void *pvParameters )
{
 80038f8:	b480      	push	{r7}
 80038fa:	b085      	sub	sp, #20
 80038fc:	af00      	add	r7, sp, #0
 80038fe:	60f8      	str	r0, [r7, #12]
 8003900:	60b9      	str	r1, [r7, #8]
 8003902:	607a      	str	r2, [r7, #4]
	/* Simulate the stack frame as it would be created by a context switch
	interrupt. */
	pxTopOfStack--; /* Offset added to account for the way the MCU uses the stack on entry/exit of interrupts. */
 8003904:	68fb      	ldr	r3, [r7, #12]
 8003906:	3b04      	subs	r3, #4
 8003908:	60fb      	str	r3, [r7, #12]
	*pxTopOfStack = portINITIAL_XPSR;	/* xPSR */
 800390a:	68fb      	ldr	r3, [r7, #12]
 800390c:	f04f 7280 	mov.w	r2, #16777216	; 0x1000000
 8003910:	601a      	str	r2, [r3, #0]
	pxTopOfStack--;
 8003912:	68fb      	ldr	r3, [r7, #12]
 8003914:	3b04      	subs	r3, #4
 8003916:	60fb      	str	r3, [r7, #12]
	*pxTopOfStack = ( ( StackType_t ) pxCode ) & portSTART_ADDRESS_MASK;	/* PC */
 8003918:	68bb      	ldr	r3, [r7, #8]
 800391a:	f023 0201 	bic.w	r2, r3, #1
 800391e:	68fb      	ldr	r3, [r7, #12]
 8003920:	601a      	str	r2, [r3, #0]
	pxTopOfStack--;
 8003922:	68fb      	ldr	r3, [r7, #12]
 8003924:	3b04      	subs	r3, #4
 8003926:	60fb      	str	r3, [r7, #12]
	*pxTopOfStack = ( StackType_t ) portTASK_RETURN_ADDRESS;	/* LR */
 8003928:	4a08      	ldr	r2, [pc, #32]	; (800394c <pxPortInitialiseStack+0x54>)
 800392a:	68fb      	ldr	r3, [r7, #12]
 800392c:	601a      	str	r2, [r3, #0]
	pxTopOfStack -= 5;	/* R12, R3, R2 and R1. */
 800392e:	68fb      	ldr	r3, [r7, #12]
 8003930:	3b14      	subs	r3, #20
 8003932:	60fb      	str	r3, [r7, #12]
	*pxTopOfStack = ( StackType_t ) pvParameters;	/* R0 */
 8003934:	687a      	ldr	r2, [r7, #4]
 8003936:	68fb      	ldr	r3, [r7, #12]
 8003938:	601a      	str	r2, [r3, #0]
	pxTopOfStack -= 8;	/* R11, R10, R9, R8, R7, R6, R5 and R4. */
 800393a:	68fb      	ldr	r3, [r7, #12]
 800393c:	3b20      	subs	r3, #32
 800393e:	60fb      	str	r3, [r7, #12]

	return pxTopOfStack;
 8003940:	68fb      	ldr	r3, [r7, #12]
}
 8003942:	4618      	mov	r0, r3
 8003944:	3714      	adds	r7, #20
 8003946:	46bd      	mov	sp, r7
 8003948:	bc80      	pop	{r7}
 800394a:	4770      	bx	lr
 800394c:	08003951 	.word	0x08003951

08003950 <prvTaskExitError>:
/*-----------------------------------------------------------*/

static void prvTaskExitError( void )
{
 8003950:	b480      	push	{r7}
 8003952:	b085      	sub	sp, #20
 8003954:	af00      	add	r7, sp, #0
volatile uint32_t ulDummy = 0UL;
 8003956:	2300      	movs	r3, #0
 8003958:	607b      	str	r3, [r7, #4]
	its caller as there is nothing to return to.  If a task wants to exit it
	should instead call vTaskDelete( NULL ).

	Artificially force an assert() to be triggered if configASSERT() is
	defined, then stop here so application writers can catch the error. */
	configASSERT( uxCriticalNesting == ~0UL );
 800395a:	4b10      	ldr	r3, [pc, #64]	; (800399c <prvTaskExitError+0x4c>)
 800395c:	681b      	ldr	r3, [r3, #0]
 800395e:	f1b3 3fff 	cmp.w	r3, #4294967295
 8003962:	d009      	beq.n	8003978 <prvTaskExitError+0x28>
 8003964:	f04f 0350 	mov.w	r3, #80	; 0x50
 8003968:	f383 8811 	msr	BASEPRI, r3
 800396c:	f3bf 8f6f 	isb	sy
 8003970:	f3bf 8f4f 	dsb	sy
 8003974:	60fb      	str	r3, [r7, #12]
 8003976:	e7fe      	b.n	8003976 <prvTaskExitError+0x26>
 8003978:	f04f 0350 	mov.w	r3, #80	; 0x50
 800397c:	f383 8811 	msr	BASEPRI, r3
 8003980:	f3bf 8f6f 	isb	sy
 8003984:	f3bf 8f4f 	dsb	sy
 8003988:	60bb      	str	r3, [r7, #8]
	portDISABLE_INTERRUPTS();
	while( ulDummy == 0 )
 800398a:	bf00      	nop
 800398c:	687b      	ldr	r3, [r7, #4]
 800398e:	2b00      	cmp	r3, #0
 8003990:	d0fc      	beq.n	800398c <prvTaskExitError+0x3c>
		about code appearing after this function is called - making ulDummy
		volatile makes the compiler think the function could return and
		therefore not output an 'unreachable code' warning for code that appears
		after it. */
	}
}
 8003992:	bf00      	nop
 8003994:	3714      	adds	r7, #20
 8003996:	46bd      	mov	sp, r7
 8003998:	bc80      	pop	{r7}
 800399a:	4770      	bx	lr
 800399c:	2000000c 	.word	0x2000000c

080039a0 <SVC_Handler>:
/*-----------------------------------------------------------*/

void vPortSVCHandler( void )
{
	__asm volatile (
 80039a0:	4b07      	ldr	r3, [pc, #28]	; (80039c0 <pxCurrentTCBConst2>)
 80039a2:	6819      	ldr	r1, [r3, #0]
 80039a4:	6808      	ldr	r0, [r1, #0]
 80039a6:	e8b0 0ff0 	ldmia.w	r0!, {r4, r5, r6, r7, r8, r9, sl, fp}
 80039aa:	f380 8809 	msr	PSP, r0
 80039ae:	f3bf 8f6f 	isb	sy
 80039b2:	f04f 0000 	mov.w	r0, #0
 80039b6:	f380 8811 	msr	BASEPRI, r0
 80039ba:	f04e 0e0d 	orr.w	lr, lr, #13
 80039be:	4770      	bx	lr

080039c0 <pxCurrentTCBConst2>:
 80039c0:	200006e4 	.word	0x200006e4
					"	bx r14							\n"
					"									\n"
					"	.align 4						\n"
					"pxCurrentTCBConst2: .word pxCurrentTCB				\n"
				);
}
 80039c4:	bf00      	nop
 80039c6:	bf00      	nop

080039c8 <prvPortStartFirstTask>:
/*-----------------------------------------------------------*/

static void prvPortStartFirstTask( void )
{
	__asm volatile(
 80039c8:	4806      	ldr	r0, [pc, #24]	; (80039e4 <prvPortStartFirstTask+0x1c>)
 80039ca:	6800      	ldr	r0, [r0, #0]
 80039cc:	6800      	ldr	r0, [r0, #0]
 80039ce:	f380 8808 	msr	MSP, r0
 80039d2:	b662      	cpsie	i
 80039d4:	b661      	cpsie	f
 80039d6:	f3bf 8f4f 	dsb	sy
 80039da:	f3bf 8f6f 	isb	sy
 80039de:	df00      	svc	0
 80039e0:	bf00      	nop
					" dsb					\n"
					" isb					\n"
					" svc 0					\n" /* System call to start first task. */
					" nop					\n"
				);
}
 80039e2:	bf00      	nop
 80039e4:	e000ed08 	.word	0xe000ed08

080039e8 <xPortStartScheduler>:

/*
 * See header file for description.
 */
BaseType_t xPortStartScheduler( void )
{
 80039e8:	b580      	push	{r7, lr}
 80039ea:	b084      	sub	sp, #16
 80039ec:	af00      	add	r7, sp, #0
	configASSERT( configMAX_SYSCALL_INTERRUPT_PRIORITY );

	#if( configASSERT_DEFINED == 1 )
	{
		volatile uint32_t ulOriginalPriority;
		volatile uint8_t * const pucFirstUserPriorityRegister = ( volatile uint8_t * const ) ( portNVIC_IP_REGISTERS_OFFSET_16 + portFIRST_USER_INTERRUPT_NUMBER );
 80039ee:	4b31      	ldr	r3, [pc, #196]	; (8003ab4 <xPortStartScheduler+0xcc>)
 80039f0:	60fb      	str	r3, [r7, #12]
		functions can be called.  ISR safe functions are those that end in
		"FromISR".  FreeRTOS maintains separate thread and ISR API functions to
		ensure interrupt entry is as fast and simple as possible.

		Save the interrupt priority value that is about to be clobbered. */
		ulOriginalPriority = *pucFirstUserPriorityRegister;
 80039f2:	68fb      	ldr	r3, [r7, #12]
 80039f4:	781b      	ldrb	r3, [r3, #0]
 80039f6:	b2db      	uxtb	r3, r3
 80039f8:	607b      	str	r3, [r7, #4]

		/* Determine the number of priority bits available.  First write to all
		possible bits. */
		*pucFirstUserPriorityRegister = portMAX_8_BIT_VALUE;
 80039fa:	68fb      	ldr	r3, [r7, #12]
 80039fc:	22ff      	movs	r2, #255	; 0xff
 80039fe:	701a      	strb	r2, [r3, #0]

		/* Read the value back to see how many bits stuck. */
		ucMaxPriorityValue = *pucFirstUserPriorityRegister;
 8003a00:	68fb      	ldr	r3, [r7, #12]
 8003a02:	781b      	ldrb	r3, [r3, #0]
 8003a04:	b2db      	uxtb	r3, r3
 8003a06:	70fb      	strb	r3, [r7, #3]

		/* Use the same mask on the maximum system call priority. */
		ucMaxSysCallPriority = configMAX_SYSCALL_INTERRUPT_PRIORITY & ucMaxPriorityValue;
 8003a08:	78fb      	ldrb	r3, [r7, #3]
 8003a0a:	b2db      	uxtb	r3, r3
 8003a0c:	f003 0350 	and.w	r3, r3, #80	; 0x50
 8003a10:	b2da      	uxtb	r2, r3
 8003a12:	4b29      	ldr	r3, [pc, #164]	; (8003ab8 <xPortStartScheduler+0xd0>)
 8003a14:	701a      	strb	r2, [r3, #0]

		/* Calculate the maximum acceptable priority group value for the number
		of bits read back. */
		ulMaxPRIGROUPValue = portMAX_PRIGROUP_BITS;
 8003a16:	4b29      	ldr	r3, [pc, #164]	; (8003abc <xPortStartScheduler+0xd4>)
 8003a18:	2207      	movs	r2, #7
 8003a1a:	601a      	str	r2, [r3, #0]
		while( ( ucMaxPriorityValue & portTOP_BIT_OF_BYTE ) == portTOP_BIT_OF_BYTE )
 8003a1c:	e009      	b.n	8003a32 <xPortStartScheduler+0x4a>
		{
			ulMaxPRIGROUPValue--;
 8003a1e:	4b27      	ldr	r3, [pc, #156]	; (8003abc <xPortStartScheduler+0xd4>)
 8003a20:	681b      	ldr	r3, [r3, #0]
 8003a22:	3b01      	subs	r3, #1
 8003a24:	4a25      	ldr	r2, [pc, #148]	; (8003abc <xPortStartScheduler+0xd4>)
 8003a26:	6013      	str	r3, [r2, #0]
			ucMaxPriorityValue <<= ( uint8_t ) 0x01;
 8003a28:	78fb      	ldrb	r3, [r7, #3]
 8003a2a:	b2db      	uxtb	r3, r3
 8003a2c:	005b      	lsls	r3, r3, #1
 8003a2e:	b2db      	uxtb	r3, r3
 8003a30:	70fb      	strb	r3, [r7, #3]
		while( ( ucMaxPriorityValue & portTOP_BIT_OF_BYTE ) == portTOP_BIT_OF_BYTE )
 8003a32:	78fb      	ldrb	r3, [r7, #3]
 8003a34:	b2db      	uxtb	r3, r3
 8003a36:	f003 0380 	and.w	r3, r3, #128	; 0x80
 8003a3a:	2b80      	cmp	r3, #128	; 0x80
 8003a3c:	d0ef      	beq.n	8003a1e <xPortStartScheduler+0x36>
		#ifdef configPRIO_BITS
		{
			/* Check the FreeRTOS configuration that defines the number of
			priority bits matches the number of priority bits actually queried
			from the hardware. */
			configASSERT( ( portMAX_PRIGROUP_BITS - ulMaxPRIGROUPValue ) == configPRIO_BITS );
 8003a3e:	4b1f      	ldr	r3, [pc, #124]	; (8003abc <xPortStartScheduler+0xd4>)
 8003a40:	681b      	ldr	r3, [r3, #0]
 8003a42:	f1c3 0307 	rsb	r3, r3, #7
 8003a46:	2b04      	cmp	r3, #4
 8003a48:	d009      	beq.n	8003a5e <xPortStartScheduler+0x76>
 8003a4a:	f04f 0350 	mov.w	r3, #80	; 0x50
 8003a4e:	f383 8811 	msr	BASEPRI, r3
 8003a52:	f3bf 8f6f 	isb	sy
 8003a56:	f3bf 8f4f 	dsb	sy
 8003a5a:	60bb      	str	r3, [r7, #8]
 8003a5c:	e7fe      	b.n	8003a5c <xPortStartScheduler+0x74>
		}
		#endif

		/* Shift the priority group value back to its position within the AIRCR
		register. */
		ulMaxPRIGROUPValue <<= portPRIGROUP_SHIFT;
 8003a5e:	4b17      	ldr	r3, [pc, #92]	; (8003abc <xPortStartScheduler+0xd4>)
 8003a60:	681b      	ldr	r3, [r3, #0]
 8003a62:	021b      	lsls	r3, r3, #8
 8003a64:	4a15      	ldr	r2, [pc, #84]	; (8003abc <xPortStartScheduler+0xd4>)
 8003a66:	6013      	str	r3, [r2, #0]
		ulMaxPRIGROUPValue &= portPRIORITY_GROUP_MASK;
 8003a68:	4b14      	ldr	r3, [pc, #80]	; (8003abc <xPortStartScheduler+0xd4>)
 8003a6a:	681b      	ldr	r3, [r3, #0]
 8003a6c:	f403 63e0 	and.w	r3, r3, #1792	; 0x700
 8003a70:	4a12      	ldr	r2, [pc, #72]	; (8003abc <xPortStartScheduler+0xd4>)
 8003a72:	6013      	str	r3, [r2, #0]

		/* Restore the clobbered interrupt priority register to its original
		value. */
		*pucFirstUserPriorityRegister = ulOriginalPriority;
 8003a74:	687b      	ldr	r3, [r7, #4]
 8003a76:	b2da      	uxtb	r2, r3
 8003a78:	68fb      	ldr	r3, [r7, #12]
 8003a7a:	701a      	strb	r2, [r3, #0]
	}
	#endif /* conifgASSERT_DEFINED */

	/* Make PendSV and SysTick the lowest priority interrupts. */
	portNVIC_SYSPRI2_REG |= portNVIC_PENDSV_PRI;
 8003a7c:	4b10      	ldr	r3, [pc, #64]	; (8003ac0 <xPortStartScheduler+0xd8>)
 8003a7e:	681b      	ldr	r3, [r3, #0]
 8003a80:	4a0f      	ldr	r2, [pc, #60]	; (8003ac0 <xPortStartScheduler+0xd8>)
 8003a82:	f443 0370 	orr.w	r3, r3, #15728640	; 0xf00000
 8003a86:	6013      	str	r3, [r2, #0]
	portNVIC_SYSPRI2_REG |= portNVIC_SYSTICK_PRI;
 8003a88:	4b0d      	ldr	r3, [pc, #52]	; (8003ac0 <xPortStartScheduler+0xd8>)
 8003a8a:	681b      	ldr	r3, [r3, #0]
 8003a8c:	4a0c      	ldr	r2, [pc, #48]	; (8003ac0 <xPortStartScheduler+0xd8>)
 8003a8e:	f043 4370 	orr.w	r3, r3, #4026531840	; 0xf0000000
 8003a92:	6013      	str	r3, [r2, #0]

	/* Start the timer that generates the tick ISR.  Interrupts are disabled
	here already. */
	vPortSetupTimerInterrupt();
 8003a94:	f000 f8b0 	bl	8003bf8 <vPortSetupTimerInterrupt>

	/* Initialise the critical nesting count ready for the first task. */
	uxCriticalNesting = 0;
 8003a98:	4b0a      	ldr	r3, [pc, #40]	; (8003ac4 <xPortStartScheduler+0xdc>)
 8003a9a:	2200      	movs	r2, #0
 8003a9c:	601a      	str	r2, [r3, #0]

	/* Start the first task. */
	prvPortStartFirstTask();
 8003a9e:	f7ff ff93 	bl	80039c8 <prvPortStartFirstTask>
	exit error function to prevent compiler warnings about a static function
	not being called in the case that the application writer overrides this
	functionality by defining configTASK_RETURN_ADDRESS.  Call
	vTaskSwitchContext() so link time optimisation does not remove the
	symbol. */
	vTaskSwitchContext();
 8003aa2:	f7ff f8dd 	bl	8002c60 <vTaskSwitchContext>
	prvTaskExitError();
 8003aa6:	f7ff ff53 	bl	8003950 <prvTaskExitError>

	/* Should not get here! */
	return 0;
 8003aaa:	2300      	movs	r3, #0
}
 8003aac:	4618      	mov	r0, r3
 8003aae:	3710      	adds	r7, #16
 8003ab0:	46bd      	mov	sp, r7
 8003ab2:	bd80      	pop	{r7, pc}
 8003ab4:	e000e400 	.word	0xe000e400
 8003ab8:	20000d10 	.word	0x20000d10
 8003abc:	20000d14 	.word	0x20000d14
 8003ac0:	e000ed20 	.word	0xe000ed20
 8003ac4:	2000000c 	.word	0x2000000c

08003ac8 <vPortEnterCritical>:
	configASSERT( uxCriticalNesting == 1000UL );
}
/*-----------------------------------------------------------*/

void vPortEnterCritical( void )
{
 8003ac8:	b480      	push	{r7}
 8003aca:	b083      	sub	sp, #12
 8003acc:	af00      	add	r7, sp, #0
 8003ace:	f04f 0350 	mov.w	r3, #80	; 0x50
 8003ad2:	f383 8811 	msr	BASEPRI, r3
 8003ad6:	f3bf 8f6f 	isb	sy
 8003ada:	f3bf 8f4f 	dsb	sy
 8003ade:	607b      	str	r3, [r7, #4]
	portDISABLE_INTERRUPTS();
	uxCriticalNesting++;
 8003ae0:	4b0e      	ldr	r3, [pc, #56]	; (8003b1c <vPortEnterCritical+0x54>)
 8003ae2:	681b      	ldr	r3, [r3, #0]
 8003ae4:	3301      	adds	r3, #1
 8003ae6:	4a0d      	ldr	r2, [pc, #52]	; (8003b1c <vPortEnterCritical+0x54>)
 8003ae8:	6013      	str	r3, [r2, #0]
	/* This is not the interrupt safe version of the enter critical function so
	assert() if it is being called from an interrupt context.  Only API
	functions that end in "FromISR" can be used in an interrupt.  Only assert if
	the critical nesting count is 1 to protect against recursive calls if the
	assert function also uses a critical section. */
	if( uxCriticalNesting == 1 )
 8003aea:	4b0c      	ldr	r3, [pc, #48]	; (8003b1c <vPortEnterCritical+0x54>)
 8003aec:	681b      	ldr	r3, [r3, #0]
 8003aee:	2b01      	cmp	r3, #1
 8003af0:	d10e      	bne.n	8003b10 <vPortEnterCritical+0x48>
	{
		configASSERT( ( portNVIC_INT_CTRL_REG & portVECTACTIVE_MASK ) == 0 );
 8003af2:	4b0b      	ldr	r3, [pc, #44]	; (8003b20 <vPortEnterCritical+0x58>)
 8003af4:	681b      	ldr	r3, [r3, #0]
 8003af6:	b2db      	uxtb	r3, r3
 8003af8:	2b00      	cmp	r3, #0
 8003afa:	d009      	beq.n	8003b10 <vPortEnterCritical+0x48>
 8003afc:	f04f 0350 	mov.w	r3, #80	; 0x50
 8003b00:	f383 8811 	msr	BASEPRI, r3
 8003b04:	f3bf 8f6f 	isb	sy
 8003b08:	f3bf 8f4f 	dsb	sy
 8003b0c:	603b      	str	r3, [r7, #0]
 8003b0e:	e7fe      	b.n	8003b0e <vPortEnterCritical+0x46>
	}
}
 8003b10:	bf00      	nop
 8003b12:	370c      	adds	r7, #12
 8003b14:	46bd      	mov	sp, r7
 8003b16:	bc80      	pop	{r7}
 8003b18:	4770      	bx	lr
 8003b1a:	bf00      	nop
 8003b1c:	2000000c 	.word	0x2000000c
 8003b20:	e000ed04 	.word	0xe000ed04

08003b24 <vPortExitCritical>:
/*-----------------------------------------------------------*/

void vPortExitCritical( void )
{
 8003b24:	b480      	push	{r7}
 8003b26:	b083      	sub	sp, #12
 8003b28:	af00      	add	r7, sp, #0
	configASSERT( uxCriticalNesting );
 8003b2a:	4b10      	ldr	r3, [pc, #64]	; (8003b6c <vPortExitCritical+0x48>)
 8003b2c:	681b      	ldr	r3, [r3, #0]
 8003b2e:	2b00      	cmp	r3, #0
 8003b30:	d109      	bne.n	8003b46 <vPortExitCritical+0x22>
 8003b32:	f04f 0350 	mov.w	r3, #80	; 0x50
 8003b36:	f383 8811 	msr	BASEPRI, r3
 8003b3a:	f3bf 8f6f 	isb	sy
 8003b3e:	f3bf 8f4f 	dsb	sy
 8003b42:	607b      	str	r3, [r7, #4]
 8003b44:	e7fe      	b.n	8003b44 <vPortExitCritical+0x20>
	uxCriticalNesting--;
 8003b46:	4b09      	ldr	r3, [pc, #36]	; (8003b6c <vPortExitCritical+0x48>)
 8003b48:	681b      	ldr	r3, [r3, #0]
 8003b4a:	3b01      	subs	r3, #1
 8003b4c:	4a07      	ldr	r2, [pc, #28]	; (8003b6c <vPortExitCritical+0x48>)
 8003b4e:	6013      	str	r3, [r2, #0]
	if( uxCriticalNesting == 0 )
 8003b50:	4b06      	ldr	r3, [pc, #24]	; (8003b6c <vPortExitCritical+0x48>)
 8003b52:	681b      	ldr	r3, [r3, #0]
 8003b54:	2b00      	cmp	r3, #0
 8003b56:	d104      	bne.n	8003b62 <vPortExitCritical+0x3e>
 8003b58:	2300      	movs	r3, #0
 8003b5a:	603b      	str	r3, [r7, #0]
	__asm volatile
 8003b5c:	683b      	ldr	r3, [r7, #0]
 8003b5e:	f383 8811 	msr	BASEPRI, r3
	{
		portENABLE_INTERRUPTS();
	}
}
 8003b62:	bf00      	nop
 8003b64:	370c      	adds	r7, #12
 8003b66:	46bd      	mov	sp, r7
 8003b68:	bc80      	pop	{r7}
 8003b6a:	4770      	bx	lr
 8003b6c:	2000000c 	.word	0x2000000c

08003b70 <PendSV_Handler>:

void xPortPendSVHandler( void )
{
	/* This is a naked function. */

	__asm volatile
 8003b70:	f3ef 8009 	mrs	r0, PSP
 8003b74:	f3bf 8f6f 	isb	sy
 8003b78:	4b0d      	ldr	r3, [pc, #52]	; (8003bb0 <pxCurrentTCBConst>)
 8003b7a:	681a      	ldr	r2, [r3, #0]
 8003b7c:	e920 0ff0 	stmdb	r0!, {r4, r5, r6, r7, r8, r9, sl, fp}
 8003b80:	6010      	str	r0, [r2, #0]
 8003b82:	e92d 4008 	stmdb	sp!, {r3, lr}
 8003b86:	f04f 0050 	mov.w	r0, #80	; 0x50
 8003b8a:	f380 8811 	msr	BASEPRI, r0
 8003b8e:	f7ff f867 	bl	8002c60 <vTaskSwitchContext>
 8003b92:	f04f 0000 	mov.w	r0, #0
 8003b96:	f380 8811 	msr	BASEPRI, r0
 8003b9a:	e8bd 4008 	ldmia.w	sp!, {r3, lr}
 8003b9e:	6819      	ldr	r1, [r3, #0]
 8003ba0:	6808      	ldr	r0, [r1, #0]
 8003ba2:	e8b0 0ff0 	ldmia.w	r0!, {r4, r5, r6, r7, r8, r9, sl, fp}
 8003ba6:	f380 8809 	msr	PSP, r0
 8003baa:	f3bf 8f6f 	isb	sy
 8003bae:	4770      	bx	lr

08003bb0 <pxCurrentTCBConst>:
 8003bb0:	200006e4 	.word	0x200006e4
	"										\n"
	"	.align 4							\n"
	"pxCurrentTCBConst: .word pxCurrentTCB	\n"
	::"i"(configMAX_SYSCALL_INTERRUPT_PRIORITY)
	);
}
 8003bb4:	bf00      	nop
 8003bb6:	bf00      	nop

08003bb8 <SysTick_Handler>:
/*-----------------------------------------------------------*/

void xPortSysTickHandler( void )
{
 8003bb8:	b580      	push	{r7, lr}
 8003bba:	b082      	sub	sp, #8
 8003bbc:	af00      	add	r7, sp, #0
	__asm volatile
 8003bbe:	f04f 0350 	mov.w	r3, #80	; 0x50
 8003bc2:	f383 8811 	msr	BASEPRI, r3
 8003bc6:	f3bf 8f6f 	isb	sy
 8003bca:	f3bf 8f4f 	dsb	sy
 8003bce:	607b      	str	r3, [r7, #4]
	save and then restore the interrupt mask value as its value is already
	known. */
	portDISABLE_INTERRUPTS();
	{
		/* Increment the RTOS tick. */
		if( xTaskIncrementTick() != pdFALSE )
 8003bd0:	f7fe ff88 	bl	8002ae4 <xTaskIncrementTick>
 8003bd4:	4603      	mov	r3, r0
 8003bd6:	2b00      	cmp	r3, #0
 8003bd8:	d003      	beq.n	8003be2 <SysTick_Handler+0x2a>
		{
			/* A context switch is required.  Context switching is performed in
			the PendSV interrupt.  Pend the PendSV interrupt. */
			portNVIC_INT_CTRL_REG = portNVIC_PENDSVSET_BIT;
 8003bda:	4b06      	ldr	r3, [pc, #24]	; (8003bf4 <SysTick_Handler+0x3c>)
 8003bdc:	f04f 5280 	mov.w	r2, #268435456	; 0x10000000
 8003be0:	601a      	str	r2, [r3, #0]
 8003be2:	2300      	movs	r3, #0
 8003be4:	603b      	str	r3, [r7, #0]
	__asm volatile
 8003be6:	683b      	ldr	r3, [r7, #0]
 8003be8:	f383 8811 	msr	BASEPRI, r3
		}
	}
	portENABLE_INTERRUPTS();
}
 8003bec:	bf00      	nop
 8003bee:	3708      	adds	r7, #8
 8003bf0:	46bd      	mov	sp, r7
 8003bf2:	bd80      	pop	{r7, pc}
 8003bf4:	e000ed04 	.word	0xe000ed04

08003bf8 <vPortSetupTimerInterrupt>:
/*
 * Setup the systick timer to generate the tick interrupts at the required
 * frequency.
 */
__attribute__(( weak )) void vPortSetupTimerInterrupt( void )
{
 8003bf8:	b480      	push	{r7}
 8003bfa:	af00      	add	r7, sp, #0
		ulStoppedTimerCompensation = portMISSED_COUNTS_FACTOR / ( configCPU_CLOCK_HZ / configSYSTICK_CLOCK_HZ );
	}
	#endif /* configUSE_TICKLESS_IDLE */

	/* Stop and clear the SysTick. */
	portNVIC_SYSTICK_CTRL_REG = 0UL;
 8003bfc:	4b0a      	ldr	r3, [pc, #40]	; (8003c28 <vPortSetupTimerInterrupt+0x30>)
 8003bfe:	2200      	movs	r2, #0
 8003c00:	601a      	str	r2, [r3, #0]
	portNVIC_SYSTICK_CURRENT_VALUE_REG = 0UL;
 8003c02:	4b0a      	ldr	r3, [pc, #40]	; (8003c2c <vPortSetupTimerInterrupt+0x34>)
 8003c04:	2200      	movs	r2, #0
 8003c06:	601a      	str	r2, [r3, #0]

	/* Configure SysTick to interrupt at the requested rate. */
	portNVIC_SYSTICK_LOAD_REG = ( configSYSTICK_CLOCK_HZ / configTICK_RATE_HZ ) - 1UL;
 8003c08:	4b09      	ldr	r3, [pc, #36]	; (8003c30 <vPortSetupTimerInterrupt+0x38>)
 8003c0a:	681b      	ldr	r3, [r3, #0]
 8003c0c:	4a09      	ldr	r2, [pc, #36]	; (8003c34 <vPortSetupTimerInterrupt+0x3c>)
 8003c0e:	fba2 2303 	umull	r2, r3, r2, r3
 8003c12:	099b      	lsrs	r3, r3, #6
 8003c14:	4a08      	ldr	r2, [pc, #32]	; (8003c38 <vPortSetupTimerInterrupt+0x40>)
 8003c16:	3b01      	subs	r3, #1
 8003c18:	6013      	str	r3, [r2, #0]
	portNVIC_SYSTICK_CTRL_REG = ( portNVIC_SYSTICK_CLK_BIT | portNVIC_SYSTICK_INT_BIT | portNVIC_SYSTICK_ENABLE_BIT );
 8003c1a:	4b03      	ldr	r3, [pc, #12]	; (8003c28 <vPortSetupTimerInterrupt+0x30>)
 8003c1c:	2207      	movs	r2, #7
 8003c1e:	601a      	str	r2, [r3, #0]
}
 8003c20:	bf00      	nop
 8003c22:	46bd      	mov	sp, r7
 8003c24:	bc80      	pop	{r7}
 8003c26:	4770      	bx	lr
 8003c28:	e000e010 	.word	0xe000e010
 8003c2c:	e000e018 	.word	0xe000e018
 8003c30:	20000000 	.word	0x20000000
 8003c34:	10624dd3 	.word	0x10624dd3
 8003c38:	e000e014 	.word	0xe000e014

08003c3c <vPortValidateInterruptPriority>:
/*-----------------------------------------------------------*/

#if( configASSERT_DEFINED == 1 )

	void vPortValidateInterruptPriority( void )
	{
 8003c3c:	b480      	push	{r7}
 8003c3e:	b085      	sub	sp, #20
 8003c40:	af00      	add	r7, sp, #0
	uint32_t ulCurrentInterrupt;
	uint8_t ucCurrentPriority;

		/* Obtain the number of the currently executing interrupt. */
		__asm volatile( "mrs %0, ipsr" : "=r"( ulCurrentInterrupt ) :: "memory" );
 8003c42:	f3ef 8305 	mrs	r3, IPSR
 8003c46:	60fb      	str	r3, [r7, #12]

		/* Is the interrupt number a user defined interrupt? */
		if( ulCurrentInterrupt >= portFIRST_USER_INTERRUPT_NUMBER )
 8003c48:	68fb      	ldr	r3, [r7, #12]
 8003c4a:	2b0f      	cmp	r3, #15
 8003c4c:	d913      	bls.n	8003c76 <vPortValidateInterruptPriority+0x3a>
		{
			/* Look up the interrupt's priority. */
			ucCurrentPriority = pcInterruptPriorityRegisters[ ulCurrentInterrupt ];
 8003c4e:	4a15      	ldr	r2, [pc, #84]	; (8003ca4 <vPortValidateInterruptPriority+0x68>)
 8003c50:	68fb      	ldr	r3, [r7, #12]
 8003c52:	4413      	add	r3, r2
 8003c54:	781b      	ldrb	r3, [r3, #0]
 8003c56:	72fb      	strb	r3, [r7, #11]
			interrupt entry is as fast and simple as possible.

			The following links provide detailed information:
			http://www.freertos.org/RTOS-Cortex-M3-M4.html
			http://www.freertos.org/FAQHelp.html */
			configASSERT( ucCurrentPriority >= ucMaxSysCallPriority );
 8003c58:	4b13      	ldr	r3, [pc, #76]	; (8003ca8 <vPortValidateInterruptPriority+0x6c>)
 8003c5a:	781b      	ldrb	r3, [r3, #0]
 8003c5c:	7afa      	ldrb	r2, [r7, #11]
 8003c5e:	429a      	cmp	r2, r3
 8003c60:	d209      	bcs.n	8003c76 <vPortValidateInterruptPriority+0x3a>
	__asm volatile
 8003c62:	f04f 0350 	mov.w	r3, #80	; 0x50
 8003c66:	f383 8811 	msr	BASEPRI, r3
 8003c6a:	f3bf 8f6f 	isb	sy
 8003c6e:	f3bf 8f4f 	dsb	sy
 8003c72:	607b      	str	r3, [r7, #4]
 8003c74:	e7fe      	b.n	8003c74 <vPortValidateInterruptPriority+0x38>
		configuration then the correct setting can be achieved on all Cortex-M
		devices by calling NVIC_SetPriorityGrouping( 0 ); before starting the
		scheduler.  Note however that some vendor specific peripheral libraries
		assume a non-zero priority group setting, in which cases using a value
		of zero will result in unpredictable behaviour. */
		configASSERT( ( portAIRCR_REG & portPRIORITY_GROUP_MASK ) <= ulMaxPRIGROUPValue );
 8003c76:	4b0d      	ldr	r3, [pc, #52]	; (8003cac <vPortValidateInterruptPriority+0x70>)
 8003c78:	681b      	ldr	r3, [r3, #0]
 8003c7a:	f403 62e0 	and.w	r2, r3, #1792	; 0x700
 8003c7e:	4b0c      	ldr	r3, [pc, #48]	; (8003cb0 <vPortValidateInterruptPriority+0x74>)
 8003c80:	681b      	ldr	r3, [r3, #0]
 8003c82:	429a      	cmp	r2, r3
 8003c84:	d909      	bls.n	8003c9a <vPortValidateInterruptPriority+0x5e>
 8003c86:	f04f 0350 	mov.w	r3, #80	; 0x50
 8003c8a:	f383 8811 	msr	BASEPRI, r3
 8003c8e:	f3bf 8f6f 	isb	sy
 8003c92:	f3bf 8f4f 	dsb	sy
 8003c96:	603b      	str	r3, [r7, #0]
 8003c98:	e7fe      	b.n	8003c98 <vPortValidateInterruptPriority+0x5c>
	}
 8003c9a:	bf00      	nop
 8003c9c:	3714      	adds	r7, #20
 8003c9e:	46bd      	mov	sp, r7
 8003ca0:	bc80      	pop	{r7}
 8003ca2:	4770      	bx	lr
 8003ca4:	e000e3f0 	.word	0xe000e3f0
 8003ca8:	20000d10 	.word	0x20000d10
 8003cac:	e000ed0c 	.word	0xe000ed0c
 8003cb0:	20000d14 	.word	0x20000d14

08003cb4 <pvPortMalloc>:
static size_t xBlockAllocatedBit = 0;

/*-----------------------------------------------------------*/

void *pvPortMalloc( size_t xWantedSize )
{
 8003cb4:	b580      	push	{r7, lr}
 8003cb6:	b08a      	sub	sp, #40	; 0x28
 8003cb8:	af00      	add	r7, sp, #0
 8003cba:	6078      	str	r0, [r7, #4]
BlockLink_t *pxBlock, *pxPreviousBlock, *pxNewBlockLink;
void *pvReturn = NULL;
 8003cbc:	2300      	movs	r3, #0
 8003cbe:	61fb      	str	r3, [r7, #28]

	vTaskSuspendAll();
 8003cc0:	f7fe fe58 	bl	8002974 <vTaskSuspendAll>
	{
		/* If this is the first call to malloc then the heap will require
		initialisation to setup the list of free blocks. */
		if( pxEnd == NULL )
 8003cc4:	4b57      	ldr	r3, [pc, #348]	; (8003e24 <pvPortMalloc+0x170>)
 8003cc6:	681b      	ldr	r3, [r3, #0]
 8003cc8:	2b00      	cmp	r3, #0
 8003cca:	d101      	bne.n	8003cd0 <pvPortMalloc+0x1c>
		{
			prvHeapInit();
 8003ccc:	f000 f90c 	bl	8003ee8 <prvHeapInit>

		/* Check the requested block size is not so large that the top bit is
		set.  The top bit of the block size member of the BlockLink_t structure
		is used to determine who owns the block - the application or the
		kernel, so it must be free. */
		if( ( xWantedSize & xBlockAllocatedBit ) == 0 )
 8003cd0:	4b55      	ldr	r3, [pc, #340]	; (8003e28 <pvPortMalloc+0x174>)
 8003cd2:	681a      	ldr	r2, [r3, #0]
 8003cd4:	687b      	ldr	r3, [r7, #4]
 8003cd6:	4013      	ands	r3, r2
 8003cd8:	2b00      	cmp	r3, #0
 8003cda:	f040 808c 	bne.w	8003df6 <pvPortMalloc+0x142>
		{
			/* The wanted size is increased so it can contain a BlockLink_t
			structure in addition to the requested amount of bytes. */
			if( xWantedSize > 0 )
 8003cde:	687b      	ldr	r3, [r7, #4]
 8003ce0:	2b00      	cmp	r3, #0
 8003ce2:	d01c      	beq.n	8003d1e <pvPortMalloc+0x6a>
			{
				xWantedSize += xHeapStructSize;
 8003ce4:	2208      	movs	r2, #8
 8003ce6:	687b      	ldr	r3, [r7, #4]
 8003ce8:	4413      	add	r3, r2
 8003cea:	607b      	str	r3, [r7, #4]

				/* Ensure that blocks are always aligned to the required number
				of bytes. */
				if( ( xWantedSize & portBYTE_ALIGNMENT_MASK ) != 0x00 )
 8003cec:	687b      	ldr	r3, [r7, #4]
 8003cee:	f003 0307 	and.w	r3, r3, #7
 8003cf2:	2b00      	cmp	r3, #0
 8003cf4:	d013      	beq.n	8003d1e <pvPortMalloc+0x6a>
				{
					/* Byte alignment required. */
					xWantedSize += ( portBYTE_ALIGNMENT - ( xWantedSize & portBYTE_ALIGNMENT_MASK ) );
 8003cf6:	687b      	ldr	r3, [r7, #4]
 8003cf8:	f023 0307 	bic.w	r3, r3, #7
 8003cfc:	3308      	adds	r3, #8
 8003cfe:	607b      	str	r3, [r7, #4]
					configASSERT( ( xWantedSize & portBYTE_ALIGNMENT_MASK ) == 0 );
 8003d00:	687b      	ldr	r3, [r7, #4]
 8003d02:	f003 0307 	and.w	r3, r3, #7
 8003d06:	2b00      	cmp	r3, #0
 8003d08:	d009      	beq.n	8003d1e <pvPortMalloc+0x6a>
 8003d0a:	f04f 0350 	mov.w	r3, #80	; 0x50
 8003d0e:	f383 8811 	msr	BASEPRI, r3
 8003d12:	f3bf 8f6f 	isb	sy
 8003d16:	f3bf 8f4f 	dsb	sy
 8003d1a:	617b      	str	r3, [r7, #20]
 8003d1c:	e7fe      	b.n	8003d1c <pvPortMalloc+0x68>
			else
			{
				mtCOVERAGE_TEST_MARKER();
			}

			if( ( xWantedSize > 0 ) && ( xWantedSize <= xFreeBytesRemaining ) )
 8003d1e:	687b      	ldr	r3, [r7, #4]
 8003d20:	2b00      	cmp	r3, #0
 8003d22:	d068      	beq.n	8003df6 <pvPortMalloc+0x142>
 8003d24:	4b41      	ldr	r3, [pc, #260]	; (8003e2c <pvPortMalloc+0x178>)
 8003d26:	681b      	ldr	r3, [r3, #0]
 8003d28:	687a      	ldr	r2, [r7, #4]
 8003d2a:	429a      	cmp	r2, r3
 8003d2c:	d863      	bhi.n	8003df6 <pvPortMalloc+0x142>
			{
				/* Traverse the list from the start	(lowest address) block until
				one	of adequate size is found. */
				pxPreviousBlock = &xStart;
 8003d2e:	4b40      	ldr	r3, [pc, #256]	; (8003e30 <pvPortMalloc+0x17c>)
 8003d30:	623b      	str	r3, [r7, #32]
				pxBlock = xStart.pxNextFreeBlock;
 8003d32:	4b3f      	ldr	r3, [pc, #252]	; (8003e30 <pvPortMalloc+0x17c>)
 8003d34:	681b      	ldr	r3, [r3, #0]
 8003d36:	627b      	str	r3, [r7, #36]	; 0x24
				while( ( pxBlock->xBlockSize < xWantedSize ) && ( pxBlock->pxNextFreeBlock != NULL ) )
 8003d38:	e004      	b.n	8003d44 <pvPortMalloc+0x90>
				{
					pxPreviousBlock = pxBlock;
 8003d3a:	6a7b      	ldr	r3, [r7, #36]	; 0x24
 8003d3c:	623b      	str	r3, [r7, #32]
					pxBlock = pxBlock->pxNextFreeBlock;
 8003d3e:	6a7b      	ldr	r3, [r7, #36]	; 0x24
 8003d40:	681b      	ldr	r3, [r3, #0]
 8003d42:	627b      	str	r3, [r7, #36]	; 0x24
				while( ( pxBlock->xBlockSize < xWantedSize ) && ( pxBlock->pxNextFreeBlock != NULL ) )
 8003d44:	6a7b      	ldr	r3, [r7, #36]	; 0x24
 8003d46:	685b      	ldr	r3, [r3, #4]
 8003d48:	687a      	ldr	r2, [r7, #4]
 8003d4a:	429a      	cmp	r2, r3
 8003d4c:	d903      	bls.n	8003d56 <pvPortMalloc+0xa2>
 8003d4e:	6a7b      	ldr	r3, [r7, #36]	; 0x24
 8003d50:	681b      	ldr	r3, [r3, #0]
 8003d52:	2b00      	cmp	r3, #0
 8003d54:	d1f1      	bne.n	8003d3a <pvPortMalloc+0x86>
				}

				/* If the end marker was reached then a block of adequate size
				was	not found. */
				if( pxBlock != pxEnd )
 8003d56:	4b33      	ldr	r3, [pc, #204]	; (8003e24 <pvPortMalloc+0x170>)
 8003d58:	681b      	ldr	r3, [r3, #0]
 8003d5a:	6a7a      	ldr	r2, [r7, #36]	; 0x24
 8003d5c:	429a      	cmp	r2, r3
 8003d5e:	d04a      	beq.n	8003df6 <pvPortMalloc+0x142>
				{
					/* Return the memory space pointed to - jumping over the
					BlockLink_t structure at its start. */
					pvReturn = ( void * ) ( ( ( uint8_t * ) pxPreviousBlock->pxNextFreeBlock ) + xHeapStructSize );
 8003d60:	6a3b      	ldr	r3, [r7, #32]
 8003d62:	681b      	ldr	r3, [r3, #0]
 8003d64:	2208      	movs	r2, #8
 8003d66:	4413      	add	r3, r2
 8003d68:	61fb      	str	r3, [r7, #28]

					/* This block is being returned for use so must be taken out
					of the list of free blocks. */
					pxPreviousBlock->pxNextFreeBlock = pxBlock->pxNextFreeBlock;
 8003d6a:	6a7b      	ldr	r3, [r7, #36]	; 0x24
 8003d6c:	681a      	ldr	r2, [r3, #0]
 8003d6e:	6a3b      	ldr	r3, [r7, #32]
 8003d70:	601a      	str	r2, [r3, #0]

					/* If the block is larger than required it can be split into
					two. */
					if( ( pxBlock->xBlockSize - xWantedSize ) > heapMINIMUM_BLOCK_SIZE )
 8003d72:	6a7b      	ldr	r3, [r7, #36]	; 0x24
 8003d74:	685a      	ldr	r2, [r3, #4]
 8003d76:	687b      	ldr	r3, [r7, #4]
 8003d78:	1ad2      	subs	r2, r2, r3
 8003d7a:	2308      	movs	r3, #8
 8003d7c:	005b      	lsls	r3, r3, #1
 8003d7e:	429a      	cmp	r2, r3
 8003d80:	d91e      	bls.n	8003dc0 <pvPortMalloc+0x10c>
					{
						/* This block is to be split into two.  Create a new
						block following the number of bytes requested. The void
						cast is used to prevent byte alignment warnings from the
						compiler. */
						pxNewBlockLink = ( void * ) ( ( ( uint8_t * ) pxBlock ) + xWantedSize );
 8003d82:	6a7a      	ldr	r2, [r7, #36]	; 0x24
 8003d84:	687b      	ldr	r3, [r7, #4]
 8003d86:	4413      	add	r3, r2
 8003d88:	61bb      	str	r3, [r7, #24]
						configASSERT( ( ( ( size_t ) pxNewBlockLink ) & portBYTE_ALIGNMENT_MASK ) == 0 );
 8003d8a:	69bb      	ldr	r3, [r7, #24]
 8003d8c:	f003 0307 	and.w	r3, r3, #7
 8003d90:	2b00      	cmp	r3, #0
 8003d92:	d009      	beq.n	8003da8 <pvPortMalloc+0xf4>
 8003d94:	f04f 0350 	mov.w	r3, #80	; 0x50
 8003d98:	f383 8811 	msr	BASEPRI, r3
 8003d9c:	f3bf 8f6f 	isb	sy
 8003da0:	f3bf 8f4f 	dsb	sy
 8003da4:	613b      	str	r3, [r7, #16]
 8003da6:	e7fe      	b.n	8003da6 <pvPortMalloc+0xf2>

						/* Calculate the sizes of two blocks split from the
						single block. */
						pxNewBlockLink->xBlockSize = pxBlock->xBlockSize - xWantedSize;
 8003da8:	6a7b      	ldr	r3, [r7, #36]	; 0x24
 8003daa:	685a      	ldr	r2, [r3, #4]
 8003dac:	687b      	ldr	r3, [r7, #4]
 8003dae:	1ad2      	subs	r2, r2, r3
 8003db0:	69bb      	ldr	r3, [r7, #24]
 8003db2:	605a      	str	r2, [r3, #4]
						pxBlock->xBlockSize = xWantedSize;
 8003db4:	6a7b      	ldr	r3, [r7, #36]	; 0x24
 8003db6:	687a      	ldr	r2, [r7, #4]
 8003db8:	605a      	str	r2, [r3, #4]

						/* Insert the new block into the list of free blocks. */
						prvInsertBlockIntoFreeList( pxNewBlockLink );
 8003dba:	69b8      	ldr	r0, [r7, #24]
 8003dbc:	f000 f8f6 	bl	8003fac <prvInsertBlockIntoFreeList>
					else
					{
						mtCOVERAGE_TEST_MARKER();
					}

					xFreeBytesRemaining -= pxBlock->xBlockSize;
 8003dc0:	4b1a      	ldr	r3, [pc, #104]	; (8003e2c <pvPortMalloc+0x178>)
 8003dc2:	681a      	ldr	r2, [r3, #0]
 8003dc4:	6a7b      	ldr	r3, [r7, #36]	; 0x24
 8003dc6:	685b      	ldr	r3, [r3, #4]
 8003dc8:	1ad3      	subs	r3, r2, r3
 8003dca:	4a18      	ldr	r2, [pc, #96]	; (8003e2c <pvPortMalloc+0x178>)
 8003dcc:	6013      	str	r3, [r2, #0]

					if( xFreeBytesRemaining < xMinimumEverFreeBytesRemaining )
 8003dce:	4b17      	ldr	r3, [pc, #92]	; (8003e2c <pvPortMalloc+0x178>)
 8003dd0:	681a      	ldr	r2, [r3, #0]
 8003dd2:	4b18      	ldr	r3, [pc, #96]	; (8003e34 <pvPortMalloc+0x180>)
 8003dd4:	681b      	ldr	r3, [r3, #0]
 8003dd6:	429a      	cmp	r2, r3
 8003dd8:	d203      	bcs.n	8003de2 <pvPortMalloc+0x12e>
					{
						xMinimumEverFreeBytesRemaining = xFreeBytesRemaining;
 8003dda:	4b14      	ldr	r3, [pc, #80]	; (8003e2c <pvPortMalloc+0x178>)
 8003ddc:	681b      	ldr	r3, [r3, #0]
 8003dde:	4a15      	ldr	r2, [pc, #84]	; (8003e34 <pvPortMalloc+0x180>)
 8003de0:	6013      	str	r3, [r2, #0]
						mtCOVERAGE_TEST_MARKER();
					}

					/* The block is being returned - it is allocated and owned
					by the application and has no "next" block. */
					pxBlock->xBlockSize |= xBlockAllocatedBit;
 8003de2:	6a7b      	ldr	r3, [r7, #36]	; 0x24
 8003de4:	685a      	ldr	r2, [r3, #4]
 8003de6:	4b10      	ldr	r3, [pc, #64]	; (8003e28 <pvPortMalloc+0x174>)
 8003de8:	681b      	ldr	r3, [r3, #0]
 8003dea:	431a      	orrs	r2, r3
 8003dec:	6a7b      	ldr	r3, [r7, #36]	; 0x24
 8003dee:	605a      	str	r2, [r3, #4]
					pxBlock->pxNextFreeBlock = NULL;
 8003df0:	6a7b      	ldr	r3, [r7, #36]	; 0x24
 8003df2:	2200      	movs	r2, #0
 8003df4:	601a      	str	r2, [r3, #0]
			mtCOVERAGE_TEST_MARKER();
		}

		traceMALLOC( pvReturn, xWantedSize );
	}
	( void ) xTaskResumeAll();
 8003df6:	f7fe fdcb 	bl	8002990 <xTaskResumeAll>
			mtCOVERAGE_TEST_MARKER();
		}
	}
	#endif

	configASSERT( ( ( ( size_t ) pvReturn ) & ( size_t ) portBYTE_ALIGNMENT_MASK ) == 0 );
 8003dfa:	69fb      	ldr	r3, [r7, #28]
 8003dfc:	f003 0307 	and.w	r3, r3, #7
 8003e00:	2b00      	cmp	r3, #0
 8003e02:	d009      	beq.n	8003e18 <pvPortMalloc+0x164>
 8003e04:	f04f 0350 	mov.w	r3, #80	; 0x50
 8003e08:	f383 8811 	msr	BASEPRI, r3
 8003e0c:	f3bf 8f6f 	isb	sy
 8003e10:	f3bf 8f4f 	dsb	sy
 8003e14:	60fb      	str	r3, [r7, #12]
 8003e16:	e7fe      	b.n	8003e16 <pvPortMalloc+0x162>
	return pvReturn;
 8003e18:	69fb      	ldr	r3, [r7, #28]
}
 8003e1a:	4618      	mov	r0, r3
 8003e1c:	3728      	adds	r7, #40	; 0x28
 8003e1e:	46bd      	mov	sp, r7
 8003e20:	bd80      	pop	{r7, pc}
 8003e22:	bf00      	nop
 8003e24:	20001920 	.word	0x20001920
 8003e28:	2000192c 	.word	0x2000192c
 8003e2c:	20001924 	.word	0x20001924
 8003e30:	20001918 	.word	0x20001918
 8003e34:	20001928 	.word	0x20001928

08003e38 <vPortFree>:
/*-----------------------------------------------------------*/

void vPortFree( void *pv )
{
 8003e38:	b580      	push	{r7, lr}
 8003e3a:	b086      	sub	sp, #24
 8003e3c:	af00      	add	r7, sp, #0
 8003e3e:	6078      	str	r0, [r7, #4]
uint8_t *puc = ( uint8_t * ) pv;
 8003e40:	687b      	ldr	r3, [r7, #4]
 8003e42:	617b      	str	r3, [r7, #20]
BlockLink_t *pxLink;

	if( pv != NULL )
 8003e44:	687b      	ldr	r3, [r7, #4]
 8003e46:	2b00      	cmp	r3, #0
 8003e48:	d046      	beq.n	8003ed8 <vPortFree+0xa0>
	{
		/* The memory being freed will have an BlockLink_t structure immediately
		before it. */
		puc -= xHeapStructSize;
 8003e4a:	2308      	movs	r3, #8
 8003e4c:	425b      	negs	r3, r3
 8003e4e:	697a      	ldr	r2, [r7, #20]
 8003e50:	4413      	add	r3, r2
 8003e52:	617b      	str	r3, [r7, #20]

		/* This casting is to keep the compiler from issuing warnings. */
		pxLink = ( void * ) puc;
 8003e54:	697b      	ldr	r3, [r7, #20]
 8003e56:	613b      	str	r3, [r7, #16]

		/* Check the block is actually allocated. */
		configASSERT( ( pxLink->xBlockSize & xBlockAllocatedBit ) != 0 );
 8003e58:	693b      	ldr	r3, [r7, #16]
 8003e5a:	685a      	ldr	r2, [r3, #4]
 8003e5c:	4b20      	ldr	r3, [pc, #128]	; (8003ee0 <vPortFree+0xa8>)
 8003e5e:	681b      	ldr	r3, [r3, #0]
 8003e60:	4013      	ands	r3, r2
 8003e62:	2b00      	cmp	r3, #0
 8003e64:	d109      	bne.n	8003e7a <vPortFree+0x42>
 8003e66:	f04f 0350 	mov.w	r3, #80	; 0x50
 8003e6a:	f383 8811 	msr	BASEPRI, r3
 8003e6e:	f3bf 8f6f 	isb	sy
 8003e72:	f3bf 8f4f 	dsb	sy
 8003e76:	60fb      	str	r3, [r7, #12]
 8003e78:	e7fe      	b.n	8003e78 <vPortFree+0x40>
		configASSERT( pxLink->pxNextFreeBlock == NULL );
 8003e7a:	693b      	ldr	r3, [r7, #16]
 8003e7c:	681b      	ldr	r3, [r3, #0]
 8003e7e:	2b00      	cmp	r3, #0
 8003e80:	d009      	beq.n	8003e96 <vPortFree+0x5e>
 8003e82:	f04f 0350 	mov.w	r3, #80	; 0x50
 8003e86:	f383 8811 	msr	BASEPRI, r3
 8003e8a:	f3bf 8f6f 	isb	sy
 8003e8e:	f3bf 8f4f 	dsb	sy
 8003e92:	60bb      	str	r3, [r7, #8]
 8003e94:	e7fe      	b.n	8003e94 <vPortFree+0x5c>

		if( ( pxLink->xBlockSize & xBlockAllocatedBit ) != 0 )
 8003e96:	693b      	ldr	r3, [r7, #16]
 8003e98:	685a      	ldr	r2, [r3, #4]
 8003e9a:	4b11      	ldr	r3, [pc, #68]	; (8003ee0 <vPortFree+0xa8>)
 8003e9c:	681b      	ldr	r3, [r3, #0]
 8003e9e:	4013      	ands	r3, r2
 8003ea0:	2b00      	cmp	r3, #0
 8003ea2:	d019      	beq.n	8003ed8 <vPortFree+0xa0>
		{
			if( pxLink->pxNextFreeBlock == NULL )
 8003ea4:	693b      	ldr	r3, [r7, #16]
 8003ea6:	681b      	ldr	r3, [r3, #0]
 8003ea8:	2b00      	cmp	r3, #0
 8003eaa:	d115      	bne.n	8003ed8 <vPortFree+0xa0>
			{
				/* The block is being returned to the heap - it is no longer
				allocated. */
				pxLink->xBlockSize &= ~xBlockAllocatedBit;
 8003eac:	693b      	ldr	r3, [r7, #16]
 8003eae:	685a      	ldr	r2, [r3, #4]
 8003eb0:	4b0b      	ldr	r3, [pc, #44]	; (8003ee0 <vPortFree+0xa8>)
 8003eb2:	681b      	ldr	r3, [r3, #0]
 8003eb4:	43db      	mvns	r3, r3
 8003eb6:	401a      	ands	r2, r3
 8003eb8:	693b      	ldr	r3, [r7, #16]
 8003eba:	605a      	str	r2, [r3, #4]

				vTaskSuspendAll();
 8003ebc:	f7fe fd5a 	bl	8002974 <vTaskSuspendAll>
				{
					/* Add this block to the list of free blocks. */
					xFreeBytesRemaining += pxLink->xBlockSize;
 8003ec0:	693b      	ldr	r3, [r7, #16]
 8003ec2:	685a      	ldr	r2, [r3, #4]
 8003ec4:	4b07      	ldr	r3, [pc, #28]	; (8003ee4 <vPortFree+0xac>)
 8003ec6:	681b      	ldr	r3, [r3, #0]
 8003ec8:	4413      	add	r3, r2
 8003eca:	4a06      	ldr	r2, [pc, #24]	; (8003ee4 <vPortFree+0xac>)
 8003ecc:	6013      	str	r3, [r2, #0]
					traceFREE( pv, pxLink->xBlockSize );
					prvInsertBlockIntoFreeList( ( ( BlockLink_t * ) pxLink ) );
 8003ece:	6938      	ldr	r0, [r7, #16]
 8003ed0:	f000 f86c 	bl	8003fac <prvInsertBlockIntoFreeList>
				}
				( void ) xTaskResumeAll();
 8003ed4:	f7fe fd5c 	bl	8002990 <xTaskResumeAll>
		else
		{
			mtCOVERAGE_TEST_MARKER();
		}
	}
}
 8003ed8:	bf00      	nop
 8003eda:	3718      	adds	r7, #24
 8003edc:	46bd      	mov	sp, r7
 8003ede:	bd80      	pop	{r7, pc}
 8003ee0:	2000192c 	.word	0x2000192c
 8003ee4:	20001924 	.word	0x20001924

08003ee8 <prvHeapInit>:
	/* This just exists to keep the linker quiet. */
}
/*-----------------------------------------------------------*/

static void prvHeapInit( void )
{
 8003ee8:	b480      	push	{r7}
 8003eea:	b085      	sub	sp, #20
 8003eec:	af00      	add	r7, sp, #0
BlockLink_t *pxFirstFreeBlock;
uint8_t *pucAlignedHeap;
size_t uxAddress;
size_t xTotalHeapSize = configTOTAL_HEAP_SIZE;
 8003eee:	f44f 6340 	mov.w	r3, #3072	; 0xc00
 8003ef2:	60bb      	str	r3, [r7, #8]

	/* Ensure the heap starts on a correctly aligned boundary. */
	uxAddress = ( size_t ) ucHeap;
 8003ef4:	4b27      	ldr	r3, [pc, #156]	; (8003f94 <prvHeapInit+0xac>)
 8003ef6:	60fb      	str	r3, [r7, #12]

	if( ( uxAddress & portBYTE_ALIGNMENT_MASK ) != 0 )
 8003ef8:	68fb      	ldr	r3, [r7, #12]
 8003efa:	f003 0307 	and.w	r3, r3, #7
 8003efe:	2b00      	cmp	r3, #0
 8003f00:	d00c      	beq.n	8003f1c <prvHeapInit+0x34>
	{
		uxAddress += ( portBYTE_ALIGNMENT - 1 );
 8003f02:	68fb      	ldr	r3, [r7, #12]
 8003f04:	3307      	adds	r3, #7
 8003f06:	60fb      	str	r3, [r7, #12]
		uxAddress &= ~( ( size_t ) portBYTE_ALIGNMENT_MASK );
 8003f08:	68fb      	ldr	r3, [r7, #12]
 8003f0a:	f023 0307 	bic.w	r3, r3, #7
 8003f0e:	60fb      	str	r3, [r7, #12]
		xTotalHeapSize -= uxAddress - ( size_t ) ucHeap;
 8003f10:	68ba      	ldr	r2, [r7, #8]
 8003f12:	68fb      	ldr	r3, [r7, #12]
 8003f14:	1ad3      	subs	r3, r2, r3
 8003f16:	4a1f      	ldr	r2, [pc, #124]	; (8003f94 <prvHeapInit+0xac>)
 8003f18:	4413      	add	r3, r2
 8003f1a:	60bb      	str	r3, [r7, #8]
	}

	pucAlignedHeap = ( uint8_t * ) uxAddress;
 8003f1c:	68fb      	ldr	r3, [r7, #12]
 8003f1e:	607b      	str	r3, [r7, #4]

	/* xStart is used to hold a pointer to the first item in the list of free
	blocks.  The void cast is used to prevent compiler warnings. */
	xStart.pxNextFreeBlock = ( void * ) pucAlignedHeap;
 8003f20:	4a1d      	ldr	r2, [pc, #116]	; (8003f98 <prvHeapInit+0xb0>)
 8003f22:	687b      	ldr	r3, [r7, #4]
 8003f24:	6013      	str	r3, [r2, #0]
	xStart.xBlockSize = ( size_t ) 0;
 8003f26:	4b1c      	ldr	r3, [pc, #112]	; (8003f98 <prvHeapInit+0xb0>)
 8003f28:	2200      	movs	r2, #0
 8003f2a:	605a      	str	r2, [r3, #4]

	/* pxEnd is used to mark the end of the list of free blocks and is inserted
	at the end of the heap space. */
	uxAddress = ( ( size_t ) pucAlignedHeap ) + xTotalHeapSize;
 8003f2c:	687b      	ldr	r3, [r7, #4]
 8003f2e:	68ba      	ldr	r2, [r7, #8]
 8003f30:	4413      	add	r3, r2
 8003f32:	60fb      	str	r3, [r7, #12]
	uxAddress -= xHeapStructSize;
 8003f34:	2208      	movs	r2, #8
 8003f36:	68fb      	ldr	r3, [r7, #12]
 8003f38:	1a9b      	subs	r3, r3, r2
 8003f3a:	60fb      	str	r3, [r7, #12]
	uxAddress &= ~( ( size_t ) portBYTE_ALIGNMENT_MASK );
 8003f3c:	68fb      	ldr	r3, [r7, #12]
 8003f3e:	f023 0307 	bic.w	r3, r3, #7
 8003f42:	60fb      	str	r3, [r7, #12]
	pxEnd = ( void * ) uxAddress;
 8003f44:	68fb      	ldr	r3, [r7, #12]
 8003f46:	4a15      	ldr	r2, [pc, #84]	; (8003f9c <prvHeapInit+0xb4>)
 8003f48:	6013      	str	r3, [r2, #0]
	pxEnd->xBlockSize = 0;
 8003f4a:	4b14      	ldr	r3, [pc, #80]	; (8003f9c <prvHeapInit+0xb4>)
 8003f4c:	681b      	ldr	r3, [r3, #0]
 8003f4e:	2200      	movs	r2, #0
 8003f50:	605a      	str	r2, [r3, #4]
	pxEnd->pxNextFreeBlock = NULL;
 8003f52:	4b12      	ldr	r3, [pc, #72]	; (8003f9c <prvHeapInit+0xb4>)
 8003f54:	681b      	ldr	r3, [r3, #0]
 8003f56:	2200      	movs	r2, #0
 8003f58:	601a      	str	r2, [r3, #0]

	/* To start with there is a single free block that is sized to take up the
	entire heap space, minus the space taken by pxEnd. */
	pxFirstFreeBlock = ( void * ) pucAlignedHeap;
 8003f5a:	687b      	ldr	r3, [r7, #4]
 8003f5c:	603b      	str	r3, [r7, #0]
	pxFirstFreeBlock->xBlockSize = uxAddress - ( size_t ) pxFirstFreeBlock;
 8003f5e:	683b      	ldr	r3, [r7, #0]
 8003f60:	68fa      	ldr	r2, [r7, #12]
 8003f62:	1ad2      	subs	r2, r2, r3
 8003f64:	683b      	ldr	r3, [r7, #0]
 8003f66:	605a      	str	r2, [r3, #4]
	pxFirstFreeBlock->pxNextFreeBlock = pxEnd;
 8003f68:	4b0c      	ldr	r3, [pc, #48]	; (8003f9c <prvHeapInit+0xb4>)
 8003f6a:	681a      	ldr	r2, [r3, #0]
 8003f6c:	683b      	ldr	r3, [r7, #0]
 8003f6e:	601a      	str	r2, [r3, #0]

	/* Only one block exists - and it covers the entire usable heap space. */
	xMinimumEverFreeBytesRemaining = pxFirstFreeBlock->xBlockSize;
 8003f70:	683b      	ldr	r3, [r7, #0]
 8003f72:	685b      	ldr	r3, [r3, #4]
 8003f74:	4a0a      	ldr	r2, [pc, #40]	; (8003fa0 <prvHeapInit+0xb8>)
 8003f76:	6013      	str	r3, [r2, #0]
	xFreeBytesRemaining = pxFirstFreeBlock->xBlockSize;
 8003f78:	683b      	ldr	r3, [r7, #0]
 8003f7a:	685b      	ldr	r3, [r3, #4]
 8003f7c:	4a09      	ldr	r2, [pc, #36]	; (8003fa4 <prvHeapInit+0xbc>)
 8003f7e:	6013      	str	r3, [r2, #0]

	/* Work out the position of the top bit in a size_t variable. */
	xBlockAllocatedBit = ( ( size_t ) 1 ) << ( ( sizeof( size_t ) * heapBITS_PER_BYTE ) - 1 );
 8003f80:	4b09      	ldr	r3, [pc, #36]	; (8003fa8 <prvHeapInit+0xc0>)
 8003f82:	f04f 4200 	mov.w	r2, #2147483648	; 0x80000000
 8003f86:	601a      	str	r2, [r3, #0]
}
 8003f88:	bf00      	nop
 8003f8a:	3714      	adds	r7, #20
 8003f8c:	46bd      	mov	sp, r7
 8003f8e:	bc80      	pop	{r7}
 8003f90:	4770      	bx	lr
 8003f92:	bf00      	nop
 8003f94:	20000d18 	.word	0x20000d18
 8003f98:	20001918 	.word	0x20001918
 8003f9c:	20001920 	.word	0x20001920
 8003fa0:	20001928 	.word	0x20001928
 8003fa4:	20001924 	.word	0x20001924
 8003fa8:	2000192c 	.word	0x2000192c

08003fac <prvInsertBlockIntoFreeList>:
/*-----------------------------------------------------------*/

static void prvInsertBlockIntoFreeList( BlockLink_t *pxBlockToInsert )
{
 8003fac:	b480      	push	{r7}
 8003fae:	b085      	sub	sp, #20
 8003fb0:	af00      	add	r7, sp, #0
 8003fb2:	6078      	str	r0, [r7, #4]
BlockLink_t *pxIterator;
uint8_t *puc;

	/* Iterate through the list until a block is found that has a higher address
	than the block being inserted. */
	for( pxIterator = &xStart; pxIterator->pxNextFreeBlock < pxBlockToInsert; pxIterator = pxIterator->pxNextFreeBlock )
 8003fb4:	4b27      	ldr	r3, [pc, #156]	; (8004054 <prvInsertBlockIntoFreeList+0xa8>)
 8003fb6:	60fb      	str	r3, [r7, #12]
 8003fb8:	e002      	b.n	8003fc0 <prvInsertBlockIntoFreeList+0x14>
 8003fba:	68fb      	ldr	r3, [r7, #12]
 8003fbc:	681b      	ldr	r3, [r3, #0]
 8003fbe:	60fb      	str	r3, [r7, #12]
 8003fc0:	68fb      	ldr	r3, [r7, #12]
 8003fc2:	681b      	ldr	r3, [r3, #0]
 8003fc4:	687a      	ldr	r2, [r7, #4]
 8003fc6:	429a      	cmp	r2, r3
 8003fc8:	d8f7      	bhi.n	8003fba <prvInsertBlockIntoFreeList+0xe>
		/* Nothing to do here, just iterate to the right position. */
	}

	/* Do the block being inserted, and the block it is being inserted after
	make a contiguous block of memory? */
	puc = ( uint8_t * ) pxIterator;
 8003fca:	68fb      	ldr	r3, [r7, #12]
 8003fcc:	60bb      	str	r3, [r7, #8]
	if( ( puc + pxIterator->xBlockSize ) == ( uint8_t * ) pxBlockToInsert )
 8003fce:	68fb      	ldr	r3, [r7, #12]
 8003fd0:	685b      	ldr	r3, [r3, #4]
 8003fd2:	68ba      	ldr	r2, [r7, #8]
 8003fd4:	4413      	add	r3, r2
 8003fd6:	687a      	ldr	r2, [r7, #4]
 8003fd8:	429a      	cmp	r2, r3
 8003fda:	d108      	bne.n	8003fee <prvInsertBlockIntoFreeList+0x42>
	{
		pxIterator->xBlockSize += pxBlockToInsert->xBlockSize;
 8003fdc:	68fb      	ldr	r3, [r7, #12]
 8003fde:	685a      	ldr	r2, [r3, #4]
 8003fe0:	687b      	ldr	r3, [r7, #4]
 8003fe2:	685b      	ldr	r3, [r3, #4]
 8003fe4:	441a      	add	r2, r3
 8003fe6:	68fb      	ldr	r3, [r7, #12]
 8003fe8:	605a      	str	r2, [r3, #4]
		pxBlockToInsert = pxIterator;
 8003fea:	68fb      	ldr	r3, [r7, #12]
 8003fec:	607b      	str	r3, [r7, #4]
		mtCOVERAGE_TEST_MARKER();
	}

	/* Do the block being inserted, and the block it is being inserted before
	make a contiguous block of memory? */
	puc = ( uint8_t * ) pxBlockToInsert;
 8003fee:	687b      	ldr	r3, [r7, #4]
 8003ff0:	60bb      	str	r3, [r7, #8]
	if( ( puc + pxBlockToInsert->xBlockSize ) == ( uint8_t * ) pxIterator->pxNextFreeBlock )
 8003ff2:	687b      	ldr	r3, [r7, #4]
 8003ff4:	685b      	ldr	r3, [r3, #4]
 8003ff6:	68ba      	ldr	r2, [r7, #8]
 8003ff8:	441a      	add	r2, r3
 8003ffa:	68fb      	ldr	r3, [r7, #12]
 8003ffc:	681b      	ldr	r3, [r3, #0]
 8003ffe:	429a      	cmp	r2, r3
 8004000:	d118      	bne.n	8004034 <prvInsertBlockIntoFreeList+0x88>
	{
		if( pxIterator->pxNextFreeBlock != pxEnd )
 8004002:	68fb      	ldr	r3, [r7, #12]
 8004004:	681a      	ldr	r2, [r3, #0]
 8004006:	4b14      	ldr	r3, [pc, #80]	; (8004058 <prvInsertBlockIntoFreeList+0xac>)
 8004008:	681b      	ldr	r3, [r3, #0]
 800400a:	429a      	cmp	r2, r3
 800400c:	d00d      	beq.n	800402a <prvInsertBlockIntoFreeList+0x7e>
		{
			/* Form one big block from the two blocks. */
			pxBlockToInsert->xBlockSize += pxIterator->pxNextFreeBlock->xBlockSize;
 800400e:	687b      	ldr	r3, [r7, #4]
 8004010:	685a      	ldr	r2, [r3, #4]
 8004012:	68fb      	ldr	r3, [r7, #12]
 8004014:	681b      	ldr	r3, [r3, #0]
 8004016:	685b      	ldr	r3, [r3, #4]
 8004018:	441a      	add	r2, r3
 800401a:	687b      	ldr	r3, [r7, #4]
 800401c:	605a      	str	r2, [r3, #4]
			pxBlockToInsert->pxNextFreeBlock = pxIterator->pxNextFreeBlock->pxNextFreeBlock;
 800401e:	68fb      	ldr	r3, [r7, #12]
 8004020:	681b      	ldr	r3, [r3, #0]
 8004022:	681a      	ldr	r2, [r3, #0]
 8004024:	687b      	ldr	r3, [r7, #4]
 8004026:	601a      	str	r2, [r3, #0]
 8004028:	e008      	b.n	800403c <prvInsertBlockIntoFreeList+0x90>
		}
		else
		{
			pxBlockToInsert->pxNextFreeBlock = pxEnd;
 800402a:	4b0b      	ldr	r3, [pc, #44]	; (8004058 <prvInsertBlockIntoFreeList+0xac>)
 800402c:	681a      	ldr	r2, [r3, #0]
 800402e:	687b      	ldr	r3, [r7, #4]
 8004030:	601a      	str	r2, [r3, #0]
 8004032:	e003      	b.n	800403c <prvInsertBlockIntoFreeList+0x90>
		}
	}
	else
	{
		pxBlockToInsert->pxNextFreeBlock = pxIterator->pxNextFreeBlock;
 8004034:	68fb      	ldr	r3, [r7, #12]
 8004036:	681a      	ldr	r2, [r3, #0]
 8004038:	687b      	ldr	r3, [r7, #4]
 800403a:	601a      	str	r2, [r3, #0]

	/* If the block being inserted plugged a gab, so was merged with the block
	before and the block after, then it's pxNextFreeBlock pointer will have
	already been set, and should not be set here as that would make it point
	to itself. */
	if( pxIterator != pxBlockToInsert )
 800403c:	68fa      	ldr	r2, [r7, #12]
 800403e:	687b      	ldr	r3, [r7, #4]
 8004040:	429a      	cmp	r2, r3
 8004042:	d002      	beq.n	800404a <prvInsertBlockIntoFreeList+0x9e>
	{
		pxIterator->pxNextFreeBlock = pxBlockToInsert;
 8004044:	68fb      	ldr	r3, [r7, #12]
 8004046:	687a      	ldr	r2, [r7, #4]
 8004048:	601a      	str	r2, [r3, #0]
	}
	else
	{
		mtCOVERAGE_TEST_MARKER();
	}
}
 800404a:	bf00      	nop
 800404c:	3714      	adds	r7, #20
 800404e:	46bd      	mov	sp, r7
 8004050:	bc80      	pop	{r7}
 8004052:	4770      	bx	lr
 8004054:	20001918 	.word	0x20001918
 8004058:	20001920 	.word	0x20001920

0800405c <__libc_init_array>:
 800405c:	b570      	push	{r4, r5, r6, lr}
 800405e:	2500      	movs	r5, #0
 8004060:	4e0c      	ldr	r6, [pc, #48]	; (8004094 <__libc_init_array+0x38>)
 8004062:	4c0d      	ldr	r4, [pc, #52]	; (8004098 <__libc_init_array+0x3c>)
 8004064:	1ba4      	subs	r4, r4, r6
 8004066:	10a4      	asrs	r4, r4, #2
 8004068:	42a5      	cmp	r5, r4
 800406a:	d109      	bne.n	8004080 <__libc_init_array+0x24>
 800406c:	f000 f82e 	bl	80040cc <_init>
 8004070:	2500      	movs	r5, #0
 8004072:	4e0a      	ldr	r6, [pc, #40]	; (800409c <__libc_init_array+0x40>)
 8004074:	4c0a      	ldr	r4, [pc, #40]	; (80040a0 <__libc_init_array+0x44>)
 8004076:	1ba4      	subs	r4, r4, r6
 8004078:	10a4      	asrs	r4, r4, #2
 800407a:	42a5      	cmp	r5, r4
 800407c:	d105      	bne.n	800408a <__libc_init_array+0x2e>
 800407e:	bd70      	pop	{r4, r5, r6, pc}
 8004080:	f856 3025 	ldr.w	r3, [r6, r5, lsl #2]
 8004084:	4798      	blx	r3
 8004086:	3501      	adds	r5, #1
 8004088:	e7ee      	b.n	8004068 <__libc_init_array+0xc>
 800408a:	f856 3025 	ldr.w	r3, [r6, r5, lsl #2]
 800408e:	4798      	blx	r3
 8004090:	3501      	adds	r5, #1
 8004092:	e7f2      	b.n	800407a <__libc_init_array+0x1e>
 8004094:	08004128 	.word	0x08004128
 8004098:	08004128 	.word	0x08004128
 800409c:	08004128 	.word	0x08004128
 80040a0:	0800412c 	.word	0x0800412c

080040a4 <memcpy>:
 80040a4:	b510      	push	{r4, lr}
 80040a6:	1e43      	subs	r3, r0, #1
 80040a8:	440a      	add	r2, r1
 80040aa:	4291      	cmp	r1, r2
 80040ac:	d100      	bne.n	80040b0 <memcpy+0xc>
 80040ae:	bd10      	pop	{r4, pc}
 80040b0:	f811 4b01 	ldrb.w	r4, [r1], #1
 80040b4:	f803 4f01 	strb.w	r4, [r3, #1]!
 80040b8:	e7f7      	b.n	80040aa <memcpy+0x6>

080040ba <memset>:
 80040ba:	4603      	mov	r3, r0
 80040bc:	4402      	add	r2, r0
 80040be:	4293      	cmp	r3, r2
 80040c0:	d100      	bne.n	80040c4 <memset+0xa>
 80040c2:	4770      	bx	lr
 80040c4:	f803 1b01 	strb.w	r1, [r3], #1
 80040c8:	e7f9      	b.n	80040be <memset+0x4>
	...

080040cc <_init>:
 80040cc:	b5f8      	push	{r3, r4, r5, r6, r7, lr}
 80040ce:	bf00      	nop
 80040d0:	bcf8      	pop	{r3, r4, r5, r6, r7}
 80040d2:	bc08      	pop	{r3}
 80040d4:	469e      	mov	lr, r3
 80040d6:	4770      	bx	lr

080040d8 <_fini>:
 80040d8:	b5f8      	push	{r3, r4, r5, r6, r7, lr}
 80040da:	bf00      	nop
 80040dc:	bcf8      	pop	{r3, r4, r5, r6, r7}
 80040de:	bc08      	pop	{r3}
 80040e0:	469e      	mov	lr, r3
 80040e2:	4770      	bx	lr
